---
triple:          'arm64-apple-darwin'
binary-path:     '/Users/khikidman/Dev/CS251/lab01/bomb'
relocations:
  - { offsetInCU: 0x39, offset: 0x39, size: 0x8, addend: 0x0, symName: __ZN6Random3rngE, symObjAddr: 0x4E2D0, symBinAddr: 0x100010000, symSize: 0x0 }
  - { offsetInCU: 0x354A, offset: 0x354A, size: 0x8, addend: 0x0, symName: __ZNSt3__19__shuffleB7v160006INS_17_ClassicAlgPolicyENS_11__wrap_iterIPcEES4_RNS_23mersenne_twister_engineIjLm32ELm624ELm397ELm31ELj2567483615ELm11ELj4294967295ELm7ELj2636928640ELm15ELj4022730752ELm18ELj1812433253EEEEET0_S8_T1_OT2_, symObjAddr: 0x2458, symBinAddr: 0x100005A90, symSize: 0x13C }
  - { offsetInCU: 0x3915, offset: 0x3915, size: 0x8, addend: 0x0, symName: __ZNSt3__124__put_character_sequenceB7v160006IcNS_11char_traitsIcEEEERNS_13basic_ostreamIT_T0_EES7_PKS4_m, symObjAddr: 0x31EC, symBinAddr: 0x100006824, symSize: 0x1EC }
  - { offsetInCU: 0x96A1, offset: 0x96A1, size: 0x8, addend: 0x0, symName: __ZNSt3__17shuffleB7v160006INS_11__wrap_iterIPcEERNS_23mersenne_twister_engineIjLm32ELm624ELm397ELm31ELj2567483615ELm11ELj4294967295ELm7ELj2636928640ELm15ELj4022730752ELm18ELj1812433253EEEEEvT_S7_OT0_, symObjAddr: 0x15C, symBinAddr: 0x100003794, symSize: 0x48 }
  - { offsetInCU: 0x96F7, offset: 0x96F7, size: 0x8, addend: 0x0, symName: __ZNSt3__1neB7v160006IcNS_11char_traitsIcEENS_9allocatorIcEEEEbRKNS_12basic_stringIT_T0_T1_EESB_, symObjAddr: 0x3B4, symBinAddr: 0x1000039EC, symSize: 0x34 }
  - { offsetInCU: 0x974F, offset: 0x974F, size: 0x8, addend: 0x0, symName: __ZNSt3__1lsB7v160006INS_11char_traitsIcEEEERNS_13basic_ostreamIcT_EES6_PKc, symObjAddr: 0x3E8, symBinAddr: 0x100003A20, symSize: 0x48 }
  - { offsetInCU: 0x9795, offset: 0x9795, size: 0x8, addend: 0x0, symName: __ZNSt3__14endlB7v160006IcNS_11char_traitsIcEEEERNS_13basic_ostreamIT_T0_EES7_, symObjAddr: 0x45C, symBinAddr: 0x100003A94, symSize: 0x58 }
  - { offsetInCU: 0x97D5, offset: 0x97D5, size: 0x8, addend: 0x0, symName: __ZNSt3__1lsB7v160006IcNS_11char_traitsIcEENS_9allocatorIcEEEERNS_13basic_ostreamIT_T0_EES9_RKNS_12basic_stringIS6_S7_T1_EE, symObjAddr: 0x4B4, symBinAddr: 0x100003AEC, symSize: 0x4C }
  - { offsetInCU: 0xA058, offset: 0xA058, size: 0x8, addend: 0x0, symName: __ZNSt3__1neB7v160006ERKNS_21__hash_const_iteratorIPNS_11__hash_nodeINS_12basic_stringIcNS_11char_traitsIcEENS_9allocatorIcEEEEPvEEEESD_, symObjAddr: 0x8CC, symBinAddr: 0x100003F04, symSize: 0x34 }
  - { offsetInCU: 0xA0B9, offset: 0xA0B9, size: 0x8, addend: 0x0, symName: __ZNSt3__119__debug_db_insert_cB7v160006INS_12basic_stringIcNS_11char_traitsIcEENS_9allocatorIcEEEEEEvPT_, symObjAddr: 0x11B4, symBinAddr: 0x1000047EC, symSize: 0x10 }
  - { offsetInCU: 0xA0EA, offset: 0xA0EA, size: 0x8, addend: 0x0, symName: __ZNSt3__118__constexpr_strlenB7v160006EPKc, symObjAddr: 0x1280, symBinAddr: 0x1000048B8, symSize: 0x24 }
  - { offsetInCU: 0xA116, offset: 0xA116, size: 0x8, addend: 0x0, symName: __ZNSt3__116__do_string_hashB7v160006IPKcEEmT_S3_, symObjAddr: 0x1318, symBinAddr: 0x100004950, symSize: 0x3C }
  - { offsetInCU: 0xA15C, offset: 0xA15C, size: 0x8, addend: 0x0, symName: __ZNSt3__110__loadwordB7v160006ImEET_PKv, symObjAddr: 0x1D88, symBinAddr: 0x1000053C0, symSize: 0x20 }
  - { offsetInCU: 0xA19F, offset: 0xA19F, size: 0x8, addend: 0x0, symName: __ZNSt3__14swapB7v160006ImEENS_9enable_ifIXaasr21is_move_constructibleIT_EE5valuesr18is_move_assignableIS2_EE5valueEvE4typeERS2_S5_, symObjAddr: 0x1F44, symBinAddr: 0x10000557C, symSize: 0x3C }
  - { offsetInCU: 0xA1F0, offset: 0xA1F0, size: 0x8, addend: 0x0, symName: __ZNSt3__110__loadwordB7v160006IjEET_PKv, symObjAddr: 0x1FD4, symBinAddr: 0x10000560C, symSize: 0x20 }
  - { offsetInCU: 0xA233, offset: 0xA233, size: 0x8, addend: 0x0, symName: __ZNSt3__112__to_addressB7v160006IKcEEPT_S3_, symObjAddr: 0x213C, symBinAddr: 0x100005774, symSize: 0x14 }
  - { offsetInCU: 0xA368, offset: 0xA368, size: 0x8, addend: 0x0, symName: __ZNSt3__1miB7v160006IPcS1_EEDTmicldtfp_4baseEcldtfp0_4baseEERKNS_11__wrap_iterIT_EERKNS3_IT0_EE, symObjAddr: 0x25B4, symBinAddr: 0x100005BEC, symSize: 0x40 }
  - { offsetInCU: 0xA3B4, offset: 0xA3B4, size: 0x8, addend: 0x0, symName: __ZNSt3__1ltB7v160006IPcEEbRKNS_11__wrap_iterIT_EES6_, symObjAddr: 0x2650, symBinAddr: 0x100005C88, symSize: 0x48 }
  - { offsetInCU: 0xA5F8, offset: 0xA5F8, size: 0x8, addend: 0x0, symName: __ZNSt3__113__countl_zeroB7v160006ImEEiT_, symObjAddr: 0x2A24, symBinAddr: 0x10000605C, symSize: 0x54 }
  - { offsetInCU: 0xA62D, offset: 0xA62D, size: 0x8, addend: 0x0, symName: __ZNSt3__112__libcpp_clzB7v160006Em, symObjAddr: 0x2EE8, symBinAddr: 0x100006520, symSize: 0x1C }
  - { offsetInCU: 0xA659, offset: 0xA659, size: 0x8, addend: 0x0, symName: __ZNSt3__19iter_swapB7v160006INS_11__wrap_iterIPcEES3_EEvT_T0_, symObjAddr: 0x2F38, symBinAddr: 0x100006570, symSize: 0x50 }
  - { offsetInCU: 0xA6A1, offset: 0xA6A1, size: 0x8, addend: 0x0, symName: __ZNSt3__14swapB7v160006IcEENS_9enable_ifIXaasr21is_move_constructibleIT_EE5valuesr18is_move_assignableIS2_EE5valueEvE4typeERS2_S5_, symObjAddr: 0x2F88, symBinAddr: 0x1000065C0, symSize: 0x3C }
  - { offsetInCU: 0xA6F2, offset: 0xA6F2, size: 0x8, addend: 0x0, symName: __ZNSt3__1eqB7v160006INS_9allocatorIcEEEEbRKNS_12basic_stringIcNS_11char_traitsIcEET_EES9_, symObjAddr: 0x3004, symBinAddr: 0x10000663C, symSize: 0x148 }
  - { offsetInCU: 0xA765, offset: 0xA765, size: 0x8, addend: 0x0, symName: __ZNSt3__118__constexpr_memcmpB7v160006IcEEiPKT_S3_m, symObjAddr: 0x31B8, symBinAddr: 0x1000067F0, symSize: 0x34 }
  - { offsetInCU: 0xA7B6, offset: 0xA7B6, size: 0x8, addend: 0x0, symName: __ZNSt3__116__pad_and_outputB7v160006IcNS_11char_traitsIcEEEENS_19ostreambuf_iteratorIT_T0_EES6_PKS4_S8_S8_RNS_8ios_baseES4_, symObjAddr: 0x33F4, symBinAddr: 0x100006A2C, symSize: 0x240 }
  - { offsetInCU: 0xA885, offset: 0xA885, size: 0x8, addend: 0x0, symName: __ZNSt3__19use_facetB7v160006INS_5ctypeIcEEEERKT_RKNS_6localeE, symObjAddr: 0x3988, symBinAddr: 0x100006FC0, symSize: 0x2C }
  - { offsetInCU: 0xAD54, offset: 0xAD54, size: 0x8, addend: 0x0, symName: __ZNSt3__119__debug_db_insert_cB7v160006INS_13unordered_setINS_12basic_stringIcNS_11char_traitsIcEENS_9allocatorIcEEEENS_4hashIS7_EENS_8equal_toIS7_EENS5_IS7_EEEEEEvPT_, symObjAddr: 0x3ADC, symBinAddr: 0x100007114, symSize: 0x10 }
  - { offsetInCU: 0xADA3, offset: 0xADA3, size: 0x8, addend: 0x0, symName: __ZNSt3__119__libcpp_deallocateB7v160006EPvmm, symObjAddr: 0x4464, symBinAddr: 0x100007A9C, symSize: 0x30 }
  - { offsetInCU: 0xADEB, offset: 0xADEB, size: 0x8, addend: 0x0, symName: __ZNSt3__127__do_deallocate_handle_sizeB7v160006IJEEEvPvmDpT_, symObjAddr: 0x4494, symBinAddr: 0x100007ACC, symSize: 0x28 }
  - { offsetInCU: 0xAE29, offset: 0xAE29, size: 0x8, addend: 0x0, symName: __ZNSt3__124__libcpp_operator_deleteB7v160006IJPvEEEvDpT_, symObjAddr: 0x44BC, symBinAddr: 0x100007AF4, symSize: 0x24 }
  - { offsetInCU: 0xAE5E, offset: 0xAE5E, size: 0x8, addend: 0x0, symName: __ZNSt3__13maxB7v160006ImEERKT_S3_S3_, symObjAddr: 0x4978, symBinAddr: 0x100007FB0, symSize: 0x2C }
  - { offsetInCU: 0xAEA1, offset: 0xAEA1, size: 0x8, addend: 0x0, symName: __ZNSt3__116__is_hash_power2B7v160006Em, symObjAddr: 0x49A4, symBinAddr: 0x100007FDC, symSize: 0x50 }
  - { offsetInCU: 0xAECD, offset: 0xAECD, size: 0x8, addend: 0x0, symName: __ZNSt3__116__next_hash_pow2B7v160006Em, symObjAddr: 0x49F4, symBinAddr: 0x10000802C, symSize: 0x6C }
  - { offsetInCU: 0xAEF9, offset: 0xAEF9, size: 0x8, addend: 0x0, symName: __ZNSt3__125__debug_db_invalidate_allB7v160006INS_12__hash_tableINS_12basic_stringIcNS_11char_traitsIcEENS_9allocatorIcEEEENS_4hashIS7_EENS_8equal_toIS7_EENS5_IS7_EEEEEEvPT_, symObjAddr: 0x4B88, symBinAddr: 0x1000081C0, symSize: 0x10 }
  - { offsetInCU: 0xAF46, offset: 0xAF46, size: 0x8, addend: 0x0, symName: __ZNSt3__116__constrain_hashB7v160006Emm, symObjAddr: 0x4CDC, symBinAddr: 0x100008314, symSize: 0x98 }
  - { offsetInCU: 0xAF80, offset: 0xAF80, size: 0x8, addend: 0x0, symName: __ZNSt3__117__libcpp_allocateB7v160006Emm, symObjAddr: 0x4E3C, symBinAddr: 0x100008474, symSize: 0x28 }
  - { offsetInCU: 0xAFBD, offset: 0xAFBD, size: 0x8, addend: 0x0, symName: __ZNSt3__121__libcpp_operator_newB7v160006IJmEEEPvDpT_, symObjAddr: 0x4E78, symBinAddr: 0x1000084B0, symSize: 0x24 }
  - { offsetInCU: 0xB029, offset: 0xB029, size: 0x8, addend: 0x0, symName: __ZNSt3__13maxB7v160006ImNS_6__lessImmEEEERKT_S5_S5_T0_, symObjAddr: 0x4EFC, symBinAddr: 0x100008534, symSize: 0x54 }
  - { offsetInCU: 0xB0BE, offset: 0xB0BE, size: 0x8, addend: 0x0, symName: __ZNSt3__118__debug_db_erase_cB7v160006INS_12__hash_tableINS_12basic_stringIcNS_11char_traitsIcEENS_9allocatorIcEEEENS_4hashIS7_EENS_8equal_toIS7_EENS5_IS7_EEEEEEvPT_, symObjAddr: 0x50E0, symBinAddr: 0x100008718, symSize: 0x10 }
  - { offsetInCU: 0xB10D, offset: 0xB10D, size: 0x8, addend: 0x0, symName: __ZNSt3__115__debug_db_swapB7v160006INS_12basic_stringIcNS_11char_traitsIcEENS_9allocatorIcEEEEEEvPT_S8_, symObjAddr: 0x5EEC, symBinAddr: 0x100009524, symSize: 0x14 }
  - { offsetInCU: 0xB14C, offset: 0xB14C, size: 0x8, addend: 0x0, symName: __ZNSt3__1eqB7v160006ERKNS_21__hash_const_iteratorIPNS_11__hash_nodeINS_12basic_stringIcNS_11char_traitsIcEENS_9allocatorIcEEEEPvEEEESD_, symObjAddr: 0x6244, symBinAddr: 0x10000987C, symSize: 0x30 }
  - { offsetInCU: 0xB189, offset: 0xB189, size: 0x8, addend: 0x0, symName: __ZNSt3__119__debug_db_insert_cB7v160006INS_6vectorIcNS_9allocatorIcEEEEEEvPT_, symObjAddr: 0x6308, symBinAddr: 0x100009940, symSize: 0x10 }
  - { offsetInCU: 0xB1BA, offset: 0xB1BA, size: 0x8, addend: 0x0, symName: __ZNSt3__118__debug_db_erase_cB7v160006INS_6vectorIcNS_9allocatorIcEEEEEEvPT_, symObjAddr: 0x6560, symBinAddr: 0x100009B98, symSize: 0x10 }
  - { offsetInCU: 0xB1EB, offset: 0xB1EB, size: 0x8, addend: 0x0, symName: __ZNSt3__112__to_addressB7v160006IcEEPT_S2_, symObjAddr: 0x6674, symBinAddr: 0x100009CAC, symSize: 0x14 }
  - { offsetInCU: 0xB220, offset: 0xB220, size: 0x8, addend: 0x0, symName: __ZNSt3__13minB7v160006ImEERKT_S3_S3_, symObjAddr: 0x6DD4, symBinAddr: 0x10000A40C, symSize: 0x2C }
  - { offsetInCU: 0xB263, offset: 0xB263, size: 0x8, addend: 0x0, symName: __ZNSt3__13minB7v160006ImNS_6__lessImmEEEERKT_S5_S5_T0_, symObjAddr: 0x6E4C, symBinAddr: 0x10000A484, symSize: 0x54 }
  - { offsetInCU: 0xB2BD, offset: 0xB2BD, size: 0x8, addend: 0x0, symName: __ZNSt3__120__throw_length_errorB7v160006EPKc, symObjAddr: 0x6EEC, symBinAddr: 0x10000A524, symSize: 0x64 }
  - { offsetInCU: 0xB2E5, offset: 0xB2E5, size: 0x8, addend: 0x0, symName: __ZNSt3__119__allocate_at_leastB7v160006INS_9allocatorIcEEEENS_19__allocation_resultINS_16allocator_traitsIT_E7pointerEEERS5_m, symObjAddr: 0x70E0, symBinAddr: 0x10000A718, symSize: 0x40 }
  - { offsetInCU: 0xB328, offset: 0xB328, size: 0x8, addend: 0x0, symName: __ZNSt3__142__uninitialized_allocator_move_if_noexceptB7v160006INS_9allocatorIcEENS_16reverse_iteratorIPcEES5_cvEET1_RT_T0_S9_S6_, symObjAddr: 0x7294, symBinAddr: 0x10000A8CC, symSize: 0x78 }
  - { offsetInCU: 0xB3A5, offset: 0xB3A5, size: 0x8, addend: 0x0, symName: __ZNSt3__14swapB7v160006IPcEENS_9enable_ifIXaasr21is_move_constructibleIT_EE5valuesr18is_move_assignableIS3_EE5valueEvE4typeERS3_S6_, symObjAddr: 0x7358, symBinAddr: 0x10000A990, symSize: 0x3C }
  - { offsetInCU: 0xB3F6, offset: 0xB3F6, size: 0x8, addend: 0x0, symName: __ZNSt3__125__debug_db_invalidate_allB7v160006INS_6vectorIcNS_9allocatorIcEEEEEEvPT_, symObjAddr: 0x7440, symBinAddr: 0x10000AA78, symSize: 0x10 }
  - { offsetInCU: 0xB427, offset: 0xB427, size: 0x8, addend: 0x0, symName: __ZNSt3__14moveB7v160006INS_16reverse_iteratorIPcEES3_EET0_T_S5_S4_, symObjAddr: 0x7450, symBinAddr: 0x10000AA88, symSize: 0x78 }
  - { offsetInCU: 0xB481, offset: 0xB481, size: 0x8, addend: 0x0, symName: __ZNSt3__16__moveB7v160006INS_17_ClassicAlgPolicyENS_16reverse_iteratorIPcEES4_S4_EENS_4pairIT0_T2_EES6_T1_S7_, symObjAddr: 0x74C8, symBinAddr: 0x10000AB00, symSize: 0x64 }
  - { offsetInCU: 0xB4ED, offset: 0xB4ED, size: 0x8, addend: 0x0, symName: __ZNSt3__123__dispatch_copy_or_moveB7v160006INS_17_ClassicAlgPolicyENS_11__move_loopIS1_EENS_14__move_trivialENS_16reverse_iteratorIPcEES7_S7_EENS_4pairIT2_T4_EES9_T3_SA_, symObjAddr: 0x752C, symBinAddr: 0x10000AB64, symSize: 0x64 }
  - { offsetInCU: 0xB56B, offset: 0xB56B, size: 0x8, addend: 0x0, symName: __ZNSt3__121__unwrap_and_dispatchB7v160006INS_10__overloadINS_11__move_loopINS_17_ClassicAlgPolicyEEENS_14__move_trivialEEENS_16reverse_iteratorIPcEES9_S9_Li0EEENS_4pairIT0_T2_EESB_T1_SC_, symObjAddr: 0x7590, symBinAddr: 0x10000ABC8, symSize: 0x12C }
  - { offsetInCU: 0xB5FB, offset: 0xB5FB, size: 0x8, addend: 0x0, symName: __ZNSt3__114__unwrap_rangeB7v160006INS_16reverse_iteratorIPcEES3_EENS_4pairIT0_S5_EET_S7_, symObjAddr: 0x76BC, symBinAddr: 0x10000ACF4, symSize: 0x84 }
  - { offsetInCU: 0xB76D, offset: 0xB76D, size: 0x8, addend: 0x0, symName: __ZNSt3__113__unwrap_iterB7v160006INS_16reverse_iteratorIPcEENS_18__unwrap_iter_implIS3_Lb0EEELi0EEEDTclsrT0_8__unwrapclsr3stdE7declvalIT_EEEES7_, symObjAddr: 0x77E0, symBinAddr: 0x10000AE18, symSize: 0x44 }
  - { offsetInCU: 0xB7B1, offset: 0xB7B1, size: 0x8, addend: 0x0, symName: __ZNSt3__19make_pairB7v160006INS_16reverse_iteratorIPcEES3_EENS_4pairINS_18__unwrap_ref_decayIT_E4typeENS5_IT0_E4typeEEEOS6_OS9_, symObjAddr: 0x7824, symBinAddr: 0x10000AE5C, symSize: 0x38 }
  - { offsetInCU: 0xB800, offset: 0xB800, size: 0x8, addend: 0x0, symName: __ZNSt3__114__rewrap_rangeB7v160006INS_16reverse_iteratorIPcEES3_EET_S4_T0_, symObjAddr: 0x785C, symBinAddr: 0x10000AE94, symSize: 0x5C }
  - { offsetInCU: 0xB84C, offset: 0xB84C, size: 0x8, addend: 0x0, symName: __ZNSt3__113__rewrap_iterB7v160006INS_16reverse_iteratorIPcEES3_NS_18__unwrap_iter_implIS3_Lb0EEEEET_S6_T0_, symObjAddr: 0x78B8, symBinAddr: 0x10000AEF0, symSize: 0x74 }
  - { offsetInCU: 0xB8A1, offset: 0xB8A1, size: 0x8, addend: 0x0, symName: __ZNSt3__1neB7v160006IPcS1_EEbRKNS_16reverse_iteratorIT_EERKNS2_IT0_EE, symObjAddr: 0x792C, symBinAddr: 0x10000AF64, symSize: 0x48 }
  - { offsetInCU: 0xBC80, offset: 0xBC80, size: 0x8, addend: 0x0, symName: __ZSt28__throw_bad_array_new_lengthB7v160006v, symObjAddr: 0x4E08, symBinAddr: 0x100008440, symSize: 0x34 }
  - { offsetInCU: 0xBFD3, offset: 0xBFD3, size: 0x8, addend: 0x0, symName: __ZNSt3__124uniform_int_distributionIlEclINS_23mersenne_twister_engineIjLm32ELm624ELm397ELm31ELj2567483615ELm11ELj4294967295ELm7ELj2636928640ELm15ELj4022730752ELm18ELj1812433253EEEEElRT_RKNS1_10param_typeE, symObjAddr: 0x2698, symBinAddr: 0x100005CD0, symSize: 0x174 }
  - { offsetInCU: 0xC73F, offset: 0xC73F, size: 0x8, addend: 0x0, symName: __ZNSt3__16vectorIcNS_9allocatorIcEEE26__swap_out_circular_bufferERNS_14__split_bufferIcRS2_EE, symObjAddr: 0x6C14, symBinAddr: 0x10000A24C, symSize: 0x118 }
  - { offsetInCU: 0xE97A, offset: 0xE97A, size: 0x8, addend: 0x0, symName: __ZNSt3__123mersenne_twister_engineIjLm32ELm624ELm397ELm31ELj2567483615ELm11ELj4294967295ELm7ELj2636928640ELm15ELj4022730752ELm18ELj1812433253EEC1B7v160006Ev, symObjAddr: 0x0, symBinAddr: 0x100003638, symSize: 0x30 }
  - { offsetInCU: 0xE9A3, offset: 0xE9A3, size: 0x8, addend: 0x0, symName: __Z16shuffle_passwordRKNSt3__112basic_stringIcNS_11char_traitsIcEENS_9allocatorIcEEEE, symObjAddr: 0x30, symBinAddr: 0x100003668, symSize: 0xC8 }
  - { offsetInCU: 0xE9DF, offset: 0xE9DF, size: 0x8, addend: 0x0, symName: __ZNKSt3__113__string_hashIcNS_9allocatorIcEEEclERKNS_12basic_stringIcNS_11char_traitsIcEES2_EE, symObjAddr: 0xF8, symBinAddr: 0x100003730, symSize: 0x64 }
  - { offsetInCU: 0xEA14, offset: 0xEA14, size: 0x8, addend: 0x0, symName: __ZNSt3__112basic_stringIcNS_11char_traitsIcEENS_9allocatorIcEEE5beginB7v160006Ev, symObjAddr: 0x1A4, symBinAddr: 0x1000037DC, symSize: 0x4C }
  - { offsetInCU: 0xEA3A, offset: 0xEA3A, size: 0x8, addend: 0x0, symName: __ZNSt3__112basic_stringIcNS_11char_traitsIcEENS_9allocatorIcEEE3endB7v160006Ev, symObjAddr: 0x1F0, symBinAddr: 0x100003828, symSize: 0x54 }
  - { offsetInCU: 0xEA5F, offset: 0xEA5F, size: 0x8, addend: 0x0, symName: __Z6phase0NSt3__112basic_stringIcNS_11char_traitsIcEENS_9allocatorIcEEEE, symObjAddr: 0x244, symBinAddr: 0x10000387C, symSize: 0x13C }
  - { offsetInCU: 0xEA9C, offset: 0xEA9C, size: 0x8, addend: 0x0, symName: __ZNSt3__112basic_stringIcNS_11char_traitsIcEENS_9allocatorIcEEEC1B7v160006IDnEEPKc, symObjAddr: 0x380, symBinAddr: 0x1000039B8, symSize: 0x34 }
  - { offsetInCU: 0xEADA, offset: 0xEADA, size: 0x8, addend: 0x0, symName: __ZNSt3__113basic_ostreamIcNS_11char_traitsIcEEElsB7v160006EPFRS3_S4_E, symObjAddr: 0x430, symBinAddr: 0x100003A68, symSize: 0x2C }
  - { offsetInCU: 0xEB0D, offset: 0xEB0D, size: 0x8, addend: 0x0, symName: __Z6phase1RKNSt3__112basic_stringIcNS_11char_traitsIcEENS_9allocatorIcEEEE, symObjAddr: 0x500, symBinAddr: 0x100003B38, symSize: 0x2CC }
  - { offsetInCU: 0xEC15, offset: 0xEC15, size: 0x8, addend: 0x0, symName: __ZNSt3__113unordered_setINS_12basic_stringIcNS_11char_traitsIcEENS_9allocatorIcEEEENS_4hashIS6_EENS_8equal_toIS6_EENS4_IS6_EEEC1EmRKS8_RKSA_, symObjAddr: 0x7CC, symBinAddr: 0x100003E04, symSize: 0x44 }
  - { offsetInCU: 0xEC6E, offset: 0xEC6E, size: 0x8, addend: 0x0, symName: __ZNSt3__113unordered_setINS_12basic_stringIcNS_11char_traitsIcEENS_9allocatorIcEEEENS_4hashIS6_EENS_8equal_toIS6_EENS4_IS6_EEE6insertB7v160006EOS6_, symObjAddr: 0x810, symBinAddr: 0x100003E48, symSize: 0x4C }
  - { offsetInCU: 0xECA3, offset: 0xECA3, size: 0x8, addend: 0x0, symName: __ZNSt3__113unordered_setINS_12basic_stringIcNS_11char_traitsIcEENS_9allocatorIcEEEENS_4hashIS6_EENS_8equal_toIS6_EENS4_IS6_EEE5beginB7v160006Ev, symObjAddr: 0x85C, symBinAddr: 0x100003E94, symSize: 0x38 }
  - { offsetInCU: 0xECC9, offset: 0xECC9, size: 0x8, addend: 0x0, symName: __ZNSt3__113unordered_setINS_12basic_stringIcNS_11char_traitsIcEENS_9allocatorIcEEEENS_4hashIS6_EENS_8equal_toIS6_EENS4_IS6_EEE3endB7v160006Ev, symObjAddr: 0x894, symBinAddr: 0x100003ECC, symSize: 0x38 }
  - { offsetInCU: 0xECEF, offset: 0xECEF, size: 0x8, addend: 0x0, symName: __ZNKSt3__121__hash_const_iteratorIPNS_11__hash_nodeINS_12basic_stringIcNS_11char_traitsIcEENS_9allocatorIcEEEEPvEEEdeB7v160006Ev, symObjAddr: 0x900, symBinAddr: 0x100003F38, symSize: 0x2C }
  - { offsetInCU: 0xED15, offset: 0xED15, size: 0x8, addend: 0x0, symName: __ZNKSt3__112basic_stringIcNS_11char_traitsIcEENS_9allocatorIcEEEixB7v160006Em, symObjAddr: 0x92C, symBinAddr: 0x100003F64, symSize: 0x30 }
  - { offsetInCU: 0xED4A, offset: 0xED4A, size: 0x8, addend: 0x0, symName: __ZNSt3__121__hash_const_iteratorIPNS_11__hash_nodeINS_12basic_stringIcNS_11char_traitsIcEENS_9allocatorIcEEEEPvEEEppB7v160006Ev, symObjAddr: 0x95C, symBinAddr: 0x100003F94, symSize: 0x20 }
  - { offsetInCU: 0xED70, offset: 0xED70, size: 0x8, addend: 0x0, symName: __ZNSt3__113unordered_setINS_12basic_stringIcNS_11char_traitsIcEENS_9allocatorIcEEEENS_4hashIS6_EENS_8equal_toIS6_EENS4_IS6_EEED1B7v160006Ev, symObjAddr: 0x97C, symBinAddr: 0x100003FB4, symSize: 0x2C }
  - { offsetInCU: 0xED99, offset: 0xED99, size: 0x8, addend: 0x0, symName: __Z6phase2RKNSt3__112basic_stringIcNS_11char_traitsIcEENS_9allocatorIcEEEE, symObjAddr: 0x9A8, symBinAddr: 0x100003FE0, symSize: 0x204 }
  - { offsetInCU: 0xEE16, offset: 0xEE16, size: 0x8, addend: 0x0, symName: __ZNSt3__16vectorIcNS_9allocatorIcEEEC1B7v160006Ev, symObjAddr: 0xBAC, symBinAddr: 0x1000041E4, symSize: 0x2C }
  - { offsetInCU: 0xEE40, offset: 0xEE40, size: 0x8, addend: 0x0, symName: __ZNSt3__16vectorIcNS_9allocatorIcEEE9push_backB7v160006EOc, symObjAddr: 0xBD8, symBinAddr: 0x100004210, symSize: 0x6C }
  - { offsetInCU: 0xEE77, offset: 0xEE77, size: 0x8, addend: 0x0, symName: __ZN6Random7randIntEi, symObjAddr: 0xC44, symBinAddr: 0x10000427C, symSize: 0x3C }
  - { offsetInCU: 0xEE9A, offset: 0xEE9A, size: 0x8, addend: 0x0, symName: __ZNKSt3__16vectorIcNS_9allocatorIcEEE4sizeB7v160006Ev, symObjAddr: 0xC80, symBinAddr: 0x1000042B8, symSize: 0x20 }
  - { offsetInCU: 0xEEC0, offset: 0xEEC0, size: 0x8, addend: 0x0, symName: __ZNSt3__16vectorIcNS_9allocatorIcEEEixB7v160006Em, symObjAddr: 0xCA0, symBinAddr: 0x1000042D8, symSize: 0x24 }
  - { offsetInCU: 0xEEF7, offset: 0xEEF7, size: 0x8, addend: 0x0, symName: __ZNSt3__16vectorIcNS_9allocatorIcEEED1B7v160006Ev, symObjAddr: 0xCC4, symBinAddr: 0x1000042FC, symSize: 0x2C }
  - { offsetInCU: 0xEF21, offset: 0xEF21, size: 0x8, addend: 0x0, symName: _main, symObjAddr: 0xCF0, symBinAddr: 0x100004328, symSize: 0x120 }
  - { offsetInCU: 0xEF3B, offset: 0xEF3B, size: 0x8, addend: 0x0, symName: __ZN6Random4seedEi, symObjAddr: 0xE10, symBinAddr: 0x100004448, symSize: 0x2C }
  - { offsetInCU: 0xEF5E, offset: 0xEF5E, size: 0x8, addend: 0x0, symName: __ZNSt3__123mersenne_twister_engineIjLm32ELm624ELm397ELm31ELj2567483615ELm11ELj4294967295ELm7ELj2636928640ELm15ELj4022730752ELm18ELj1812433253EEclEv, symObjAddr: 0xE3C, symBinAddr: 0x100004474, symSize: 0x14C }
  - { offsetInCU: 0xEFD1, offset: 0xEFD1, size: 0x8, addend: 0x0, symName: __ZNSt3__123mersenne_twister_engineIjLm32ELm624ELm397ELm31ELj2567483615ELm11ELj4294967295ELm7ELj2636928640ELm15ELj4022730752ELm18ELj1812433253EE8__rshiftB7v160006ILm1EEENS_9enable_ifIXltT_L_ZNS1_3_DtEEEjE4typeEj, symObjAddr: 0xF88, symBinAddr: 0x1000045C0, symSize: 0x18 }
  - { offsetInCU: 0xEFFE, offset: 0xEFFE, size: 0x8, addend: 0x0, symName: __ZNSt3__123mersenne_twister_engineIjLm32ELm624ELm397ELm31ELj2567483615ELm11ELj4294967295ELm7ELj2636928640ELm15ELj4022730752ELm18ELj1812433253EE8__rshiftB7v160006ILm11EEENS_9enable_ifIXltT_L_ZNS1_3_DtEEEjE4typeEj, symObjAddr: 0xFA0, symBinAddr: 0x1000045D8, symSize: 0x18 }
  - { offsetInCU: 0xF02B, offset: 0xF02B, size: 0x8, addend: 0x0, symName: __ZNSt3__123mersenne_twister_engineIjLm32ELm624ELm397ELm31ELj2567483615ELm11ELj4294967295ELm7ELj2636928640ELm15ELj4022730752ELm18ELj1812433253EE8__lshiftB7v160006ILm7EEENS_9enable_ifIXltT_Lm32EEjE4typeEj, symObjAddr: 0xFB8, symBinAddr: 0x1000045F0, symSize: 0x1C }
  - { offsetInCU: 0xF058, offset: 0xF058, size: 0x8, addend: 0x0, symName: __ZNSt3__123mersenne_twister_engineIjLm32ELm624ELm397ELm31ELj2567483615ELm11ELj4294967295ELm7ELj2636928640ELm15ELj4022730752ELm18ELj1812433253EE8__lshiftB7v160006ILm15EEENS_9enable_ifIXltT_Lm32EEjE4typeEj, symObjAddr: 0xFD4, symBinAddr: 0x10000460C, symSize: 0x1C }
  - { offsetInCU: 0xF085, offset: 0xF085, size: 0x8, addend: 0x0, symName: __ZNSt3__123mersenne_twister_engineIjLm32ELm624ELm397ELm31ELj2567483615ELm11ELj4294967295ELm7ELj2636928640ELm15ELj4022730752ELm18ELj1812433253EE8__rshiftB7v160006ILm18EEENS_9enable_ifIXltT_L_ZNS1_3_DtEEEjE4typeEj, symObjAddr: 0xFF0, symBinAddr: 0x100004628, symSize: 0x18 }
  - { offsetInCU: 0xF0B2, offset: 0xF0B2, size: 0x8, addend: 0x0, symName: __ZNSt3__123mersenne_twister_engineIjLm32ELm624ELm397ELm31ELj2567483615ELm11ELj4294967295ELm7ELj2636928640ELm15ELj4022730752ELm18ELj1812433253EE4seedEj, symObjAddr: 0x1008, symBinAddr: 0x100004640, symSize: 0xC4 }
  - { offsetInCU: 0xF105, offset: 0xF105, size: 0x8, addend: 0x0, symName: __ZNSt3__123mersenne_twister_engineIjLm32ELm624ELm397ELm31ELj2567483615ELm11ELj4294967295ELm7ELj2636928640ELm15ELj4022730752ELm18ELj1812433253EE8__rshiftB7v160006ILm30EEENS_9enable_ifIXltT_L_ZNS1_3_DtEEEjE4typeEj, symObjAddr: 0x10CC, symBinAddr: 0x100004704, symSize: 0x18 }
  - { offsetInCU: 0xF132, offset: 0xF132, size: 0x8, addend: 0x0, symName: __ZNSt3__112basic_stringIcNS_11char_traitsIcEENS_9allocatorIcEEEC2B7v160006IDnEEPKc, symObjAddr: 0x10E4, symBinAddr: 0x10000471C, symSize: 0x60 }
  - { offsetInCU: 0xF175, offset: 0xF175, size: 0x8, addend: 0x0, symName: __ZNSt3__117__compressed_pairINS_12basic_stringIcNS_11char_traitsIcEENS_9allocatorIcEEE5__repES5_EC1B7v160006INS_18__default_init_tagESA_EEOT_OT0_, symObjAddr: 0x1144, symBinAddr: 0x10000477C, symSize: 0x3C }
  - { offsetInCU: 0xF1CD, offset: 0xF1CD, size: 0x8, addend: 0x0, symName: __ZNSt3__111char_traitsIcE6lengthEPKc, symObjAddr: 0x1180, symBinAddr: 0x1000047B8, symSize: 0x34 }
  - { offsetInCU: 0xF1F0, offset: 0xF1F0, size: 0x8, addend: 0x0, symName: __ZNSt3__117__compressed_pairINS_12basic_stringIcNS_11char_traitsIcEENS_9allocatorIcEEE5__repES5_EC2B7v160006INS_18__default_init_tagESA_EEOT_OT0_, symObjAddr: 0x11C4, symBinAddr: 0x1000047FC, symSize: 0x3C }
  - { offsetInCU: 0xF248, offset: 0xF248, size: 0x8, addend: 0x0, symName: __ZNSt3__122__compressed_pair_elemINS_12basic_stringIcNS_11char_traitsIcEENS_9allocatorIcEEE5__repELi0ELb0EEC2B7v160006ENS_18__default_init_tagE, symObjAddr: 0x1200, symBinAddr: 0x100004838, symSize: 0x14 }
  - { offsetInCU: 0xF27D, offset: 0xF27D, size: 0x8, addend: 0x0, symName: __ZNSt3__122__compressed_pair_elemINS_9allocatorIcEELi1ELb1EEC2B7v160006ENS_18__default_init_tagE, symObjAddr: 0x1214, symBinAddr: 0x10000484C, symSize: 0x2C }
  - { offsetInCU: 0xF2B2, offset: 0xF2B2, size: 0x8, addend: 0x0, symName: __ZNSt3__19allocatorIcEC2B7v160006Ev, symObjAddr: 0x1240, symBinAddr: 0x100004878, symSize: 0x2C }
  - { offsetInCU: 0xF2DC, offset: 0xF2DC, size: 0x8, addend: 0x0, symName: __ZNSt3__116__non_trivial_ifILb1ENS_9allocatorIcEEEC2B7v160006Ev, symObjAddr: 0x126C, symBinAddr: 0x1000048A4, symSize: 0x14 }
  - { offsetInCU: 0xF306, offset: 0xF306, size: 0x8, addend: 0x0, symName: __ZNSt3__123mersenne_twister_engineIjLm32ELm624ELm397ELm31ELj2567483615ELm11ELj4294967295ELm7ELj2636928640ELm15ELj4022730752ELm18ELj1812433253EEC1B7v160006Ej, symObjAddr: 0x12B0, symBinAddr: 0x1000048E8, symSize: 0x34 }
  - { offsetInCU: 0xF33E, offset: 0xF33E, size: 0x8, addend: 0x0, symName: __ZNSt3__123mersenne_twister_engineIjLm32ELm624ELm397ELm31ELj2567483615ELm11ELj4294967295ELm7ELj2636928640ELm15ELj4022730752ELm18ELj1812433253EEC2B7v160006Ej, symObjAddr: 0x12E4, symBinAddr: 0x10000491C, symSize: 0x34 }
  - { offsetInCU: 0xF376, offset: 0xF376, size: 0x8, addend: 0x0, symName: __ZNKSt3__112basic_stringIcNS_11char_traitsIcEENS_9allocatorIcEEE4dataB7v160006Ev, symObjAddr: 0x1354, symBinAddr: 0x10000498C, symSize: 0x28 }
  - { offsetInCU: 0xF39C, offset: 0xF39C, size: 0x8, addend: 0x0, symName: __ZNKSt3__112basic_stringIcNS_11char_traitsIcEENS_9allocatorIcEEE4sizeB7v160006Ev, symObjAddr: 0x137C, symBinAddr: 0x1000049B4, symSize: 0x54 }
  - { offsetInCU: 0xF3C2, offset: 0xF3C2, size: 0x8, addend: 0x0, symName: __ZNSt3__121__murmur2_or_cityhashImLm64EEclEPKvm, symObjAddr: 0x13D0, symBinAddr: 0x100004A08, symSize: 0x410 }
  - { offsetInCU: 0xF45C, offset: 0xF45C, size: 0x8, addend: 0x0, symName: __ZNSt3__121__murmur2_or_cityhashImLm64EE18__hash_len_0_to_16EPKcm, symObjAddr: 0x17E0, symBinAddr: 0x100004E18, symSize: 0x1C0 }
  - { offsetInCU: 0xF535, offset: 0xF535, size: 0x8, addend: 0x0, symName: __ZNSt3__121__murmur2_or_cityhashImLm64EE19__hash_len_17_to_32EPKcm, symObjAddr: 0x19A0, symBinAddr: 0x100004FD8, symSize: 0x130 }
  - { offsetInCU: 0xF59E, offset: 0xF59E, size: 0x8, addend: 0x0, symName: __ZNSt3__121__murmur2_or_cityhashImLm64EE19__hash_len_33_to_64EPKcm, symObjAddr: 0x1AD0, symBinAddr: 0x100005108, symSize: 0x2B8 }
  - { offsetInCU: 0xF650, offset: 0xF650, size: 0x8, addend: 0x0, symName: __ZNSt3__121__murmur2_or_cityhashImLm64EE13__hash_len_16Emm, symObjAddr: 0x1DA8, symBinAddr: 0x1000053E0, symSize: 0x80 }
  - { offsetInCU: 0xF6AB, offset: 0xF6AB, size: 0x8, addend: 0x0, symName: __ZNSt3__121__murmur2_or_cityhashImLm64EE29__weak_hash_len_32_with_seedsEPKcmm, symObjAddr: 0x1E28, symBinAddr: 0x100005460, symSize: 0x88 }
  - { offsetInCU: 0xF6EA, offset: 0xF6EA, size: 0x8, addend: 0x0, symName: __ZNSt3__121__murmur2_or_cityhashImLm64EE8__rotateEmi, symObjAddr: 0x1EB0, symBinAddr: 0x1000054E8, symSize: 0x64 }
  - { offsetInCU: 0xF71B, offset: 0xF71B, size: 0x8, addend: 0x0, symName: __ZNSt3__14pairImmEaSB7v160006EOS1_, symObjAddr: 0x1F14, symBinAddr: 0x10000554C, symSize: 0x30 }
  - { offsetInCU: 0xF750, offset: 0xF750, size: 0x8, addend: 0x0, symName: __ZNSt3__121__murmur2_or_cityhashImLm64EE11__shift_mixEm, symObjAddr: 0x1F80, symBinAddr: 0x1000055B8, symSize: 0x1C }
  - { offsetInCU: 0xF773, offset: 0xF773, size: 0x8, addend: 0x0, symName: __ZNSt3__121__murmur2_or_cityhashImLm64EE22__rotate_by_at_least_1Emi, symObjAddr: 0x1F9C, symBinAddr: 0x1000055D4, symSize: 0x38 }
  - { offsetInCU: 0xF7A4, offset: 0xF7A4, size: 0x8, addend: 0x0, symName: __ZNSt3__121__murmur2_or_cityhashImLm64EE29__weak_hash_len_32_with_seedsEmmmmmm, symObjAddr: 0x1FF4, symBinAddr: 0x10000562C, symSize: 0xD8 }
  - { offsetInCU: 0xF820, offset: 0xF820, size: 0x8, addend: 0x0, symName: __ZNSt3__14pairImmEC1B7v160006ImmLPv0EEEOT_OT0_, symObjAddr: 0x20CC, symBinAddr: 0x100005704, symSize: 0x3C }
  - { offsetInCU: 0xF87E, offset: 0xF87E, size: 0x8, addend: 0x0, symName: __ZNSt3__14pairImmEC2B7v160006ImmLPv0EEEOT_OT0_, symObjAddr: 0x2108, symBinAddr: 0x100005740, symSize: 0x34 }
  - { offsetInCU: 0xF8DC, offset: 0xF8DC, size: 0x8, addend: 0x0, symName: __ZNKSt3__112basic_stringIcNS_11char_traitsIcEENS_9allocatorIcEEE13__get_pointerB7v160006Ev, symObjAddr: 0x2150, symBinAddr: 0x100005788, symSize: 0x54 }
  - { offsetInCU: 0xF902, offset: 0xF902, size: 0x8, addend: 0x0, symName: __ZNKSt3__112basic_stringIcNS_11char_traitsIcEENS_9allocatorIcEEE9__is_longB7v160006Ev, symObjAddr: 0x21A4, symBinAddr: 0x1000057DC, symSize: 0x38 }
  - { offsetInCU: 0xF928, offset: 0xF928, size: 0x8, addend: 0x0, symName: __ZNKSt3__112basic_stringIcNS_11char_traitsIcEENS_9allocatorIcEEE18__get_long_pointerB7v160006Ev, symObjAddr: 0x21DC, symBinAddr: 0x100005814, symSize: 0x28 }
  - { offsetInCU: 0xF94E, offset: 0xF94E, size: 0x8, addend: 0x0, symName: __ZNKSt3__112basic_stringIcNS_11char_traitsIcEENS_9allocatorIcEEE19__get_short_pointerB7v160006Ev, symObjAddr: 0x2204, symBinAddr: 0x10000583C, symSize: 0x28 }
  - { offsetInCU: 0xF974, offset: 0xF974, size: 0x8, addend: 0x0, symName: __ZNKSt3__117__compressed_pairINS_12basic_stringIcNS_11char_traitsIcEENS_9allocatorIcEEE5__repES5_E5firstB7v160006Ev, symObjAddr: 0x222C, symBinAddr: 0x100005864, symSize: 0x24 }
  - { offsetInCU: 0xF99A, offset: 0xF99A, size: 0x8, addend: 0x0, symName: __ZNKSt3__122__compressed_pair_elemINS_12basic_stringIcNS_11char_traitsIcEENS_9allocatorIcEEE5__repELi0ELb0EE5__getB7v160006Ev, symObjAddr: 0x2250, symBinAddr: 0x100005888, symSize: 0x14 }
  - { offsetInCU: 0xF9C0, offset: 0xF9C0, size: 0x8, addend: 0x0, symName: __ZNSt3__114pointer_traitsIPKcE10pointer_toB7v160006ERS1_, symObjAddr: 0x2264, symBinAddr: 0x10000589C, symSize: 0x14 }
  - { offsetInCU: 0xF9E3, offset: 0xF9E3, size: 0x8, addend: 0x0, symName: __ZNKSt3__112basic_stringIcNS_11char_traitsIcEENS_9allocatorIcEEE15__get_long_sizeB7v160006Ev, symObjAddr: 0x2278, symBinAddr: 0x1000058B0, symSize: 0x28 }
  - { offsetInCU: 0xFA09, offset: 0xFA09, size: 0x8, addend: 0x0, symName: __ZNKSt3__112basic_stringIcNS_11char_traitsIcEENS_9allocatorIcEEE16__get_short_sizeB7v160006Ev, symObjAddr: 0x22A0, symBinAddr: 0x1000058D8, symSize: 0x34 }
  - { offsetInCU: 0xFA2F, offset: 0xFA2F, size: 0x8, addend: 0x0, symName: __ZNSt3__112basic_stringIcNS_11char_traitsIcEENS_9allocatorIcEEE15__make_iteratorB7v160006EPc, symObjAddr: 0x22D4, symBinAddr: 0x10000590C, symSize: 0x34 }
  - { offsetInCU: 0xFA64, offset: 0xFA64, size: 0x8, addend: 0x0, symName: __ZNSt3__112basic_stringIcNS_11char_traitsIcEENS_9allocatorIcEEE13__get_pointerB7v160006Ev, symObjAddr: 0x2308, symBinAddr: 0x100005940, symSize: 0x54 }
  - { offsetInCU: 0xFA8A, offset: 0xFA8A, size: 0x8, addend: 0x0, symName: __ZNSt3__111__wrap_iterIPcEC1B7v160006EPKvS1_, symObjAddr: 0x235C, symBinAddr: 0x100005994, symSize: 0x3C }
  - { offsetInCU: 0xFAD0, offset: 0xFAD0, size: 0x8, addend: 0x0, symName: __ZNSt3__111__wrap_iterIPcEC2B7v160006EPKvS1_, symObjAddr: 0x2398, symBinAddr: 0x1000059D0, symSize: 0x24 }
  - { offsetInCU: 0xFB16, offset: 0xFB16, size: 0x8, addend: 0x0, symName: __ZNSt3__112basic_stringIcNS_11char_traitsIcEENS_9allocatorIcEEE18__get_long_pointerB7v160006Ev, symObjAddr: 0x23BC, symBinAddr: 0x1000059F4, symSize: 0x28 }
  - { offsetInCU: 0xFB3C, offset: 0xFB3C, size: 0x8, addend: 0x0, symName: __ZNSt3__112basic_stringIcNS_11char_traitsIcEENS_9allocatorIcEEE19__get_short_pointerB7v160006Ev, symObjAddr: 0x23E4, symBinAddr: 0x100005A1C, symSize: 0x28 }
  - { offsetInCU: 0xFB62, offset: 0xFB62, size: 0x8, addend: 0x0, symName: __ZNSt3__117__compressed_pairINS_12basic_stringIcNS_11char_traitsIcEENS_9allocatorIcEEE5__repES5_E5firstB7v160006Ev, symObjAddr: 0x240C, symBinAddr: 0x100005A44, symSize: 0x24 }
  - { offsetInCU: 0xFB88, offset: 0xFB88, size: 0x8, addend: 0x0, symName: __ZNSt3__122__compressed_pair_elemINS_12basic_stringIcNS_11char_traitsIcEENS_9allocatorIcEEE5__repELi0ELb0EE5__getB7v160006Ev, symObjAddr: 0x2430, symBinAddr: 0x100005A68, symSize: 0x14 }
  - { offsetInCU: 0xFBAE, offset: 0xFBAE, size: 0x8, addend: 0x0, symName: __ZNSt3__114pointer_traitsIPcE10pointer_toB7v160006ERc, symObjAddr: 0x2444, symBinAddr: 0x100005A7C, symSize: 0x14 }
  - { offsetInCU: 0xFBD1, offset: 0xFBD1, size: 0x8, addend: 0x0, symName: __ZNSt3__18_IterOpsINS_17_ClassicAlgPolicyEE4nextB7v160006INS_11__wrap_iterIPcEEEET_S7_S7_, symObjAddr: 0x2594, symBinAddr: 0x100005BCC, symSize: 0x20 }
  - { offsetInCU: 0xFC08, offset: 0xFC08, size: 0x8, addend: 0x0, symName: __ZNSt3__124uniform_int_distributionIlEC1Ev, symObjAddr: 0x25F4, symBinAddr: 0x100005C2C, symSize: 0x3C }
  - { offsetInCU: 0xFC32, offset: 0xFC32, size: 0x8, addend: 0x0, symName: __ZNSt3__111__wrap_iterIPcEmmB7v160006Ev, symObjAddr: 0x2630, symBinAddr: 0x100005C68, symSize: 0x20 }
  - { offsetInCU: 0xFC58, offset: 0xFC58, size: 0x8, addend: 0x0, symName: __ZNSt3__124uniform_int_distributionIlE10param_typeC1Ell, symObjAddr: 0x280C, symBinAddr: 0x100005E44, symSize: 0x3C }
  - { offsetInCU: 0xFCA3, offset: 0xFCA3, size: 0x8, addend: 0x0, symName: __ZNSt3__18_IterOpsINS_17_ClassicAlgPolicyEE9iter_swapB7v160006IRNS_11__wrap_iterIPcEES6_EEvOT_OT0_, symObjAddr: 0x2848, symBinAddr: 0x100005E80, symSize: 0x44 }
  - { offsetInCU: 0xFCE6, offset: 0xFCE6, size: 0x8, addend: 0x0, symName: __ZNKSt3__111__wrap_iterIPcEplB7v160006El, symObjAddr: 0x288C, symBinAddr: 0x100005EC4, symSize: 0x3C }
  - { offsetInCU: 0xFD28, offset: 0xFD28, size: 0x8, addend: 0x0, symName: __ZNSt3__111__wrap_iterIPcEppB7v160006Ev, symObjAddr: 0x28C8, symBinAddr: 0x100005F00, symSize: 0x20 }
  - { offsetInCU: 0xFD4E, offset: 0xFD4E, size: 0x8, addend: 0x0, symName: __ZNKSt3__111__wrap_iterIPcE4baseB7v160006Ev, symObjAddr: 0x28E8, symBinAddr: 0x100005F20, symSize: 0x18 }
  - { offsetInCU: 0xFD74, offset: 0xFD74, size: 0x8, addend: 0x0, symName: __ZNSt3__114numeric_limitsIlE3maxB7v160006Ev, symObjAddr: 0x2900, symBinAddr: 0x100005F38, symSize: 0x14 }
  - { offsetInCU: 0xFD88, offset: 0xFD88, size: 0x8, addend: 0x0, symName: __ZNSt3__124uniform_int_distributionIlEC1Ell, symObjAddr: 0x2914, symBinAddr: 0x100005F4C, symSize: 0x3C }
  - { offsetInCU: 0xFDCE, offset: 0xFDCE, size: 0x8, addend: 0x0, symName: __ZNSt3__123__libcpp_numeric_limitsIlLb1EE3maxB7v160006Ev, symObjAddr: 0x2950, symBinAddr: 0x100005F88, symSize: 0x8 }
  - { offsetInCU: 0xFDE2, offset: 0xFDE2, size: 0x8, addend: 0x0, symName: __ZNSt3__124uniform_int_distributionIlEC2Ell, symObjAddr: 0x2958, symBinAddr: 0x100005F90, symSize: 0x3C }
  - { offsetInCU: 0xFE28, offset: 0xFE28, size: 0x8, addend: 0x0, symName: __ZNKSt3__124uniform_int_distributionIlE10param_type1bEv, symObjAddr: 0x2994, symBinAddr: 0x100005FCC, symSize: 0x18 }
  - { offsetInCU: 0xFE4E, offset: 0xFE4E, size: 0x8, addend: 0x0, symName: __ZNKSt3__124uniform_int_distributionIlE10param_type1aEv, symObjAddr: 0x29AC, symBinAddr: 0x100005FE4, symSize: 0x18 }
  - { offsetInCU: 0xFE74, offset: 0xFE74, size: 0x8, addend: 0x0, symName: __ZNSt3__125__independent_bits_engineINS_23mersenne_twister_engineIjLm32ELm624ELm397ELm31ELj2567483615ELm11ELj4294967295ELm7ELj2636928640ELm15ELj4022730752ELm18ELj1812433253EEEmEC1ERS2_m, symObjAddr: 0x29C4, symBinAddr: 0x100005FFC, symSize: 0x3C }
  - { offsetInCU: 0xFEBB, offset: 0xFEBB, size: 0x8, addend: 0x0, symName: __ZNSt3__125__independent_bits_engineINS_23mersenne_twister_engineIjLm32ELm624ELm397ELm31ELj2567483615ELm11ELj4294967295ELm7ELj2636928640ELm15ELj4022730752ELm18ELj1812433253EEEmEclEv, symObjAddr: 0x2A00, symBinAddr: 0x100006038, symSize: 0x24 }
  - { offsetInCU: 0xFEE1, offset: 0xFEE1, size: 0x8, addend: 0x0, symName: __ZNSt3__114numeric_limitsImE3maxB7v160006Ev, symObjAddr: 0x2A78, symBinAddr: 0x1000060B0, symSize: 0x14 }
  - { offsetInCU: 0xFEF5, offset: 0xFEF5, size: 0x8, addend: 0x0, symName: __ZNSt3__125__independent_bits_engineINS_23mersenne_twister_engineIjLm32ELm624ELm397ELm31ELj2567483615ELm11ELj4294967295ELm7ELj2636928640ELm15ELj4022730752ELm18ELj1812433253EEEmEC2ERS2_m, symObjAddr: 0x2A8C, symBinAddr: 0x1000060C4, symSize: 0x264 }
  - { offsetInCU: 0xFF3C, offset: 0xFF3C, size: 0x8, addend: 0x0, symName: __ZNSt3__125__independent_bits_engineINS_23mersenne_twister_engineIjLm32ELm624ELm397ELm31ELj2567483615ELm11ELj4294967295ELm7ELj2636928640ELm15ELj4022730752ELm18ELj1812433253EEEmE6__evalENS_17integral_constantIbLb1EEE, symObjAddr: 0x2CF0, symBinAddr: 0x100006328, symSize: 0x1F0 }
  - { offsetInCU: 0xFFF9, offset: 0xFFF9, size: 0x8, addend: 0x0, symName: __ZNSt3__123mersenne_twister_engineIjLm32ELm624ELm397ELm31ELj2567483615ELm11ELj4294967295ELm7ELj2636928640ELm15ELj4022730752ELm18ELj1812433253EE3minB7v160006Ev, symObjAddr: 0x2EE0, symBinAddr: 0x100006518, symSize: 0x8 }
  - { offsetInCU: 0x1000D, offset: 0x1000D, size: 0x8, addend: 0x0, symName: __ZNSt3__123__libcpp_numeric_limitsImLb1EE3maxB7v160006Ev, symObjAddr: 0x2F04, symBinAddr: 0x10000653C, symSize: 0x8 }
  - { offsetInCU: 0x10021, offset: 0x10021, size: 0x8, addend: 0x0, symName: __ZNSt3__124uniform_int_distributionIlE10param_typeC2Ell, symObjAddr: 0x2F0C, symBinAddr: 0x100006544, symSize: 0x2C }
  - { offsetInCU: 0x10067, offset: 0x10067, size: 0x8, addend: 0x0, symName: __ZNKSt3__111__wrap_iterIPcEdeB7v160006Ev, symObjAddr: 0x2FC4, symBinAddr: 0x1000065FC, symSize: 0x18 }
  - { offsetInCU: 0x1008D, offset: 0x1008D, size: 0x8, addend: 0x0, symName: __ZNSt3__111__wrap_iterIPcEpLB7v160006El, symObjAddr: 0x2FDC, symBinAddr: 0x100006614, symSize: 0x28 }
  - { offsetInCU: 0x100C1, offset: 0x100C1, size: 0x8, addend: 0x0, symName: __ZNSt3__111char_traitsIcE7compareEPKcS3_m, symObjAddr: 0x314C, symBinAddr: 0x100006784, symSize: 0x6C }
  - { offsetInCU: 0x1011E, offset: 0x1011E, size: 0x8, addend: 0x0, symName: __ZNKSt3__113basic_ostreamIcNS_11char_traitsIcEEE6sentrycvbB7v160006Ev, symObjAddr: 0x33D8, symBinAddr: 0x100006A10, symSize: 0x1C }
  - { offsetInCU: 0x10144, offset: 0x10144, size: 0x8, addend: 0x0, symName: __ZNSt3__119ostreambuf_iteratorIcNS_11char_traitsIcEEEC1B7v160006ERNS_13basic_ostreamIcS2_EE, symObjAddr: 0x3634, symBinAddr: 0x100006C6C, symSize: 0x34 }
  - { offsetInCU: 0x1017C, offset: 0x1017C, size: 0x8, addend: 0x0, symName: __ZNKSt3__18ios_base5flagsB7v160006Ev, symObjAddr: 0x3668, symBinAddr: 0x100006CA0, symSize: 0x18 }
  - { offsetInCU: 0x101A4, offset: 0x101A4, size: 0x8, addend: 0x0, symName: __ZNKSt3__19basic_iosIcNS_11char_traitsIcEEE4fillB7v160006Ev, symObjAddr: 0x3680, symBinAddr: 0x100006CB8, symSize: 0x64 }
  - { offsetInCU: 0x101CC, offset: 0x101CC, size: 0x8, addend: 0x0, symName: __ZNKSt3__119ostreambuf_iteratorIcNS_11char_traitsIcEEE6failedB7v160006Ev, symObjAddr: 0x36E4, symBinAddr: 0x100006D1C, symSize: 0x24 }
  - { offsetInCU: 0x101F2, offset: 0x101F2, size: 0x8, addend: 0x0, symName: __ZNSt3__19basic_iosIcNS_11char_traitsIcEEE8setstateB7v160006Ej, symObjAddr: 0x3708, symBinAddr: 0x100006D40, symSize: 0x2C }
  - { offsetInCU: 0x10227, offset: 0x10227, size: 0x8, addend: 0x0, symName: __ZNKSt3__18ios_base5widthB7v160006Ev, symObjAddr: 0x3734, symBinAddr: 0x100006D6C, symSize: 0x18 }
  - { offsetInCU: 0x1024F, offset: 0x1024F, size: 0x8, addend: 0x0, symName: __ZNSt3__115basic_streambufIcNS_11char_traitsIcEEE5sputnB7v160006EPKcl, symObjAddr: 0x374C, symBinAddr: 0x100006D84, symSize: 0x3C }
  - { offsetInCU: 0x10291, offset: 0x10291, size: 0x8, addend: 0x0, symName: __ZNSt3__112basic_stringIcNS_11char_traitsIcEENS_9allocatorIcEEEC1B7v160006Emc, symObjAddr: 0x3788, symBinAddr: 0x100006DC0, symSize: 0x3C }
  - { offsetInCU: 0x102D9, offset: 0x102D9, size: 0x8, addend: 0x0, symName: __ZNSt3__18ios_base5widthB7v160006El, symObjAddr: 0x37C4, symBinAddr: 0x100006DFC, symSize: 0x2C }
  - { offsetInCU: 0x1031F, offset: 0x1031F, size: 0x8, addend: 0x0, symName: __ZNSt3__112basic_stringIcNS_11char_traitsIcEENS_9allocatorIcEEEC2B7v160006Emc, symObjAddr: 0x37F0, symBinAddr: 0x100006E28, symSize: 0x54 }
  - { offsetInCU: 0x10367, offset: 0x10367, size: 0x8, addend: 0x0, symName: __ZNSt3__119ostreambuf_iteratorIcNS_11char_traitsIcEEEC2B7v160006ERNS_13basic_ostreamIcS2_EE, symObjAddr: 0x3844, symBinAddr: 0x100006E7C, symSize: 0x54 }
  - { offsetInCU: 0x1039F, offset: 0x1039F, size: 0x8, addend: 0x0, symName: __ZNKSt3__19basic_iosIcNS_11char_traitsIcEEE5rdbufB7v160006Ev, symObjAddr: 0x3898, symBinAddr: 0x100006ED0, symSize: 0x24 }
  - { offsetInCU: 0x103C7, offset: 0x103C7, size: 0x8, addend: 0x0, symName: __ZNKSt3__18ios_base5rdbufB7v160006Ev, symObjAddr: 0x38BC, symBinAddr: 0x100006EF4, symSize: 0x18 }
  - { offsetInCU: 0x103ED, offset: 0x103ED, size: 0x8, addend: 0x0, symName: __ZNSt3__111char_traitsIcE11eq_int_typeEii, symObjAddr: 0x38D4, symBinAddr: 0x100006F0C, symSize: 0x28 }
  - { offsetInCU: 0x1041E, offset: 0x1041E, size: 0x8, addend: 0x0, symName: __ZNSt3__111char_traitsIcE3eofEv, symObjAddr: 0x38FC, symBinAddr: 0x100006F34, symSize: 0x8 }
  - { offsetInCU: 0x10432, offset: 0x10432, size: 0x8, addend: 0x0, symName: __ZNKSt3__19basic_iosIcNS_11char_traitsIcEEE5widenB7v160006Ec, symObjAddr: 0x3904, symBinAddr: 0x100006F3C, symSize: 0x84 }
  - { offsetInCU: 0x1049B, offset: 0x1049B, size: 0x8, addend: 0x0, symName: __ZNKSt3__15ctypeIcE5widenB7v160006Ec, symObjAddr: 0x39B4, symBinAddr: 0x100006FEC, symSize: 0x38 }
  - { offsetInCU: 0x104D0, offset: 0x104D0, size: 0x8, addend: 0x0, symName: __ZNSt3__18ios_base8setstateB7v160006Ej, symObjAddr: 0x39EC, symBinAddr: 0x100007024, symSize: 0x34 }
  - { offsetInCU: 0x10507, offset: 0x10507, size: 0x8, addend: 0x0, symName: __ZNSt3__113unordered_setINS_12basic_stringIcNS_11char_traitsIcEENS_9allocatorIcEEEENS_4hashIS6_EENS_8equal_toIS6_EENS4_IS6_EEEC2EmRKS8_RKSA_, symObjAddr: 0x3A20, symBinAddr: 0x100007058, symSize: 0x80 }
  - { offsetInCU: 0x10560, offset: 0x10560, size: 0x8, addend: 0x0, symName: __ZNSt3__112__hash_tableINS_12basic_stringIcNS_11char_traitsIcEENS_9allocatorIcEEEENS_4hashIS6_EENS_8equal_toIS6_EENS4_IS6_EEEC1ERKS8_RKSA_, symObjAddr: 0x3AA0, symBinAddr: 0x1000070D8, symSize: 0x3C }
  - { offsetInCU: 0x105AA, offset: 0x105AA, size: 0x8, addend: 0x0, symName: __ZNSt3__112__hash_tableINS_12basic_stringIcNS_11char_traitsIcEENS_9allocatorIcEEEENS_4hashIS6_EENS_8equal_toIS6_EENS4_IS6_EEE15__rehash_uniqueB7v160006Em, symObjAddr: 0x3AEC, symBinAddr: 0x100007124, symSize: 0x2C }
  - { offsetInCU: 0x105DF, offset: 0x105DF, size: 0x8, addend: 0x0, symName: __ZNSt3__112__hash_tableINS_12basic_stringIcNS_11char_traitsIcEENS_9allocatorIcEEEENS_4hashIS6_EENS_8equal_toIS6_EENS4_IS6_EEED1Ev, symObjAddr: 0x3B18, symBinAddr: 0x100007150, symSize: 0x2C }
  - { offsetInCU: 0x1060B, offset: 0x1060B, size: 0x8, addend: 0x0, symName: __ZNSt3__112__hash_tableINS_12basic_stringIcNS_11char_traitsIcEENS_9allocatorIcEEEENS_4hashIS6_EENS_8equal_toIS6_EENS4_IS6_EEEC2ERKS8_RKSA_, symObjAddr: 0x3B44, symBinAddr: 0x10000717C, symSize: 0xBC }
  - { offsetInCU: 0x10655, offset: 0x10655, size: 0x8, addend: 0x0, symName: __ZNSt3__125__bucket_list_deallocatorINS_9allocatorIPNS_16__hash_node_baseIPNS_11__hash_nodeINS_12basic_stringIcNS_11char_traitsIcEENS1_IcEEEEPvEEEEEEEC1B7v160006Ev, symObjAddr: 0x3C00, symBinAddr: 0x100007238, symSize: 0x2C }
  - { offsetInCU: 0x1067F, offset: 0x1067F, size: 0x8, addend: 0x0, symName: __ZNSt3__110unique_ptrIA_PNS_16__hash_node_baseIPNS_11__hash_nodeINS_12basic_stringIcNS_11char_traitsIcEENS_9allocatorIcEEEEPvEEEENS_25__bucket_list_deallocatorINS6_ISD_EEEEEC1B7v160006ILb1EvEEDnNS_16__dependent_typeINS_27__unique_ptr_deleter_sfinaeISH_EEXT_EE20__good_rval_ref_typeE, symObjAddr: 0x3C2C, symBinAddr: 0x100007264, symSize: 0x3C }
  - { offsetInCU: 0x106CE, offset: 0x106CE, size: 0x8, addend: 0x0, symName: __ZNSt3__117__compressed_pairINS_16__hash_node_baseIPNS_11__hash_nodeINS_12basic_stringIcNS_11char_traitsIcEENS_9allocatorIcEEEEPvEEEENS6_ISA_EEEC1B7v160006ILb1EvEEv, symObjAddr: 0x3C68, symBinAddr: 0x1000072A0, symSize: 0x2C }
  - { offsetInCU: 0x10708, offset: 0x10708, size: 0x8, addend: 0x0, symName: __ZNSt3__117__compressed_pairImNS_4hashINS_12basic_stringIcNS_11char_traitsIcEENS_9allocatorIcEEEEEEEC1B7v160006IiRKS8_EEOT_OT0_, symObjAddr: 0x3C94, symBinAddr: 0x1000072CC, symSize: 0x3C }
  - { offsetInCU: 0x10765, offset: 0x10765, size: 0x8, addend: 0x0, symName: __ZNSt3__117__compressed_pairIfNS_8equal_toINS_12basic_stringIcNS_11char_traitsIcEENS_9allocatorIcEEEEEEEC1B7v160006IfRKS8_EEOT_OT0_, symObjAddr: 0x3CD0, symBinAddr: 0x100007308, symSize: 0x3C }
  - { offsetInCU: 0x107BD, offset: 0x107BD, size: 0x8, addend: 0x0, symName: __ZNSt3__110unique_ptrIA_PNS_16__hash_node_baseIPNS_11__hash_nodeINS_12basic_stringIcNS_11char_traitsIcEENS_9allocatorIcEEEEPvEEEENS_25__bucket_list_deallocatorINS6_ISD_EEEEED1B7v160006Ev, symObjAddr: 0x3D0C, symBinAddr: 0x100007344, symSize: 0x2C }
  - { offsetInCU: 0x107E7, offset: 0x107E7, size: 0x8, addend: 0x0, symName: __ZNSt3__125__bucket_list_deallocatorINS_9allocatorIPNS_16__hash_node_baseIPNS_11__hash_nodeINS_12basic_stringIcNS_11char_traitsIcEENS1_IcEEEEPvEEEEEEEC2B7v160006Ev, symObjAddr: 0x3D38, symBinAddr: 0x100007370, symSize: 0x40 }
  - { offsetInCU: 0x10811, offset: 0x10811, size: 0x8, addend: 0x0, symName: __ZNSt3__117__compressed_pairImNS_9allocatorIPNS_16__hash_node_baseIPNS_11__hash_nodeINS_12basic_stringIcNS_11char_traitsIcEENS1_IcEEEEPvEEEEEEEC1B7v160006IiNS_18__default_init_tagEEEOT_OT0_, symObjAddr: 0x3D78, symBinAddr: 0x1000073B0, symSize: 0x3C }
  - { offsetInCU: 0x10869, offset: 0x10869, size: 0x8, addend: 0x0, symName: __ZNSt3__117__compressed_pairImNS_9allocatorIPNS_16__hash_node_baseIPNS_11__hash_nodeINS_12basic_stringIcNS_11char_traitsIcEENS1_IcEEEEPvEEEEEEEC2B7v160006IiNS_18__default_init_tagEEEOT_OT0_, symObjAddr: 0x3DB4, symBinAddr: 0x1000073EC, symSize: 0x40 }
  - { offsetInCU: 0x108C1, offset: 0x108C1, size: 0x8, addend: 0x0, symName: __ZNSt3__122__compressed_pair_elemImLi0ELb0EEC2B7v160006IivEEOT_, symObjAddr: 0x3DF4, symBinAddr: 0x10000742C, symSize: 0x24 }
  - { offsetInCU: 0x10903, offset: 0x10903, size: 0x8, addend: 0x0, symName: __ZNSt3__122__compressed_pair_elemINS_9allocatorIPNS_16__hash_node_baseIPNS_11__hash_nodeINS_12basic_stringIcNS_11char_traitsIcEENS1_IcEEEEPvEEEEEELi1ELb1EEC2B7v160006ENS_18__default_init_tagE, symObjAddr: 0x3E18, symBinAddr: 0x100007450, symSize: 0x2C }
  - { offsetInCU: 0x10938, offset: 0x10938, size: 0x8, addend: 0x0, symName: __ZNSt3__19allocatorIPNS_16__hash_node_baseIPNS_11__hash_nodeINS_12basic_stringIcNS_11char_traitsIcEENS0_IcEEEEPvEEEEEC2B7v160006Ev, symObjAddr: 0x3E44, symBinAddr: 0x10000747C, symSize: 0x2C }
  - { offsetInCU: 0x10962, offset: 0x10962, size: 0x8, addend: 0x0, symName: __ZNSt3__116__non_trivial_ifILb1ENS_9allocatorIPNS_16__hash_node_baseIPNS_11__hash_nodeINS_12basic_stringIcNS_11char_traitsIcEENS1_IcEEEEPvEEEEEEEC2B7v160006Ev, symObjAddr: 0x3E70, symBinAddr: 0x1000074A8, symSize: 0x14 }
  - { offsetInCU: 0x1098C, offset: 0x1098C, size: 0x8, addend: 0x0, symName: __ZNSt3__110unique_ptrIA_PNS_16__hash_node_baseIPNS_11__hash_nodeINS_12basic_stringIcNS_11char_traitsIcEENS_9allocatorIcEEEEPvEEEENS_25__bucket_list_deallocatorINS6_ISD_EEEEEC2B7v160006ILb1EvEEDnNS_16__dependent_typeINS_27__unique_ptr_deleter_sfinaeISH_EEXT_EE20__good_rval_ref_typeE, symObjAddr: 0x3E84, symBinAddr: 0x1000074BC, symSize: 0x48 }
  - { offsetInCU: 0x109E0, offset: 0x109E0, size: 0x8, addend: 0x0, symName: __ZNSt3__117__compressed_pairIPPNS_16__hash_node_baseIPNS_11__hash_nodeINS_12basic_stringIcNS_11char_traitsIcEENS_9allocatorIcEEEEPvEEEENS_25__bucket_list_deallocatorINS6_ISD_EEEEEC1B7v160006IDnSH_EEOT_OT0_, symObjAddr: 0x3ECC, symBinAddr: 0x100007504, symSize: 0x3C }
  - { offsetInCU: 0x10A38, offset: 0x10A38, size: 0x8, addend: 0x0, symName: __ZNSt3__117__compressed_pairIPPNS_16__hash_node_baseIPNS_11__hash_nodeINS_12basic_stringIcNS_11char_traitsIcEENS_9allocatorIcEEEEPvEEEENS_25__bucket_list_deallocatorINS6_ISD_EEEEEC2B7v160006IDnSH_EEOT_OT0_, symObjAddr: 0x3F08, symBinAddr: 0x100007540, symSize: 0x48 }
  - { offsetInCU: 0x10A90, offset: 0x10A90, size: 0x8, addend: 0x0, symName: __ZNSt3__122__compressed_pair_elemIPPNS_16__hash_node_baseIPNS_11__hash_nodeINS_12basic_stringIcNS_11char_traitsIcEENS_9allocatorIcEEEEPvEEEELi0ELb0EEC2B7v160006IDnvEEOT_, symObjAddr: 0x3F50, symBinAddr: 0x100007588, symSize: 0x1C }
  - { offsetInCU: 0x10AD2, offset: 0x10AD2, size: 0x8, addend: 0x0, symName: __ZNSt3__122__compressed_pair_elemINS_25__bucket_list_deallocatorINS_9allocatorIPNS_16__hash_node_baseIPNS_11__hash_nodeINS_12basic_stringIcNS_11char_traitsIcEENS2_IcEEEEPvEEEEEEEELi1ELb0EEC2B7v160006ISG_vEEOT_, symObjAddr: 0x3F6C, symBinAddr: 0x1000075A4, symSize: 0x34 }
  - { offsetInCU: 0x10B14, offset: 0x10B14, size: 0x8, addend: 0x0, symName: __ZNSt3__125__bucket_list_deallocatorINS_9allocatorIPNS_16__hash_node_baseIPNS_11__hash_nodeINS_12basic_stringIcNS_11char_traitsIcEENS1_IcEEEEPvEEEEEEEC1B7v160006EOSF_, symObjAddr: 0x3FA0, symBinAddr: 0x1000075D8, symSize: 0x34 }
  - { offsetInCU: 0x10B4D, offset: 0x10B4D, size: 0x8, addend: 0x0, symName: __ZNSt3__125__bucket_list_deallocatorINS_9allocatorIPNS_16__hash_node_baseIPNS_11__hash_nodeINS_12basic_stringIcNS_11char_traitsIcEENS1_IcEEEEPvEEEEEEEC2B7v160006EOSF_, symObjAddr: 0x3FD4, symBinAddr: 0x10000760C, symSize: 0x48 }
  - { offsetInCU: 0x10B86, offset: 0x10B86, size: 0x8, addend: 0x0, symName: __ZNSt3__125__bucket_list_deallocatorINS_9allocatorIPNS_16__hash_node_baseIPNS_11__hash_nodeINS_12basic_stringIcNS_11char_traitsIcEENS1_IcEEEEPvEEEEEEE4sizeB7v160006Ev, symObjAddr: 0x401C, symBinAddr: 0x100007654, symSize: 0x24 }
  - { offsetInCU: 0x10BAC, offset: 0x10BAC, size: 0x8, addend: 0x0, symName: __ZNSt3__117__compressed_pairImNS_9allocatorIPNS_16__hash_node_baseIPNS_11__hash_nodeINS_12basic_stringIcNS_11char_traitsIcEENS1_IcEEEEPvEEEEEEE5firstB7v160006Ev, symObjAddr: 0x4040, symBinAddr: 0x100007678, symSize: 0x24 }
  - { offsetInCU: 0x10BD2, offset: 0x10BD2, size: 0x8, addend: 0x0, symName: __ZNSt3__122__compressed_pair_elemImLi0ELb0EE5__getB7v160006Ev, symObjAddr: 0x4064, symBinAddr: 0x10000769C, symSize: 0x14 }
  - { offsetInCU: 0x10BF8, offset: 0x10BF8, size: 0x8, addend: 0x0, symName: __ZNSt3__117__compressed_pairINS_16__hash_node_baseIPNS_11__hash_nodeINS_12basic_stringIcNS_11char_traitsIcEENS_9allocatorIcEEEEPvEEEENS6_ISA_EEEC2B7v160006ILb1EvEEv, symObjAddr: 0x4078, symBinAddr: 0x1000076B0, symSize: 0x34 }
  - { offsetInCU: 0x10C2D, offset: 0x10C2D, size: 0x8, addend: 0x0, symName: __ZNSt3__122__compressed_pair_elemINS_16__hash_node_baseIPNS_11__hash_nodeINS_12basic_stringIcNS_11char_traitsIcEENS_9allocatorIcEEEEPvEEEELi0ELb0EEC2B7v160006ENS_16__value_init_tagE, symObjAddr: 0x40AC, symBinAddr: 0x1000076E4, symSize: 0x2C }
  - { offsetInCU: 0x10C62, offset: 0x10C62, size: 0x8, addend: 0x0, symName: __ZNSt3__122__compressed_pair_elemINS_9allocatorINS_11__hash_nodeINS_12basic_stringIcNS_11char_traitsIcEENS1_IcEEEEPvEEEELi1ELb1EEC2B7v160006ENS_16__value_init_tagE, symObjAddr: 0x40D8, symBinAddr: 0x100007710, symSize: 0x2C }
  - { offsetInCU: 0x10C97, offset: 0x10C97, size: 0x8, addend: 0x0, symName: __ZNSt3__116__hash_node_baseIPNS_11__hash_nodeINS_12basic_stringIcNS_11char_traitsIcEENS_9allocatorIcEEEEPvEEEC1B7v160006Ev, symObjAddr: 0x4104, symBinAddr: 0x10000773C, symSize: 0x2C }
  - { offsetInCU: 0x10CC1, offset: 0x10CC1, size: 0x8, addend: 0x0, symName: __ZNSt3__116__hash_node_baseIPNS_11__hash_nodeINS_12basic_stringIcNS_11char_traitsIcEENS_9allocatorIcEEEEPvEEEC2B7v160006Ev, symObjAddr: 0x4130, symBinAddr: 0x100007768, symSize: 0x18 }
  - { offsetInCU: 0x10CEB, offset: 0x10CEB, size: 0x8, addend: 0x0, symName: __ZNSt3__19allocatorINS_11__hash_nodeINS_12basic_stringIcNS_11char_traitsIcEENS0_IcEEEEPvEEEC2B7v160006Ev, symObjAddr: 0x4148, symBinAddr: 0x100007780, symSize: 0x2C }
  - { offsetInCU: 0x10D15, offset: 0x10D15, size: 0x8, addend: 0x0, symName: __ZNSt3__116__non_trivial_ifILb1ENS_9allocatorINS_11__hash_nodeINS_12basic_stringIcNS_11char_traitsIcEENS1_IcEEEEPvEEEEEC2B7v160006Ev, symObjAddr: 0x4174, symBinAddr: 0x1000077AC, symSize: 0x14 }
  - { offsetInCU: 0x10D3F, offset: 0x10D3F, size: 0x8, addend: 0x0, symName: __ZNSt3__117__compressed_pairImNS_4hashINS_12basic_stringIcNS_11char_traitsIcEENS_9allocatorIcEEEEEEEC2B7v160006IiRKS8_EEOT_OT0_, symObjAddr: 0x4188, symBinAddr: 0x1000077C0, symSize: 0x44 }
  - { offsetInCU: 0x10D97, offset: 0x10D97, size: 0x8, addend: 0x0, symName: __ZNSt3__122__compressed_pair_elemINS_4hashINS_12basic_stringIcNS_11char_traitsIcEENS_9allocatorIcEEEEEELi1ELb1EEC2B7v160006IRKS8_vEEOT_, symObjAddr: 0x41CC, symBinAddr: 0x100007804, symSize: 0x18 }
  - { offsetInCU: 0x10DD9, offset: 0x10DD9, size: 0x8, addend: 0x0, symName: __ZNSt3__117__compressed_pairIfNS_8equal_toINS_12basic_stringIcNS_11char_traitsIcEENS_9allocatorIcEEEEEEEC2B7v160006IfRKS8_EEOT_OT0_, symObjAddr: 0x41E4, symBinAddr: 0x10000781C, symSize: 0x44 }
  - { offsetInCU: 0x10E31, offset: 0x10E31, size: 0x8, addend: 0x0, symName: __ZNSt3__122__compressed_pair_elemIfLi0ELb0EEC2B7v160006IfvEEOT_, symObjAddr: 0x4228, symBinAddr: 0x100007860, symSize: 0x24 }
  - { offsetInCU: 0x10E73, offset: 0x10E73, size: 0x8, addend: 0x0, symName: __ZNSt3__122__compressed_pair_elemINS_8equal_toINS_12basic_stringIcNS_11char_traitsIcEENS_9allocatorIcEEEEEELi1ELb1EEC2B7v160006IRKS8_vEEOT_, symObjAddr: 0x424C, symBinAddr: 0x100007884, symSize: 0x18 }
  - { offsetInCU: 0x10EB5, offset: 0x10EB5, size: 0x8, addend: 0x0, symName: __ZNSt3__110unique_ptrIA_PNS_16__hash_node_baseIPNS_11__hash_nodeINS_12basic_stringIcNS_11char_traitsIcEENS_9allocatorIcEEEEPvEEEENS_25__bucket_list_deallocatorINS6_ISD_EEEEED2B7v160006Ev, symObjAddr: 0x4264, symBinAddr: 0x10000789C, symSize: 0x30 }
  - { offsetInCU: 0x10EDF, offset: 0x10EDF, size: 0x8, addend: 0x0, symName: __ZNSt3__110unique_ptrIA_PNS_16__hash_node_baseIPNS_11__hash_nodeINS_12basic_stringIcNS_11char_traitsIcEENS_9allocatorIcEEEEPvEEEENS_25__bucket_list_deallocatorINS6_ISD_EEEEE5resetB7v160006EDn, symObjAddr: 0x4294, symBinAddr: 0x1000078CC, symSize: 0x6C }
  - { offsetInCU: 0x10F1F, offset: 0x10F1F, size: 0x8, addend: 0x0, symName: __ZNSt3__117__compressed_pairIPPNS_16__hash_node_baseIPNS_11__hash_nodeINS_12basic_stringIcNS_11char_traitsIcEENS_9allocatorIcEEEEPvEEEENS_25__bucket_list_deallocatorINS6_ISD_EEEEE5firstB7v160006Ev, symObjAddr: 0x4300, symBinAddr: 0x100007938, symSize: 0x24 }
  - { offsetInCU: 0x10F45, offset: 0x10F45, size: 0x8, addend: 0x0, symName: __ZNSt3__117__compressed_pairIPPNS_16__hash_node_baseIPNS_11__hash_nodeINS_12basic_stringIcNS_11char_traitsIcEENS_9allocatorIcEEEEPvEEEENS_25__bucket_list_deallocatorINS6_ISD_EEEEE6secondB7v160006Ev, symObjAddr: 0x4324, symBinAddr: 0x10000795C, symSize: 0x28 }
  - { offsetInCU: 0x10F6B, offset: 0x10F6B, size: 0x8, addend: 0x0, symName: __ZNSt3__125__bucket_list_deallocatorINS_9allocatorIPNS_16__hash_node_baseIPNS_11__hash_nodeINS_12basic_stringIcNS_11char_traitsIcEENS1_IcEEEEPvEEEEEEEclB7v160006EPSD_, symObjAddr: 0x434C, symBinAddr: 0x100007984, symSize: 0x58 }
  - { offsetInCU: 0x10FA0, offset: 0x10FA0, size: 0x8, addend: 0x0, symName: __ZNSt3__122__compressed_pair_elemIPPNS_16__hash_node_baseIPNS_11__hash_nodeINS_12basic_stringIcNS_11char_traitsIcEENS_9allocatorIcEEEEPvEEEELi0ELb0EE5__getB7v160006Ev, symObjAddr: 0x43A4, symBinAddr: 0x1000079DC, symSize: 0x14 }
  - { offsetInCU: 0x10FC6, offset: 0x10FC6, size: 0x8, addend: 0x0, symName: __ZNSt3__122__compressed_pair_elemINS_25__bucket_list_deallocatorINS_9allocatorIPNS_16__hash_node_baseIPNS_11__hash_nodeINS_12basic_stringIcNS_11char_traitsIcEENS2_IcEEEEPvEEEEEEEELi1ELb0EE5__getB7v160006Ev, symObjAddr: 0x43B8, symBinAddr: 0x1000079F0, symSize: 0x14 }
  - { offsetInCU: 0x10FEC, offset: 0x10FEC, size: 0x8, addend: 0x0, symName: __ZNSt3__116allocator_traitsINS_9allocatorIPNS_16__hash_node_baseIPNS_11__hash_nodeINS_12basic_stringIcNS_11char_traitsIcEENS1_IcEEEEPvEEEEEEE10deallocateB7v160006ERSE_PSD_m, symObjAddr: 0x43CC, symBinAddr: 0x100007A04, symSize: 0x34 }
  - { offsetInCU: 0x1102E, offset: 0x1102E, size: 0x8, addend: 0x0, symName: __ZNSt3__125__bucket_list_deallocatorINS_9allocatorIPNS_16__hash_node_baseIPNS_11__hash_nodeINS_12basic_stringIcNS_11char_traitsIcEENS1_IcEEEEPvEEEEEEE7__allocB7v160006Ev, symObjAddr: 0x4400, symBinAddr: 0x100007A38, symSize: 0x24 }
  - { offsetInCU: 0x11054, offset: 0x11054, size: 0x8, addend: 0x0, symName: __ZNSt3__19allocatorIPNS_16__hash_node_baseIPNS_11__hash_nodeINS_12basic_stringIcNS_11char_traitsIcEENS0_IcEEEEPvEEEEE10deallocateB7v160006EPSC_m, symObjAddr: 0x4424, symBinAddr: 0x100007A5C, symSize: 0x40 }
  - { offsetInCU: 0x11096, offset: 0x11096, size: 0x8, addend: 0x0, symName: __ZNSt3__117__compressed_pairImNS_9allocatorIPNS_16__hash_node_baseIPNS_11__hash_nodeINS_12basic_stringIcNS_11char_traitsIcEENS1_IcEEEEPvEEEEEEE6secondB7v160006Ev, symObjAddr: 0x44E0, symBinAddr: 0x100007B18, symSize: 0x24 }
  - { offsetInCU: 0x110BC, offset: 0x110BC, size: 0x8, addend: 0x0, symName: __ZNSt3__122__compressed_pair_elemINS_9allocatorIPNS_16__hash_node_baseIPNS_11__hash_nodeINS_12basic_stringIcNS_11char_traitsIcEENS1_IcEEEEPvEEEEEELi1ELb1EE5__getB7v160006Ev, symObjAddr: 0x4504, symBinAddr: 0x100007B3C, symSize: 0x14 }
  - { offsetInCU: 0x110E2, offset: 0x110E2, size: 0x8, addend: 0x0, symName: __ZNSt3__112__hash_tableINS_12basic_stringIcNS_11char_traitsIcEENS_9allocatorIcEEEENS_4hashIS6_EENS_8equal_toIS6_EENS4_IS6_EEE8__rehashILb1EEEvm, symObjAddr: 0x4518, symBinAddr: 0x100007B50, symSize: 0x1A8 }
  - { offsetInCU: 0x11132, offset: 0x11132, size: 0x8, addend: 0x0, symName: __ZNKSt3__112__hash_tableINS_12basic_stringIcNS_11char_traitsIcEENS_9allocatorIcEEEENS_4hashIS6_EENS_8equal_toIS6_EENS4_IS6_EEE12bucket_countB7v160006Ev, symObjAddr: 0x46C0, symBinAddr: 0x100007CF8, symSize: 0x28 }
  - { offsetInCU: 0x11158, offset: 0x11158, size: 0x8, addend: 0x0, symName: __ZNSt3__112__hash_tableINS_12basic_stringIcNS_11char_traitsIcEENS_9allocatorIcEEEENS_4hashIS6_EENS_8equal_toIS6_EENS4_IS6_EEE11__do_rehashILb1EEEvm, symObjAddr: 0x46E8, symBinAddr: 0x100007D20, symSize: 0x290 }
  - { offsetInCU: 0x1123A, offset: 0x1123A, size: 0x8, addend: 0x0, symName: __Z4ceilB7v160006f, symObjAddr: 0x4A60, symBinAddr: 0x100008098, symSize: 0x18 }
  - { offsetInCU: 0x11269, offset: 0x11269, size: 0x8, addend: 0x0, symName: __ZNSt3__112__hash_tableINS_12basic_stringIcNS_11char_traitsIcEENS_9allocatorIcEEEENS_4hashIS6_EENS_8equal_toIS6_EENS4_IS6_EEE4sizeB7v160006Ev, symObjAddr: 0x4A78, symBinAddr: 0x1000080B0, symSize: 0x28 }
  - { offsetInCU: 0x1128F, offset: 0x1128F, size: 0x8, addend: 0x0, symName: __ZNSt3__112__hash_tableINS_12basic_stringIcNS_11char_traitsIcEENS_9allocatorIcEEEENS_4hashIS6_EENS_8equal_toIS6_EENS4_IS6_EEE15max_load_factorB7v160006Ev, symObjAddr: 0x4AA0, symBinAddr: 0x1000080D8, symSize: 0x28 }
  - { offsetInCU: 0x112B5, offset: 0x112B5, size: 0x8, addend: 0x0, symName: __ZNKSt3__110unique_ptrIA_PNS_16__hash_node_baseIPNS_11__hash_nodeINS_12basic_stringIcNS_11char_traitsIcEENS_9allocatorIcEEEEPvEEEENS_25__bucket_list_deallocatorINS6_ISD_EEEEE11get_deleterB7v160006Ev, symObjAddr: 0x4AC8, symBinAddr: 0x100008100, symSize: 0x24 }
  - { offsetInCU: 0x112DB, offset: 0x112DB, size: 0x8, addend: 0x0, symName: __ZNKSt3__125__bucket_list_deallocatorINS_9allocatorIPNS_16__hash_node_baseIPNS_11__hash_nodeINS_12basic_stringIcNS_11char_traitsIcEENS1_IcEEEEPvEEEEEEE4sizeB7v160006Ev, symObjAddr: 0x4AEC, symBinAddr: 0x100008124, symSize: 0x28 }
  - { offsetInCU: 0x11301, offset: 0x11301, size: 0x8, addend: 0x0, symName: __ZNKSt3__117__compressed_pairIPPNS_16__hash_node_baseIPNS_11__hash_nodeINS_12basic_stringIcNS_11char_traitsIcEENS_9allocatorIcEEEEPvEEEENS_25__bucket_list_deallocatorINS6_ISD_EEEEE6secondB7v160006Ev, symObjAddr: 0x4B14, symBinAddr: 0x10000814C, symSize: 0x28 }
  - { offsetInCU: 0x11327, offset: 0x11327, size: 0x8, addend: 0x0, symName: __ZNKSt3__122__compressed_pair_elemINS_25__bucket_list_deallocatorINS_9allocatorIPNS_16__hash_node_baseIPNS_11__hash_nodeINS_12basic_stringIcNS_11char_traitsIcEENS2_IcEEEEPvEEEEEEEELi1ELb0EE5__getB7v160006Ev, symObjAddr: 0x4B3C, symBinAddr: 0x100008174, symSize: 0x14 }
  - { offsetInCU: 0x1134D, offset: 0x1134D, size: 0x8, addend: 0x0, symName: __ZNKSt3__117__compressed_pairImNS_9allocatorIPNS_16__hash_node_baseIPNS_11__hash_nodeINS_12basic_stringIcNS_11char_traitsIcEENS1_IcEEEEPvEEEEEEE5firstB7v160006Ev, symObjAddr: 0x4B50, symBinAddr: 0x100008188, symSize: 0x24 }
  - { offsetInCU: 0x11373, offset: 0x11373, size: 0x8, addend: 0x0, symName: __ZNKSt3__122__compressed_pair_elemImLi0ELb0EE5__getB7v160006Ev, symObjAddr: 0x4B74, symBinAddr: 0x1000081AC, symSize: 0x14 }
  - { offsetInCU: 0x11399, offset: 0x11399, size: 0x8, addend: 0x0, symName: __ZNSt3__110unique_ptrIA_PNS_16__hash_node_baseIPNS_11__hash_nodeINS_12basic_stringIcNS_11char_traitsIcEENS_9allocatorIcEEEEPvEEEENS_25__bucket_list_deallocatorINS6_ISD_EEEEE11get_deleterB7v160006Ev, symObjAddr: 0x4B98, symBinAddr: 0x1000081D0, symSize: 0x24 }
  - { offsetInCU: 0x113BF, offset: 0x113BF, size: 0x8, addend: 0x0, symName: __ZNSt3__110unique_ptrIA_PNS_16__hash_node_baseIPNS_11__hash_nodeINS_12basic_stringIcNS_11char_traitsIcEENS_9allocatorIcEEEEPvEEEENS_25__bucket_list_deallocatorINS6_ISD_EEEEE5resetB7v160006IPSD_EENS_9enable_ifIXsr28_CheckArrayPointerConversionIT_EE5valueEvE4typeESM_, symObjAddr: 0x4BBC, symBinAddr: 0x1000081F4, symSize: 0x78 }
  - { offsetInCU: 0x1140C, offset: 0x1140C, size: 0x8, addend: 0x0, symName: __ZNSt3__116allocator_traitsINS_9allocatorIPNS_16__hash_node_baseIPNS_11__hash_nodeINS_12basic_stringIcNS_11char_traitsIcEENS1_IcEEEEPvEEEEEEE8allocateB7v160006ERSE_m, symObjAddr: 0x4C34, symBinAddr: 0x10000826C, symSize: 0x2C }
  - { offsetInCU: 0x1143F, offset: 0x1143F, size: 0x8, addend: 0x0, symName: __ZNKSt3__110unique_ptrIA_PNS_16__hash_node_baseIPNS_11__hash_nodeINS_12basic_stringIcNS_11char_traitsIcEENS_9allocatorIcEEEEPvEEEENS_25__bucket_list_deallocatorINS6_ISD_EEEEEixB7v160006Em, symObjAddr: 0x4C60, symBinAddr: 0x100008298, symSize: 0x34 }
  - { offsetInCU: 0x11474, offset: 0x11474, size: 0x8, addend: 0x0, symName: __ZNSt3__117__compressed_pairINS_16__hash_node_baseIPNS_11__hash_nodeINS_12basic_stringIcNS_11char_traitsIcEENS_9allocatorIcEEEEPvEEEENS6_ISA_EEE5firstB7v160006Ev, symObjAddr: 0x4C94, symBinAddr: 0x1000082CC, symSize: 0x24 }
  - { offsetInCU: 0x1149A, offset: 0x1149A, size: 0x8, addend: 0x0, symName: __ZNSt3__116__hash_node_baseIPNS_11__hash_nodeINS_12basic_stringIcNS_11char_traitsIcEENS_9allocatorIcEEEEPvEEE5__ptrB7v160006Ev, symObjAddr: 0x4CB8, symBinAddr: 0x1000082F0, symSize: 0x24 }
  - { offsetInCU: 0x114C0, offset: 0x114C0, size: 0x8, addend: 0x0, symName: __ZNKSt3__116__hash_node_baseIPNS_11__hash_nodeINS_12basic_stringIcNS_11char_traitsIcEENS_9allocatorIcEEEEPvEEE6__hashB7v160006Ev, symObjAddr: 0x4D74, symBinAddr: 0x1000083AC, symSize: 0x18 }
  - { offsetInCU: 0x114E6, offset: 0x114E6, size: 0x8, addend: 0x0, symName: __ZNSt3__19allocatorIPNS_16__hash_node_baseIPNS_11__hash_nodeINS_12basic_stringIcNS_11char_traitsIcEENS0_IcEEEEPvEEEEE8allocateB7v160006Em, symObjAddr: 0x4D8C, symBinAddr: 0x1000083C4, symSize: 0x58 }
  - { offsetInCU: 0x11524, offset: 0x11524, size: 0x8, addend: 0x0, symName: __ZNSt3__116allocator_traitsINS_9allocatorIPNS_16__hash_node_baseIPNS_11__hash_nodeINS_12basic_stringIcNS_11char_traitsIcEENS1_IcEEEEPvEEEEEEE8max_sizeB7v160006ISE_vEEmRKSE_, symObjAddr: 0x4DE4, symBinAddr: 0x10000841C, symSize: 0x24 }
  - { offsetInCU: 0x11552, offset: 0x11552, size: 0x8, addend: 0x0, symName: __ZNKSt3__19allocatorIPNS_16__hash_node_baseIPNS_11__hash_nodeINS_12basic_stringIcNS_11char_traitsIcEENS0_IcEEEEPvEEEEE8max_sizeB7v160006Ev, symObjAddr: 0x4E64, symBinAddr: 0x10000849C, symSize: 0x14 }
  - { offsetInCU: 0x11578, offset: 0x11578, size: 0x8, addend: 0x0, symName: __ZNKSt3__117__compressed_pairIPPNS_16__hash_node_baseIPNS_11__hash_nodeINS_12basic_stringIcNS_11char_traitsIcEENS_9allocatorIcEEEEPvEEEENS_25__bucket_list_deallocatorINS6_ISD_EEEEE5firstB7v160006Ev, symObjAddr: 0x4E9C, symBinAddr: 0x1000084D4, symSize: 0x24 }
  - { offsetInCU: 0x1159E, offset: 0x1159E, size: 0x8, addend: 0x0, symName: __ZNKSt3__122__compressed_pair_elemIPPNS_16__hash_node_baseIPNS_11__hash_nodeINS_12basic_stringIcNS_11char_traitsIcEENS_9allocatorIcEEEEPvEEEELi0ELb0EE5__getB7v160006Ev, symObjAddr: 0x4EC0, symBinAddr: 0x1000084F8, symSize: 0x14 }
  - { offsetInCU: 0x115C4, offset: 0x115C4, size: 0x8, addend: 0x0, symName: __ZNSt3__122__compressed_pair_elemINS_16__hash_node_baseIPNS_11__hash_nodeINS_12basic_stringIcNS_11char_traitsIcEENS_9allocatorIcEEEEPvEEEELi0ELb0EE5__getB7v160006Ev, symObjAddr: 0x4ED4, symBinAddr: 0x10000850C, symSize: 0x14 }
  - { offsetInCU: 0x115EA, offset: 0x115EA, size: 0x8, addend: 0x0, symName: __ZNSt3__114pointer_traitsIPNS_16__hash_node_baseIPNS_11__hash_nodeINS_12basic_stringIcNS_11char_traitsIcEENS_9allocatorIcEEEEPvEEEEE10pointer_toB7v160006ERSC_, symObjAddr: 0x4EE8, symBinAddr: 0x100008520, symSize: 0x14 }
  - { offsetInCU: 0x11617, offset: 0x11617, size: 0x8, addend: 0x0, symName: __ZNKSt3__16__lessImmEclB7v160006ERKmS3_, symObjAddr: 0x4F50, symBinAddr: 0x100008588, symSize: 0x34 }
  - { offsetInCU: 0x11659, offset: 0x11659, size: 0x8, addend: 0x0, symName: __ZNSt3__117__compressed_pairImNS_4hashINS_12basic_stringIcNS_11char_traitsIcEENS_9allocatorIcEEEEEEE5firstB7v160006Ev, symObjAddr: 0x4F84, symBinAddr: 0x1000085BC, symSize: 0x24 }
  - { offsetInCU: 0x1167F, offset: 0x1167F, size: 0x8, addend: 0x0, symName: __ZNSt3__117__compressed_pairIfNS_8equal_toINS_12basic_stringIcNS_11char_traitsIcEENS_9allocatorIcEEEEEEE5firstB7v160006Ev, symObjAddr: 0x4FA8, symBinAddr: 0x1000085E0, symSize: 0x24 }
  - { offsetInCU: 0x116A5, offset: 0x116A5, size: 0x8, addend: 0x0, symName: __ZNSt3__122__compressed_pair_elemIfLi0ELb0EE5__getB7v160006Ev, symObjAddr: 0x4FCC, symBinAddr: 0x100008604, symSize: 0x14 }
  - { offsetInCU: 0x116CB, offset: 0x116CB, size: 0x8, addend: 0x0, symName: __ZNSt3__112__hash_tableINS_12basic_stringIcNS_11char_traitsIcEENS_9allocatorIcEEEENS_4hashIS6_EENS_8equal_toIS6_EENS4_IS6_EEED2Ev, symObjAddr: 0x4FE0, symBinAddr: 0x100008618, symSize: 0x58 }
  - { offsetInCU: 0x116F7, offset: 0x116F7, size: 0x8, addend: 0x0, symName: __ZNSt3__112__hash_tableINS_12basic_stringIcNS_11char_traitsIcEENS_9allocatorIcEEEENS_4hashIS6_EENS_8equal_toIS6_EENS4_IS6_EEE17__deallocate_nodeEPNS_16__hash_node_baseIPNS_11__hash_nodeIS6_PvEEEE, symObjAddr: 0x5038, symBinAddr: 0x100008670, symSize: 0xA8 }
  - { offsetInCU: 0x11761, offset: 0x11761, size: 0x8, addend: 0x0, symName: __ZNSt3__112__hash_tableINS_12basic_stringIcNS_11char_traitsIcEENS_9allocatorIcEEEENS_4hashIS6_EENS_8equal_toIS6_EENS4_IS6_EEE12__node_allocB7v160006Ev, symObjAddr: 0x50F0, symBinAddr: 0x100008728, symSize: 0x28 }
  - { offsetInCU: 0x11787, offset: 0x11787, size: 0x8, addend: 0x0, symName: __ZNSt3__116__hash_node_baseIPNS_11__hash_nodeINS_12basic_stringIcNS_11char_traitsIcEENS_9allocatorIcEEEEPvEEE8__upcastB7v160006Ev, symObjAddr: 0x5118, symBinAddr: 0x100008750, symSize: 0x24 }
  - { offsetInCU: 0x117AD, offset: 0x117AD, size: 0x8, addend: 0x0, symName: __ZNSt3__116allocator_traitsINS_9allocatorINS_11__hash_nodeINS_12basic_stringIcNS_11char_traitsIcEENS1_IcEEEEPvEEEEE7destroyB7v160006IS7_vvEEvRSA_PT_, symObjAddr: 0x513C, symBinAddr: 0x100008774, symSize: 0x28 }
  - { offsetInCU: 0x117E7, offset: 0x117E7, size: 0x8, addend: 0x0, symName: __ZNSt3__122__hash_key_value_typesINS_12basic_stringIcNS_11char_traitsIcEENS_9allocatorIcEEEEE9__get_ptrB7v160006ERS6_, symObjAddr: 0x5164, symBinAddr: 0x10000879C, symSize: 0x14 }
  - { offsetInCU: 0x1180A, offset: 0x1180A, size: 0x8, addend: 0x0, symName: __ZNSt3__116allocator_traitsINS_9allocatorINS_11__hash_nodeINS_12basic_stringIcNS_11char_traitsIcEENS1_IcEEEEPvEEEEE10deallocateB7v160006ERSA_PS9_m, symObjAddr: 0x5178, symBinAddr: 0x1000087B0, symSize: 0x34 }
  - { offsetInCU: 0x1184C, offset: 0x1184C, size: 0x8, addend: 0x0, symName: __ZNSt3__117__compressed_pairINS_16__hash_node_baseIPNS_11__hash_nodeINS_12basic_stringIcNS_11char_traitsIcEENS_9allocatorIcEEEEPvEEEENS6_ISA_EEE6secondB7v160006Ev, symObjAddr: 0x51AC, symBinAddr: 0x1000087E4, symSize: 0x24 }
  - { offsetInCU: 0x11872, offset: 0x11872, size: 0x8, addend: 0x0, symName: __ZNSt3__122__compressed_pair_elemINS_9allocatorINS_11__hash_nodeINS_12basic_stringIcNS_11char_traitsIcEENS1_IcEEEEPvEEEELi1ELb1EE5__getB7v160006Ev, symObjAddr: 0x51D0, symBinAddr: 0x100008808, symSize: 0x14 }
  - { offsetInCU: 0x11898, offset: 0x11898, size: 0x8, addend: 0x0, symName: __ZNSt3__19allocatorINS_11__hash_nodeINS_12basic_stringIcNS_11char_traitsIcEENS0_IcEEEEPvEEE10deallocateB7v160006EPS8_m, symObjAddr: 0x51E4, symBinAddr: 0x10000881C, symSize: 0x44 }
  - { offsetInCU: 0x118DA, offset: 0x118DA, size: 0x8, addend: 0x0, symName: __ZNSt3__113unordered_setINS_12basic_stringIcNS_11char_traitsIcEENS_9allocatorIcEEEENS_4hashIS6_EENS_8equal_toIS6_EENS4_IS6_EEED2B7v160006Ev, symObjAddr: 0x5228, symBinAddr: 0x100008860, symSize: 0x2C }
  - { offsetInCU: 0x11904, offset: 0x11904, size: 0x8, addend: 0x0, symName: __ZNSt3__112__hash_tableINS_12basic_stringIcNS_11char_traitsIcEENS_9allocatorIcEEEENS_4hashIS6_EENS_8equal_toIS6_EENS4_IS6_EEE15__insert_uniqueB7v160006EOS6_, symObjAddr: 0x5254, symBinAddr: 0x10000888C, symSize: 0x50 }
  - { offsetInCU: 0x11939, offset: 0x11939, size: 0x8, addend: 0x0, symName: __ZNSt3__14pairINS_21__hash_const_iteratorIPNS_11__hash_nodeINS_12basic_stringIcNS_11char_traitsIcEENS_9allocatorIcEEEEPvEEEEbEC1B7v160006INS_15__hash_iteratorISB_EEbLS9_0EEEONS0_IT_T0_EE, symObjAddr: 0x52A4, symBinAddr: 0x1000088DC, symSize: 0x34 }
  - { offsetInCU: 0x1198F, offset: 0x1198F, size: 0x8, addend: 0x0, symName: __ZNSt3__112__hash_tableINS_12basic_stringIcNS_11char_traitsIcEENS_9allocatorIcEEEENS_4hashIS6_EENS_8equal_toIS6_EENS4_IS6_EEE25__emplace_unique_key_argsIS6_JS6_EEENS_4pairINS_15__hash_iteratorIPNS_11__hash_nodeIS6_PvEEEEbEERKT_DpOT0_, symObjAddr: 0x52D8, symBinAddr: 0x100008910, symSize: 0x488 }
  - { offsetInCU: 0x11A6F, offset: 0x11A6F, size: 0x8, addend: 0x0, symName: __ZNSt3__122__hash_key_value_typesINS_12basic_stringIcNS_11char_traitsIcEENS_9allocatorIcEEEEE9__get_keyB7v160006ERKS6_, symObjAddr: 0x5760, symBinAddr: 0x100008D98, symSize: 0x14 }
  - { offsetInCU: 0x11A92, offset: 0x11A92, size: 0x8, addend: 0x0, symName: __ZNSt3__112__hash_tableINS_12basic_stringIcNS_11char_traitsIcEENS_9allocatorIcEEEENS_4hashIS6_EENS_8equal_toIS6_EENS4_IS6_EEE13hash_functionB7v160006Ev, symObjAddr: 0x5774, symBinAddr: 0x100008DAC, symSize: 0x28 }
  - { offsetInCU: 0x11AB8, offset: 0x11AB8, size: 0x8, addend: 0x0, symName: __ZNSt3__112__hash_tableINS_12basic_stringIcNS_11char_traitsIcEENS_9allocatorIcEEEENS_4hashIS6_EENS_8equal_toIS6_EENS4_IS6_EEE6key_eqB7v160006Ev, symObjAddr: 0x579C, symBinAddr: 0x100008DD4, symSize: 0x28 }
  - { offsetInCU: 0x11ADE, offset: 0x11ADE, size: 0x8, addend: 0x0, symName: __ZNKSt3__18equal_toINS_12basic_stringIcNS_11char_traitsIcEENS_9allocatorIcEEEEEclB7v160006ERKS6_S9_, symObjAddr: 0x57C4, symBinAddr: 0x100008DFC, symSize: 0x34 }
  - { offsetInCU: 0x11B22, offset: 0x11B22, size: 0x8, addend: 0x0, symName: __ZNSt3__112__hash_tableINS_12basic_stringIcNS_11char_traitsIcEENS_9allocatorIcEEEENS_4hashIS6_EENS_8equal_toIS6_EENS4_IS6_EEE21__construct_node_hashIS6_JEEENS_10unique_ptrINS_11__hash_nodeIS6_PvEENS_22__hash_node_destructorINS4_ISH_EEEEEEmOT_DpOT0_, symObjAddr: 0x57F8, symBinAddr: 0x100008E30, symSize: 0x138 }
  - { offsetInCU: 0x11B95, offset: 0x11B95, size: 0x8, addend: 0x0, symName: __ZNKSt3__110unique_ptrINS_11__hash_nodeINS_12basic_stringIcNS_11char_traitsIcEENS_9allocatorIcEEEEPvEENS_22__hash_node_destructorINS5_IS9_EEEEEptB7v160006Ev, symObjAddr: 0x5930, symBinAddr: 0x100008F68, symSize: 0x28 }
  - { offsetInCU: 0x11BBB, offset: 0x11BBB, size: 0x8, addend: 0x0, symName: __ZNKSt3__110unique_ptrINS_11__hash_nodeINS_12basic_stringIcNS_11char_traitsIcEENS_9allocatorIcEEEEPvEENS_22__hash_node_destructorINS5_IS9_EEEEE3getB7v160006Ev, symObjAddr: 0x5958, symBinAddr: 0x100008F90, symSize: 0x28 }
  - { offsetInCU: 0x11BE1, offset: 0x11BE1, size: 0x8, addend: 0x0, symName: __ZNSt3__110unique_ptrINS_11__hash_nodeINS_12basic_stringIcNS_11char_traitsIcEENS_9allocatorIcEEEEPvEENS_22__hash_node_destructorINS5_IS9_EEEEE7releaseB7v160006Ev, symObjAddr: 0x5980, symBinAddr: 0x100008FB8, symSize: 0x44 }
  - { offsetInCU: 0x11C16, offset: 0x11C16, size: 0x8, addend: 0x0, symName: __ZNSt3__110unique_ptrINS_11__hash_nodeINS_12basic_stringIcNS_11char_traitsIcEENS_9allocatorIcEEEEPvEENS_22__hash_node_destructorINS5_IS9_EEEEED1B7v160006Ev, symObjAddr: 0x59C4, symBinAddr: 0x100008FFC, symSize: 0x2C }
  - { offsetInCU: 0x11C40, offset: 0x11C40, size: 0x8, addend: 0x0, symName: __ZNSt3__115__hash_iteratorIPNS_11__hash_nodeINS_12basic_stringIcNS_11char_traitsIcEENS_9allocatorIcEEEEPvEEEC1B7v160006EPNS_16__hash_node_baseISA_EEPKv, symObjAddr: 0x59F0, symBinAddr: 0x100009028, symSize: 0x3C }
  - { offsetInCU: 0x11C92, offset: 0x11C92, size: 0x8, addend: 0x0, symName: __ZNSt3__14pairINS_15__hash_iteratorIPNS_11__hash_nodeINS_12basic_stringIcNS_11char_traitsIcEENS_9allocatorIcEEEEPvEEEEbEC1B7v160006ISC_RbLS9_0EEEOT_OT0_, symObjAddr: 0x5A2C, symBinAddr: 0x100009064, symSize: 0x3C }
  - { offsetInCU: 0x11CF0, offset: 0x11CF0, size: 0x8, addend: 0x0, symName: __ZNSt3__117__compressed_pairImNS_4hashINS_12basic_stringIcNS_11char_traitsIcEENS_9allocatorIcEEEEEEE6secondB7v160006Ev, symObjAddr: 0x5A68, symBinAddr: 0x1000090A0, symSize: 0x24 }
  - { offsetInCU: 0x11D16, offset: 0x11D16, size: 0x8, addend: 0x0, symName: __ZNSt3__122__compressed_pair_elemINS_4hashINS_12basic_stringIcNS_11char_traitsIcEENS_9allocatorIcEEEEEELi1ELb1EE5__getB7v160006Ev, symObjAddr: 0x5A8C, symBinAddr: 0x1000090C4, symSize: 0x14 }
  - { offsetInCU: 0x11D3C, offset: 0x11D3C, size: 0x8, addend: 0x0, symName: __ZNSt3__117__compressed_pairIfNS_8equal_toINS_12basic_stringIcNS_11char_traitsIcEENS_9allocatorIcEEEEEEE6secondB7v160006Ev, symObjAddr: 0x5AA0, symBinAddr: 0x1000090D8, symSize: 0x24 }
  - { offsetInCU: 0x11D62, offset: 0x11D62, size: 0x8, addend: 0x0, symName: __ZNSt3__122__compressed_pair_elemINS_8equal_toINS_12basic_stringIcNS_11char_traitsIcEENS_9allocatorIcEEEEEELi1ELb1EE5__getB7v160006Ev, symObjAddr: 0x5AC4, symBinAddr: 0x1000090FC, symSize: 0x14 }
  - { offsetInCU: 0x11D88, offset: 0x11D88, size: 0x8, addend: 0x0, symName: __ZNSt3__116allocator_traitsINS_9allocatorINS_11__hash_nodeINS_12basic_stringIcNS_11char_traitsIcEENS1_IcEEEEPvEEEEE8allocateB7v160006ERSA_m, symObjAddr: 0x5AD8, symBinAddr: 0x100009110, symSize: 0x2C }
  - { offsetInCU: 0x11DBB, offset: 0x11DBB, size: 0x8, addend: 0x0, symName: __ZNSt3__122__hash_node_destructorINS_9allocatorINS_11__hash_nodeINS_12basic_stringIcNS_11char_traitsIcEENS1_IcEEEEPvEEEEEC1B7v160006ERSA_b, symObjAddr: 0x5B04, symBinAddr: 0x10000913C, symSize: 0x48 }
  - { offsetInCU: 0x11E08, offset: 0x11E08, size: 0x8, addend: 0x0, symName: __ZNSt3__110unique_ptrINS_11__hash_nodeINS_12basic_stringIcNS_11char_traitsIcEENS_9allocatorIcEEEEPvEENS_22__hash_node_destructorINS5_IS9_EEEEEC1B7v160006ILb1EvEEPS9_NS_16__dependent_typeINS_27__unique_ptr_deleter_sfinaeISC_EEXT_EE20__good_rval_ref_typeE, symObjAddr: 0x5B4C, symBinAddr: 0x100009184, symSize: 0x3C }
  - { offsetInCU: 0x11E59, offset: 0x11E59, size: 0x8, addend: 0x0, symName: __ZNSt3__116allocator_traitsINS_9allocatorINS_11__hash_nodeINS_12basic_stringIcNS_11char_traitsIcEENS1_IcEEEEPvEEEEE9constructB7v160006IS7_JS7_EvEEvRSA_PT_DpOT0_, symObjAddr: 0x5B88, symBinAddr: 0x1000091C0, symSize: 0x34 }
  - { offsetInCU: 0x11EB0, offset: 0x11EB0, size: 0x8, addend: 0x0, symName: __ZNSt3__110unique_ptrINS_11__hash_nodeINS_12basic_stringIcNS_11char_traitsIcEENS_9allocatorIcEEEEPvEENS_22__hash_node_destructorINS5_IS9_EEEEE11get_deleterB7v160006Ev, symObjAddr: 0x5BBC, symBinAddr: 0x1000091F4, symSize: 0x24 }
  - { offsetInCU: 0x11ED6, offset: 0x11ED6, size: 0x8, addend: 0x0, symName: __ZNSt3__19allocatorINS_11__hash_nodeINS_12basic_stringIcNS_11char_traitsIcEENS0_IcEEEEPvEEE8allocateB7v160006Em, symObjAddr: 0x5BE0, symBinAddr: 0x100009218, symSize: 0x5C }
  - { offsetInCU: 0x11F14, offset: 0x11F14, size: 0x8, addend: 0x0, symName: __ZNSt3__116allocator_traitsINS_9allocatorINS_11__hash_nodeINS_12basic_stringIcNS_11char_traitsIcEENS1_IcEEEEPvEEEEE8max_sizeB7v160006ISA_vEEmRKSA_, symObjAddr: 0x5C3C, symBinAddr: 0x100009274, symSize: 0x24 }
  - { offsetInCU: 0x11F42, offset: 0x11F42, size: 0x8, addend: 0x0, symName: __ZNKSt3__19allocatorINS_11__hash_nodeINS_12basic_stringIcNS_11char_traitsIcEENS0_IcEEEEPvEEE8max_sizeB7v160006Ev, symObjAddr: 0x5C60, symBinAddr: 0x100009298, symSize: 0x18 }
  - { offsetInCU: 0x11F68, offset: 0x11F68, size: 0x8, addend: 0x0, symName: __ZNSt3__122__hash_node_destructorINS_9allocatorINS_11__hash_nodeINS_12basic_stringIcNS_11char_traitsIcEENS1_IcEEEEPvEEEEEC2B7v160006ERSA_b, symObjAddr: 0x5C78, symBinAddr: 0x1000092B0, symSize: 0x38 }
  - { offsetInCU: 0x11FB0, offset: 0x11FB0, size: 0x8, addend: 0x0, symName: __ZNSt3__110unique_ptrINS_11__hash_nodeINS_12basic_stringIcNS_11char_traitsIcEENS_9allocatorIcEEEEPvEENS_22__hash_node_destructorINS5_IS9_EEEEEC2B7v160006ILb1EvEEPS9_NS_16__dependent_typeINS_27__unique_ptr_deleter_sfinaeISC_EEXT_EE20__good_rval_ref_typeE, symObjAddr: 0x5CB0, symBinAddr: 0x1000092E8, symSize: 0x48 }
  - { offsetInCU: 0x12001, offset: 0x12001, size: 0x8, addend: 0x0, symName: __ZNSt3__117__compressed_pairIPNS_11__hash_nodeINS_12basic_stringIcNS_11char_traitsIcEENS_9allocatorIcEEEEPvEENS_22__hash_node_destructorINS5_IS9_EEEEEC1B7v160006IRSA_SD_EEOT_OT0_, symObjAddr: 0x5CF8, symBinAddr: 0x100009330, symSize: 0x3C }
  - { offsetInCU: 0x12059, offset: 0x12059, size: 0x8, addend: 0x0, symName: __ZNSt3__117__compressed_pairIPNS_11__hash_nodeINS_12basic_stringIcNS_11char_traitsIcEENS_9allocatorIcEEEEPvEENS_22__hash_node_destructorINS5_IS9_EEEEEC2B7v160006IRSA_SD_EEOT_OT0_, symObjAddr: 0x5D34, symBinAddr: 0x10000936C, symSize: 0x48 }
  - { offsetInCU: 0x120B1, offset: 0x120B1, size: 0x8, addend: 0x0, symName: __ZNSt3__122__compressed_pair_elemIPNS_11__hash_nodeINS_12basic_stringIcNS_11char_traitsIcEENS_9allocatorIcEEEEPvEELi0ELb0EEC2B7v160006IRSA_vEEOT_, symObjAddr: 0x5D7C, symBinAddr: 0x1000093B4, symSize: 0x24 }
  - { offsetInCU: 0x120F3, offset: 0x120F3, size: 0x8, addend: 0x0, symName: __ZNSt3__122__compressed_pair_elemINS_22__hash_node_destructorINS_9allocatorINS_11__hash_nodeINS_12basic_stringIcNS_11char_traitsIcEENS2_IcEEEEPvEEEEEELi1ELb0EEC2B7v160006ISC_vEEOT_, symObjAddr: 0x5DA0, symBinAddr: 0x1000093D8, symSize: 0x24 }
  - { offsetInCU: 0x12135, offset: 0x12135, size: 0x8, addend: 0x0, symName: __ZNSt3__19allocatorINS_11__hash_nodeINS_12basic_stringIcNS_11char_traitsIcEENS0_IcEEEEPvEEE9constructB7v160006IS6_JS6_EEEvPT_DpOT0_, symObjAddr: 0x5DC4, symBinAddr: 0x1000093FC, symSize: 0x30 }
  - { offsetInCU: 0x1218B, offset: 0x1218B, size: 0x8, addend: 0x0, symName: __ZNSt3__112basic_stringIcNS_11char_traitsIcEENS_9allocatorIcEEEC1B7v160006EOS5_, symObjAddr: 0x5DF4, symBinAddr: 0x10000942C, symSize: 0x34 }
  - { offsetInCU: 0x121C4, offset: 0x121C4, size: 0x8, addend: 0x0, symName: __ZNSt3__112basic_stringIcNS_11char_traitsIcEENS_9allocatorIcEEEC2B7v160006EOS5_, symObjAddr: 0x5E28, symBinAddr: 0x100009460, symSize: 0x84 }
  - { offsetInCU: 0x121FD, offset: 0x121FD, size: 0x8, addend: 0x0, symName: __ZNSt3__112basic_stringIcNS_11char_traitsIcEENS_9allocatorIcEEE14__default_initB7v160006Ev, symObjAddr: 0x5EAC, symBinAddr: 0x1000094E4, symSize: 0x40 }
  - { offsetInCU: 0x12223, offset: 0x12223, size: 0x8, addend: 0x0, symName: __ZNSt3__117__compressed_pairIPNS_11__hash_nodeINS_12basic_stringIcNS_11char_traitsIcEENS_9allocatorIcEEEEPvEENS_22__hash_node_destructorINS5_IS9_EEEEE6secondB7v160006Ev, symObjAddr: 0x5F00, symBinAddr: 0x100009538, symSize: 0x28 }
  - { offsetInCU: 0x12249, offset: 0x12249, size: 0x8, addend: 0x0, symName: __ZNSt3__122__compressed_pair_elemINS_22__hash_node_destructorINS_9allocatorINS_11__hash_nodeINS_12basic_stringIcNS_11char_traitsIcEENS2_IcEEEEPvEEEEEELi1ELb0EE5__getB7v160006Ev, symObjAddr: 0x5F28, symBinAddr: 0x100009560, symSize: 0x14 }
  - { offsetInCU: 0x1226F, offset: 0x1226F, size: 0x8, addend: 0x0, symName: __ZNKSt3__117__compressed_pairIPNS_11__hash_nodeINS_12basic_stringIcNS_11char_traitsIcEENS_9allocatorIcEEEEPvEENS_22__hash_node_destructorINS5_IS9_EEEEE5firstB7v160006Ev, symObjAddr: 0x5F3C, symBinAddr: 0x100009574, symSize: 0x24 }
  - { offsetInCU: 0x12295, offset: 0x12295, size: 0x8, addend: 0x0, symName: __ZNKSt3__122__compressed_pair_elemIPNS_11__hash_nodeINS_12basic_stringIcNS_11char_traitsIcEENS_9allocatorIcEEEEPvEELi0ELb0EE5__getB7v160006Ev, symObjAddr: 0x5F60, symBinAddr: 0x100009598, symSize: 0x14 }
  - { offsetInCU: 0x122BB, offset: 0x122BB, size: 0x8, addend: 0x0, symName: __ZNSt3__117__compressed_pairIPNS_11__hash_nodeINS_12basic_stringIcNS_11char_traitsIcEENS_9allocatorIcEEEEPvEENS_22__hash_node_destructorINS5_IS9_EEEEE5firstB7v160006Ev, symObjAddr: 0x5F74, symBinAddr: 0x1000095AC, symSize: 0x24 }
  - { offsetInCU: 0x122E1, offset: 0x122E1, size: 0x8, addend: 0x0, symName: __ZNSt3__122__compressed_pair_elemIPNS_11__hash_nodeINS_12basic_stringIcNS_11char_traitsIcEENS_9allocatorIcEEEEPvEELi0ELb0EE5__getB7v160006Ev, symObjAddr: 0x5F98, symBinAddr: 0x1000095D0, symSize: 0x14 }
  - { offsetInCU: 0x12307, offset: 0x12307, size: 0x8, addend: 0x0, symName: __ZNSt3__110unique_ptrINS_11__hash_nodeINS_12basic_stringIcNS_11char_traitsIcEENS_9allocatorIcEEEEPvEENS_22__hash_node_destructorINS5_IS9_EEEEED2B7v160006Ev, symObjAddr: 0x5FAC, symBinAddr: 0x1000095E4, symSize: 0x30 }
  - { offsetInCU: 0x12331, offset: 0x12331, size: 0x8, addend: 0x0, symName: __ZNSt3__110unique_ptrINS_11__hash_nodeINS_12basic_stringIcNS_11char_traitsIcEENS_9allocatorIcEEEEPvEENS_22__hash_node_destructorINS5_IS9_EEEEE5resetB7v160006EPS9_, symObjAddr: 0x5FDC, symBinAddr: 0x100009614, symSize: 0x78 }
  - { offsetInCU: 0x12375, offset: 0x12375, size: 0x8, addend: 0x0, symName: __ZNSt3__122__hash_node_destructorINS_9allocatorINS_11__hash_nodeINS_12basic_stringIcNS_11char_traitsIcEENS1_IcEEEEPvEEEEEclB7v160006EPS9_, symObjAddr: 0x6054, symBinAddr: 0x10000968C, symSize: 0x88 }
  - { offsetInCU: 0x123AA, offset: 0x123AA, size: 0x8, addend: 0x0, symName: __ZNSt3__115__hash_iteratorIPNS_11__hash_nodeINS_12basic_stringIcNS_11char_traitsIcEENS_9allocatorIcEEEEPvEEEC2B7v160006EPNS_16__hash_node_baseISA_EEPKv, symObjAddr: 0x60DC, symBinAddr: 0x100009714, symSize: 0x24 }
  - { offsetInCU: 0x123F2, offset: 0x123F2, size: 0x8, addend: 0x0, symName: __ZNSt3__14pairINS_15__hash_iteratorIPNS_11__hash_nodeINS_12basic_stringIcNS_11char_traitsIcEENS_9allocatorIcEEEEPvEEEEbEC2B7v160006ISC_RbLS9_0EEEOT_OT0_, symObjAddr: 0x6100, symBinAddr: 0x100009738, symSize: 0x38 }
  - { offsetInCU: 0x12450, offset: 0x12450, size: 0x8, addend: 0x0, symName: __ZNSt3__14pairINS_21__hash_const_iteratorIPNS_11__hash_nodeINS_12basic_stringIcNS_11char_traitsIcEENS_9allocatorIcEEEEPvEEEEbEC2B7v160006INS_15__hash_iteratorISB_EEbLS9_0EEEONS0_IT_T0_EE, symObjAddr: 0x6138, symBinAddr: 0x100009770, symSize: 0x44 }
  - { offsetInCU: 0x124A1, offset: 0x124A1, size: 0x8, addend: 0x0, symName: __ZNSt3__121__hash_const_iteratorIPNS_11__hash_nodeINS_12basic_stringIcNS_11char_traitsIcEENS_9allocatorIcEEEEPvEEEC1B7v160006ERKNS_15__hash_iteratorISA_EE, symObjAddr: 0x617C, symBinAddr: 0x1000097B4, symSize: 0x34 }
  - { offsetInCU: 0x124DA, offset: 0x124DA, size: 0x8, addend: 0x0, symName: __ZNSt3__121__hash_const_iteratorIPNS_11__hash_nodeINS_12basic_stringIcNS_11char_traitsIcEENS_9allocatorIcEEEEPvEEEC2B7v160006ERKNS_15__hash_iteratorISA_EE, symObjAddr: 0x61B0, symBinAddr: 0x1000097E8, symSize: 0x24 }
  - { offsetInCU: 0x12513, offset: 0x12513, size: 0x8, addend: 0x0, symName: __ZNSt3__112__hash_tableINS_12basic_stringIcNS_11char_traitsIcEENS_9allocatorIcEEEENS_4hashIS6_EENS_8equal_toIS6_EENS4_IS6_EEE5beginEv, symObjAddr: 0x61D4, symBinAddr: 0x10000980C, symSize: 0x40 }
  - { offsetInCU: 0x1253B, offset: 0x1253B, size: 0x8, addend: 0x0, symName: __ZNSt3__112__hash_tableINS_12basic_stringIcNS_11char_traitsIcEENS_9allocatorIcEEEENS_4hashIS6_EENS_8equal_toIS6_EENS4_IS6_EEE3endEv, symObjAddr: 0x6214, symBinAddr: 0x10000984C, symSize: 0x30 }
  - { offsetInCU: 0x12563, offset: 0x12563, size: 0x8, addend: 0x0, symName: __ZNSt3__16vectorIcNS_9allocatorIcEEEC2B7v160006Ev, symObjAddr: 0x6274, symBinAddr: 0x1000098AC, symSize: 0x58 }
  - { offsetInCU: 0x1258D, offset: 0x1258D, size: 0x8, addend: 0x0, symName: __ZNSt3__117__compressed_pairIPcNS_9allocatorIcEEEC1B7v160006IDnNS_18__default_init_tagEEEOT_OT0_, symObjAddr: 0x62CC, symBinAddr: 0x100009904, symSize: 0x3C }
  - { offsetInCU: 0x125E5, offset: 0x125E5, size: 0x8, addend: 0x0, symName: __ZNSt3__117__compressed_pairIPcNS_9allocatorIcEEEC2B7v160006IDnNS_18__default_init_tagEEEOT_OT0_, symObjAddr: 0x6318, symBinAddr: 0x100009950, symSize: 0x40 }
  - { offsetInCU: 0x1263D, offset: 0x1263D, size: 0x8, addend: 0x0, symName: __ZNSt3__122__compressed_pair_elemIPcLi0ELb0EEC2B7v160006IDnvEEOT_, symObjAddr: 0x6358, symBinAddr: 0x100009990, symSize: 0x1C }
  - { offsetInCU: 0x1267F, offset: 0x1267F, size: 0x8, addend: 0x0, symName: __ZNSt3__16vectorIcNS_9allocatorIcEEED2B7v160006Ev, symObjAddr: 0x6374, symBinAddr: 0x1000099AC, symSize: 0x44 }
  - { offsetInCU: 0x126A9, offset: 0x126A9, size: 0x8, addend: 0x0, symName: __ZNSt3__16vectorIcNS_9allocatorIcEEE16__destroy_vectorC1ERS3_, symObjAddr: 0x63B8, symBinAddr: 0x1000099F0, symSize: 0x34 }
  - { offsetInCU: 0x126E2, offset: 0x126E2, size: 0x8, addend: 0x0, symName: __ZNSt3__16vectorIcNS_9allocatorIcEEE16__destroy_vectorclB7v160006Ev, symObjAddr: 0x63EC, symBinAddr: 0x100009A24, symSize: 0x9C }
  - { offsetInCU: 0x12708, offset: 0x12708, size: 0x8, addend: 0x0, symName: __ZNSt3__16vectorIcNS_9allocatorIcEEE16__destroy_vectorC2ERS3_, symObjAddr: 0x6488, symBinAddr: 0x100009AC0, symSize: 0x20 }
  - { offsetInCU: 0x12741, offset: 0x12741, size: 0x8, addend: 0x0, symName: __ZNKSt3__16vectorIcNS_9allocatorIcEEE17__annotate_deleteB7v160006Ev, symObjAddr: 0x64A8, symBinAddr: 0x100009AE0, symSize: 0xB8 }
  - { offsetInCU: 0x12767, offset: 0x12767, size: 0x8, addend: 0x0, symName: __ZNSt3__16vectorIcNS_9allocatorIcEEE7__clearB7v160006Ev, symObjAddr: 0x6570, symBinAddr: 0x100009BA8, symSize: 0x28 }
  - { offsetInCU: 0x1278D, offset: 0x1278D, size: 0x8, addend: 0x0, symName: __ZNSt3__116allocator_traitsINS_9allocatorIcEEE10deallocateB7v160006ERS2_Pcm, symObjAddr: 0x6598, symBinAddr: 0x100009BD0, symSize: 0x34 }
  - { offsetInCU: 0x127CF, offset: 0x127CF, size: 0x8, addend: 0x0, symName: __ZNSt3__16vectorIcNS_9allocatorIcEEE7__allocB7v160006Ev, symObjAddr: 0x65CC, symBinAddr: 0x100009C04, symSize: 0x28 }
  - { offsetInCU: 0x127F5, offset: 0x127F5, size: 0x8, addend: 0x0, symName: __ZNKSt3__16vectorIcNS_9allocatorIcEEE8capacityB7v160006Ev, symObjAddr: 0x65F4, symBinAddr: 0x100009C2C, symSize: 0x38 }
  - { offsetInCU: 0x1281B, offset: 0x1281B, size: 0x8, addend: 0x0, symName: __ZNKSt3__16vectorIcNS_9allocatorIcEEE31__annotate_contiguous_containerB7v160006EPKvS5_S5_S5_, symObjAddr: 0x662C, symBinAddr: 0x100009C64, symSize: 0x20 }
  - { offsetInCU: 0x1286D, offset: 0x1286D, size: 0x8, addend: 0x0, symName: __ZNKSt3__16vectorIcNS_9allocatorIcEEE4dataB7v160006Ev, symObjAddr: 0x664C, symBinAddr: 0x100009C84, symSize: 0x28 }
  - { offsetInCU: 0x12893, offset: 0x12893, size: 0x8, addend: 0x0, symName: __ZNSt3__16vectorIcNS_9allocatorIcEEE22__base_destruct_at_endB7v160006EPc, symObjAddr: 0x6688, symBinAddr: 0x100009CC0, symSize: 0x8C }
  - { offsetInCU: 0x128D7, offset: 0x128D7, size: 0x8, addend: 0x0, symName: __ZNSt3__116allocator_traitsINS_9allocatorIcEEE7destroyB7v160006IcvEEvRS2_PT_, symObjAddr: 0x6714, symBinAddr: 0x100009D4C, symSize: 0x2C }
  - { offsetInCU: 0x12914, offset: 0x12914, size: 0x8, addend: 0x0, symName: __ZNSt3__19allocatorIcE7destroyB7v160006EPc, symObjAddr: 0x6740, symBinAddr: 0x100009D78, symSize: 0x14 }
  - { offsetInCU: 0x12948, offset: 0x12948, size: 0x8, addend: 0x0, symName: __ZNSt3__19allocatorIcE10deallocateB7v160006EPcm, symObjAddr: 0x6754, symBinAddr: 0x100009D8C, symSize: 0x40 }
  - { offsetInCU: 0x1298A, offset: 0x1298A, size: 0x8, addend: 0x0, symName: __ZNSt3__117__compressed_pairIPcNS_9allocatorIcEEE6secondB7v160006Ev, symObjAddr: 0x6794, symBinAddr: 0x100009DCC, symSize: 0x24 }
  - { offsetInCU: 0x129B0, offset: 0x129B0, size: 0x8, addend: 0x0, symName: __ZNSt3__122__compressed_pair_elemINS_9allocatorIcEELi1ELb1EE5__getB7v160006Ev, symObjAddr: 0x67B8, symBinAddr: 0x100009DF0, symSize: 0x14 }
  - { offsetInCU: 0x129D6, offset: 0x129D6, size: 0x8, addend: 0x0, symName: __ZNKSt3__16vectorIcNS_9allocatorIcEEE9__end_capB7v160006Ev, symObjAddr: 0x67CC, symBinAddr: 0x100009E04, symSize: 0x28 }
  - { offsetInCU: 0x129FC, offset: 0x129FC, size: 0x8, addend: 0x0, symName: __ZNKSt3__117__compressed_pairIPcNS_9allocatorIcEEE5firstB7v160006Ev, symObjAddr: 0x67F4, symBinAddr: 0x100009E2C, symSize: 0x24 }
  - { offsetInCU: 0x12A22, offset: 0x12A22, size: 0x8, addend: 0x0, symName: __ZNKSt3__122__compressed_pair_elemIPcLi0ELb0EE5__getB7v160006Ev, symObjAddr: 0x6818, symBinAddr: 0x100009E50, symSize: 0x14 }
  - { offsetInCU: 0x12A48, offset: 0x12A48, size: 0x8, addend: 0x0, symName: __ZNSt3__16vectorIcNS_9allocatorIcEEE9__end_capB7v160006Ev, symObjAddr: 0x682C, symBinAddr: 0x100009E64, symSize: 0x28 }
  - { offsetInCU: 0x12A73, offset: 0x12A73, size: 0x8, addend: 0x0, symName: __ZNSt3__16vectorIcNS_9allocatorIcEEE22__construct_one_at_endB7v160006IJcEEEvDpOT_, symObjAddr: 0x6854, symBinAddr: 0x100009E8C, symSize: 0x90 }
  - { offsetInCU: 0x12AC2, offset: 0x12AC2, size: 0x8, addend: 0x0, symName: __ZNSt3__16vectorIcNS_9allocatorIcEEE21__push_back_slow_pathIcEEvOT_, symObjAddr: 0x68E4, symBinAddr: 0x100009F1C, symSize: 0xD8 }
  - { offsetInCU: 0x12B20, offset: 0x12B20, size: 0x8, addend: 0x0, symName: __ZNSt3__117__compressed_pairIPcNS_9allocatorIcEEE5firstB7v160006Ev, symObjAddr: 0x69BC, symBinAddr: 0x100009FF4, symSize: 0x24 }
  - { offsetInCU: 0x12B46, offset: 0x12B46, size: 0x8, addend: 0x0, symName: __ZNSt3__122__compressed_pair_elemIPcLi0ELb0EE5__getB7v160006Ev, symObjAddr: 0x69E0, symBinAddr: 0x10000A018, symSize: 0x14 }
  - { offsetInCU: 0x12B85, offset: 0x12B85, size: 0x8, addend: 0x0, symName: __ZNSt3__16vectorIcNS_9allocatorIcEEE21_ConstructTransactionC1B7v160006ERS3_m, symObjAddr: 0x69F4, symBinAddr: 0x10000A02C, symSize: 0x3C }
  - { offsetInCU: 0x12BCD, offset: 0x12BCD, size: 0x8, addend: 0x0, symName: __ZNSt3__116allocator_traitsINS_9allocatorIcEEE9constructB7v160006IcJcEvEEvRS2_PT_DpOT0_, symObjAddr: 0x6A30, symBinAddr: 0x10000A068, symSize: 0x34 }
  - { offsetInCU: 0x12C24, offset: 0x12C24, size: 0x8, addend: 0x0, symName: __ZNSt3__16vectorIcNS_9allocatorIcEEE21_ConstructTransactionD1B7v160006Ev, symObjAddr: 0x6A64, symBinAddr: 0x10000A09C, symSize: 0x2C }
  - { offsetInCU: 0x12C4E, offset: 0x12C4E, size: 0x8, addend: 0x0, symName: __ZNSt3__16vectorIcNS_9allocatorIcEEE21_ConstructTransactionC2B7v160006ERS3_m, symObjAddr: 0x6A90, symBinAddr: 0x10000A0C8, symSize: 0x44 }
  - { offsetInCU: 0x12C96, offset: 0x12C96, size: 0x8, addend: 0x0, symName: __ZNSt3__19allocatorIcE9constructB7v160006IcJcEEEvPT_DpOT0_, symObjAddr: 0x6AD4, symBinAddr: 0x10000A10C, symSize: 0x28 }
  - { offsetInCU: 0x12CEC, offset: 0x12CEC, size: 0x8, addend: 0x0, symName: __ZNSt3__16vectorIcNS_9allocatorIcEEE21_ConstructTransactionD2B7v160006Ev, symObjAddr: 0x6AFC, symBinAddr: 0x10000A134, symSize: 0x20 }
  - { offsetInCU: 0x12D16, offset: 0x12D16, size: 0x8, addend: 0x0, symName: __ZNKSt3__16vectorIcNS_9allocatorIcEEE11__recommendB7v160006Em, symObjAddr: 0x6B1C, symBinAddr: 0x10000A154, symSize: 0xB4 }
  - { offsetInCU: 0x12D6B, offset: 0x12D6B, size: 0x8, addend: 0x0, symName: __ZNSt3__114__split_bufferIcRNS_9allocatorIcEEEC1EmmS3_, symObjAddr: 0x6BD0, symBinAddr: 0x10000A208, symSize: 0x44 }
  - { offsetInCU: 0x12DC1, offset: 0x12DC1, size: 0x8, addend: 0x0, symName: __ZNSt3__114__split_bufferIcRNS_9allocatorIcEEED1Ev, symObjAddr: 0x6D2C, symBinAddr: 0x10000A364, symSize: 0x2C }
  - { offsetInCU: 0x12DED, offset: 0x12DED, size: 0x8, addend: 0x0, symName: __ZNKSt3__16vectorIcNS_9allocatorIcEEE8max_sizeEv, symObjAddr: 0x6D58, symBinAddr: 0x10000A390, symSize: 0x60 }
  - { offsetInCU: 0x12E15, offset: 0x12E15, size: 0x8, addend: 0x0, symName: __ZNKSt3__16vectorIcNS_9allocatorIcEEE20__throw_length_errorB7v160006Ev, symObjAddr: 0x6DB8, symBinAddr: 0x10000A3F0, symSize: 0x1C }
  - { offsetInCU: 0x12E45, offset: 0x12E45, size: 0x8, addend: 0x0, symName: __ZNSt3__116allocator_traitsINS_9allocatorIcEEE8max_sizeB7v160006IS2_vEEmRKS2_, symObjAddr: 0x6E00, symBinAddr: 0x10000A438, symSize: 0x24 }
  - { offsetInCU: 0x12E73, offset: 0x12E73, size: 0x8, addend: 0x0, symName: __ZNKSt3__16vectorIcNS_9allocatorIcEEE7__allocB7v160006Ev, symObjAddr: 0x6E24, symBinAddr: 0x10000A45C, symSize: 0x28 }
  - { offsetInCU: 0x12E99, offset: 0x12E99, size: 0x8, addend: 0x0, symName: __ZNKSt3__19allocatorIcE8max_sizeB7v160006Ev, symObjAddr: 0x6EA0, symBinAddr: 0x10000A4D8, symSize: 0x14 }
  - { offsetInCU: 0x12EBF, offset: 0x12EBF, size: 0x8, addend: 0x0, symName: __ZNKSt3__117__compressed_pairIPcNS_9allocatorIcEEE6secondB7v160006Ev, symObjAddr: 0x6EB4, symBinAddr: 0x10000A4EC, symSize: 0x24 }
  - { offsetInCU: 0x12EE5, offset: 0x12EE5, size: 0x8, addend: 0x0, symName: __ZNKSt3__122__compressed_pair_elemINS_9allocatorIcEELi1ELb1EE5__getB7v160006Ev, symObjAddr: 0x6ED8, symBinAddr: 0x10000A510, symSize: 0x14 }
  - { offsetInCU: 0x12F0B, offset: 0x12F0B, size: 0x8, addend: 0x0, symName: __ZNSt12length_errorC1B7v160006EPKc, symObjAddr: 0x6F50, symBinAddr: 0x10000A588, symSize: 0x34 }
  - { offsetInCU: 0x12F43, offset: 0x12F43, size: 0x8, addend: 0x0, symName: __ZNSt12length_errorC2B7v160006EPKc, symObjAddr: 0x6F84, symBinAddr: 0x10000A5BC, symSize: 0x4C }
  - { offsetInCU: 0x12F7B, offset: 0x12F7B, size: 0x8, addend: 0x0, symName: __ZNSt3__114__split_bufferIcRNS_9allocatorIcEEEC2EmmS3_, symObjAddr: 0x6FD0, symBinAddr: 0x10000A608, symSize: 0xD4 }
  - { offsetInCU: 0x12FEE, offset: 0x12FEE, size: 0x8, addend: 0x0, symName: __ZNSt3__117__compressed_pairIPcRNS_9allocatorIcEEEC1B7v160006IDnS4_EEOT_OT0_, symObjAddr: 0x70A4, symBinAddr: 0x10000A6DC, symSize: 0x3C }
  - { offsetInCU: 0x13046, offset: 0x13046, size: 0x8, addend: 0x0, symName: __ZNSt3__114__split_bufferIcRNS_9allocatorIcEEE7__allocB7v160006Ev, symObjAddr: 0x7120, symBinAddr: 0x10000A758, symSize: 0x28 }
  - { offsetInCU: 0x1306C, offset: 0x1306C, size: 0x8, addend: 0x0, symName: __ZNSt3__114__split_bufferIcRNS_9allocatorIcEEE9__end_capB7v160006Ev, symObjAddr: 0x7148, symBinAddr: 0x10000A780, symSize: 0x28 }
  - { offsetInCU: 0x13092, offset: 0x13092, size: 0x8, addend: 0x0, symName: __ZNSt3__117__compressed_pairIPcRNS_9allocatorIcEEEC2B7v160006IDnS4_EEOT_OT0_, symObjAddr: 0x7170, symBinAddr: 0x10000A7A8, symSize: 0x48 }
  - { offsetInCU: 0x130EA, offset: 0x130EA, size: 0x8, addend: 0x0, symName: __ZNSt3__122__compressed_pair_elemIRNS_9allocatorIcEELi1ELb0EEC2B7v160006IS3_vEEOT_, symObjAddr: 0x71B8, symBinAddr: 0x10000A7F0, symSize: 0x20 }
  - { offsetInCU: 0x1312C, offset: 0x1312C, size: 0x8, addend: 0x0, symName: __ZNSt3__19allocatorIcE8allocateB7v160006Em, symObjAddr: 0x71D8, symBinAddr: 0x10000A810, symSize: 0x58 }
  - { offsetInCU: 0x13160, offset: 0x13160, size: 0x8, addend: 0x0, symName: __ZNSt3__117__compressed_pairIPcRNS_9allocatorIcEEE6secondB7v160006Ev, symObjAddr: 0x7230, symBinAddr: 0x10000A868, symSize: 0x28 }
  - { offsetInCU: 0x13186, offset: 0x13186, size: 0x8, addend: 0x0, symName: __ZNSt3__122__compressed_pair_elemIRNS_9allocatorIcEELi1ELb0EE5__getB7v160006Ev, symObjAddr: 0x7258, symBinAddr: 0x10000A890, symSize: 0x18 }
  - { offsetInCU: 0x131AC, offset: 0x131AC, size: 0x8, addend: 0x0, symName: __ZNSt3__117__compressed_pairIPcRNS_9allocatorIcEEE5firstB7v160006Ev, symObjAddr: 0x7270, symBinAddr: 0x10000A8A8, symSize: 0x24 }
  - { offsetInCU: 0x131D2, offset: 0x131D2, size: 0x8, addend: 0x0, symName: __ZNSt3__116reverse_iteratorIPcEC1B7v160006ES1_, symObjAddr: 0x730C, symBinAddr: 0x10000A944, symSize: 0x34 }
  - { offsetInCU: 0x1320A, offset: 0x1320A, size: 0x8, addend: 0x0, symName: __ZNKSt3__116reverse_iteratorIPcE4baseB7v160006Ev, symObjAddr: 0x7340, symBinAddr: 0x10000A978, symSize: 0x18 }
  - { offsetInCU: 0x13230, offset: 0x13230, size: 0x8, addend: 0x0, symName: __ZNKSt3__16vectorIcNS_9allocatorIcEEE14__annotate_newB7v160006Em, symObjAddr: 0x7394, symBinAddr: 0x10000A9CC, symSize: 0xAC }
  - { offsetInCU: 0x13288, offset: 0x13288, size: 0x8, addend: 0x0, symName: __ZNKSt3__111__move_loopINS_17_ClassicAlgPolicyEEclB7v160006INS_16reverse_iteratorIPcEES6_S6_EENS_4pairIT_T1_EES8_T0_S9_, symObjAddr: 0x7740, symBinAddr: 0x10000AD78, symSize: 0xA0 }
  - { offsetInCU: 0x132F3, offset: 0x132F3, size: 0x8, addend: 0x0, symName: __ZNSt3__18_IterOpsINS_17_ClassicAlgPolicyEE11__iter_moveB7v160006IRNS_16reverse_iteratorIPcEEEENS_9enable_ifIXsr12is_referenceIDTdeclsr3stdE7declvalIRT_EEEEE5valueEDTclsr3stdE4movedeclsr3stdE7declvalISA_EEEEE4typeEOS9_, symObjAddr: 0x7974, symBinAddr: 0x10000AFAC, symSize: 0x28 }
  - { offsetInCU: 0x1331F, offset: 0x1331F, size: 0x8, addend: 0x0, symName: __ZNKSt3__116reverse_iteratorIPcEdeB7v160006Ev, symObjAddr: 0x799C, symBinAddr: 0x10000AFD4, symSize: 0x28 }
  - { offsetInCU: 0x13353, offset: 0x13353, size: 0x8, addend: 0x0, symName: __ZNSt3__116reverse_iteratorIPcEppB7v160006Ev, symObjAddr: 0x79C4, symBinAddr: 0x10000AFFC, symSize: 0x20 }
  - { offsetInCU: 0x13379, offset: 0x13379, size: 0x8, addend: 0x0, symName: __ZNSt3__18_IterOpsINS_17_ClassicAlgPolicyEE25__validate_iter_referenceB7v160006IRNS_16reverse_iteratorIPcEEEEvv, symObjAddr: 0x79E4, symBinAddr: 0x10000B01C, symSize: 0x4 }
  - { offsetInCU: 0x13397, offset: 0x13397, size: 0x8, addend: 0x0, symName: __ZNSt3__118__unwrap_iter_implINS_16reverse_iteratorIPcEELb0EE8__unwrapB7v160006ES3_, symObjAddr: 0x79E8, symBinAddr: 0x10000B020, symSize: 0x24 }
  - { offsetInCU: 0x133BF, offset: 0x133BF, size: 0x8, addend: 0x0, symName: __ZNSt3__14pairINS_16reverse_iteratorIPcEES3_EC1B7v160006IS3_S3_LPv0EEEOT_OT0_, symObjAddr: 0x7A0C, symBinAddr: 0x10000B044, symSize: 0x3C }
  - { offsetInCU: 0x1341D, offset: 0x1341D, size: 0x8, addend: 0x0, symName: __ZNSt3__14pairINS_16reverse_iteratorIPcEES3_EC2B7v160006IS3_S3_LPv0EEEOT_OT0_, symObjAddr: 0x7A48, symBinAddr: 0x10000B080, symSize: 0x34 }
  - { offsetInCU: 0x1347B, offset: 0x1347B, size: 0x8, addend: 0x0, symName: __ZNSt3__118__unwrap_iter_implINS_16reverse_iteratorIPcEELb0EE8__rewrapB7v160006ES3_S3_, symObjAddr: 0x7A7C, symBinAddr: 0x10000B0B4, symSize: 0x2C }
  - { offsetInCU: 0x134A9, offset: 0x134A9, size: 0x8, addend: 0x0, symName: __ZNSt3__116reverse_iteratorIPcEC2B7v160006ES1_, symObjAddr: 0x7AA8, symBinAddr: 0x10000B0E0, symSize: 0x28 }
  - { offsetInCU: 0x134E1, offset: 0x134E1, size: 0x8, addend: 0x0, symName: __ZNSt3__114__split_bufferIcRNS_9allocatorIcEEED2Ev, symObjAddr: 0x7AD0, symBinAddr: 0x10000B108, symSize: 0x8C }
  - { offsetInCU: 0x1350D, offset: 0x1350D, size: 0x8, addend: 0x0, symName: __ZNSt3__114__split_bufferIcRNS_9allocatorIcEEE5clearB7v160006Ev, symObjAddr: 0x7B5C, symBinAddr: 0x10000B194, symSize: 0x28 }
  - { offsetInCU: 0x13533, offset: 0x13533, size: 0x8, addend: 0x0, symName: __ZNKSt3__114__split_bufferIcRNS_9allocatorIcEEE8capacityB7v160006Ev, symObjAddr: 0x7B84, symBinAddr: 0x10000B1BC, symSize: 0x38 }
  - { offsetInCU: 0x13559, offset: 0x13559, size: 0x8, addend: 0x0, symName: __ZNSt3__114__split_bufferIcRNS_9allocatorIcEEE17__destruct_at_endB7v160006EPc, symObjAddr: 0x7BBC, symBinAddr: 0x10000B1F4, symSize: 0x2C }
  - { offsetInCU: 0x1358D, offset: 0x1358D, size: 0x8, addend: 0x0, symName: __ZNSt3__114__split_bufferIcRNS_9allocatorIcEEE17__destruct_at_endB7v160006EPcNS_17integral_constantIbLb0EEE, symObjAddr: 0x7BE8, symBinAddr: 0x10000B220, symSize: 0x80 }
  - { offsetInCU: 0x135CE, offset: 0x135CE, size: 0x8, addend: 0x0, symName: __ZNKSt3__114__split_bufferIcRNS_9allocatorIcEEE9__end_capB7v160006Ev, symObjAddr: 0x7C68, symBinAddr: 0x10000B2A0, symSize: 0x28 }
  - { offsetInCU: 0x135F4, offset: 0x135F4, size: 0x8, addend: 0x0, symName: __ZNKSt3__117__compressed_pairIPcRNS_9allocatorIcEEE5firstB7v160006Ev, symObjAddr: 0x7C90, symBinAddr: 0x10000B2C8, symSize: 0x24 }
...
