---
triple:          'arm64-apple-darwin'
binary-path:     example_main
relocations:
  - { offset: 0x3B, size: 0x8, addend: 0x0, symName: _.str, symObjAddr: 0xF200, symBinAddr: 0x1000130C0, symSize: 0x0 }
  - { offset: 0x6B, size: 0x8, addend: 0x0, symName: _.str.1, symObjAddr: 0xF220, symBinAddr: 0x1000130E0, symSize: 0x0 }
  - { offset: 0x88, size: 0x8, addend: 0x0, symName: _.str.2, symObjAddr: 0xF240, symBinAddr: 0x100013100, symSize: 0x0 }
  - { offset: 0xA6, size: 0x8, addend: 0x0, symName: _.str.12, symObjAddr: 0xF260, symBinAddr: 0x100013120, symSize: 0x0 }
  - { offset: 0x487C, size: 0x8, addend: 0x0, symName: __ZNSt3__124__put_character_sequenceB8ne190107IcNS_11char_traitsIcEEEERNS_13basic_ostreamIT_T0_EES7_PKS4_m, symObjAddr: 0xAB58, symBinAddr: 0x10000E6E0, symSize: 0x0 }
  - { offset: 0x5B53, size: 0x8, addend: 0x0, symName: __ZNSt3__1lsB8ne190107IcNS_11char_traitsIcEENS_9allocatorIcEEEERNS_13basic_ostreamIT_T0_EES9_RKNS_12basic_stringIS6_S7_T1_EE, symObjAddr: 0xD1C, symBinAddr: 0x1000048A4, symSize: 0x0 }
  - { offset: 0x5BAB, size: 0x8, addend: 0x0, symName: __ZNSt3__14endlB8ne190107IcNS_11char_traitsIcEEEERNS_13basic_ostreamIT_T0_EES7_, symObjAddr: 0xF4C, symBinAddr: 0x100004AD4, symSize: 0x0 }
  - { offset: 0x5BEB, size: 0x8, addend: 0x0, symName: __ZNSt3__1lsB8ne190107INS_11char_traitsIcEEEERNS_13basic_ostreamIcT_EES6_PKc, symObjAddr: 0x1310, symBinAddr: 0x100004E98, symSize: 0x0 }
  - { offset: 0x5C31, size: 0x8, addend: 0x0, symName: __ZNSt3__118__constexpr_strlenB8ne190107IcEEmPKT_, symObjAddr: 0x19C8, symBinAddr: 0x100005550, symSize: 0x0 }
  - { offset: 0x5C66, size: 0x8, addend: 0x0, symName: __ZNSt3__122__make_exception_guardB8ne190107INS_6vectorIiNS_9allocatorIiEEE16__destroy_vectorEEENS_28__exception_guard_exceptionsIT_EES7_, symObjAddr: 0x1F2C, symBinAddr: 0x100005AB4, symSize: 0x0 }
  - { offset: 0x5C9B, size: 0x8, addend: 0x0, symName: __ZNSt3__119__allocate_at_leastB8ne190107INS_9allocatorIiEEEENS_19__allocation_resultINS_16allocator_traitsIT_E7pointerEEERS5_m, symObjAddr: 0x34C8, symBinAddr: 0x100007050, symSize: 0x0 }
  - { offset: 0x5CDE, size: 0x8, addend: 0x0, symName: __ZNSt3__13minB8ne190107ImEERKT_S3_S3_, symObjAddr: 0x389C, symBinAddr: 0x100007424, symSize: 0x0 }
  - { offset: 0x5F0B, size: 0x8, addend: 0x0, symName: __ZNSt3__13minB8ne190107ImNS_6__lessIvvEEEERKT_S5_S5_T0_, symObjAddr: 0x3AC4, symBinAddr: 0x10000764C, symSize: 0x0 }
  - { offset: 0x619C, size: 0x8, addend: 0x0, symName: __ZNSt3__120__throw_length_errorB8ne190107EPKc, symObjAddr: 0x3F70, symBinAddr: 0x100007AF8, symSize: 0x0 }
  - { offset: 0x61C4, size: 0x8, addend: 0x0, symName: __ZNSt3__117__libcpp_allocateB8ne190107Emm, symObjAddr: 0x42BC, symBinAddr: 0x100007E44, symSize: 0x0 }
  - { offset: 0x621E, size: 0x8, addend: 0x0, symName: __ZNSt3__124__is_overaligned_for_newB8ne190107Em, symObjAddr: 0x4324, symBinAddr: 0x100007EAC, symSize: 0x0 }
  - { offset: 0x624A, size: 0x8, addend: 0x0, symName: __ZNSt3__121__libcpp_operator_newB8ne190107IJmSt11align_val_tEEEPvDpT_, symObjAddr: 0x4348, symBinAddr: 0x100007ED0, symSize: 0x0 }
  - { offset: 0x6297, size: 0x8, addend: 0x0, symName: __ZNSt3__121__libcpp_operator_newB8ne190107IJmEEEPvDpT_, symObjAddr: 0x43B8, symBinAddr: 0x100007F40, symSize: 0x0 }
  - { offset: 0x62D0, size: 0x8, addend: 0x0, symName: __ZNSt3__131__annotate_contiguous_containerB8ne190107INS_9allocatorIiEEEEvPKvS4_S4_S4_, symObjAddr: 0x498C, symBinAddr: 0x100008514, symSize: 0x0 }
  - { offset: 0x632B, size: 0x8, addend: 0x0, symName: __ZNSt3__112__to_addressB8ne190107IiEEPT_S2_, symObjAddr: 0x49E0, symBinAddr: 0x100008568, symSize: 0x0 }
  - { offset: 0x6360, size: 0x8, addend: 0x0, symName: __ZNSt3__130__uninitialized_allocator_copyB8ne190107INS_9allocatorIiEEPKiS4_PiEET2_RT_T0_T1_S6_, symObjAddr: 0x4CC0, symBinAddr: 0x100008848, symSize: 0x0 }
  - { offset: 0x6406, size: 0x8, addend: 0x0, symName: __ZNSt3__114__unwrap_rangeB8ne190107IPKiS2_EEDaT_T0_, symObjAddr: 0x558C, symBinAddr: 0x100009114, symSize: 0x0 }
  - { offset: 0x6452, size: 0x8, addend: 0x0, symName: __ZNSt3__135__uninitialized_allocator_copy_implB8ne190107INS_9allocatorIiEEKiiiTnNS_9enable_ifIXaaaaaasr31is_trivially_copy_constructibleIT1_EE5valuesr28is_trivially_copy_assignableIS5_EE5valuesr7is_sameIu14__remove_constIT0_Eu14__remove_constIT2_EEE5valuesr38__allocator_has_trivial_copy_constructIT_S5_EE5valueEiE4typeELi0EEEPS8_RSA_PS6_SF_SD_, symObjAddr: 0x55D0, symBinAddr: 0x100009158, symSize: 0x0 }
  - { offset: 0x64D3, size: 0x8, addend: 0x0, symName: __ZNSt3__113__unwrap_iterB8ne190107IPiNS_18__unwrap_iter_implIS1_Lb1EEETnNS_9enable_ifIXsr21is_copy_constructibleIT_EE5valueEiE4typeELi0EEEDTclsrT0_8__unwrapclsr3stdE7declvalIS5_EEEES5_, symObjAddr: 0x5610, symBinAddr: 0x100009198, symSize: 0x0 }
  - { offset: 0x6517, size: 0x8, addend: 0x0, symName: __ZNSt3__113__rewrap_iterB8ne190107IPiS1_NS_18__unwrap_iter_implIS1_Lb1EEEEET_S4_T0_, symObjAddr: 0x563C, symBinAddr: 0x1000091C4, symSize: 0x0 }
  - { offset: 0x6688, size: 0x8, addend: 0x0, symName: __ZNSt3__113__unwrap_iterB8ne190107IPKiNS_18__unwrap_iter_implIS2_Lb1EEETnNS_9enable_ifIXsr21is_copy_constructibleIT_EE5valueEiE4typeELi0EEEDTclsrT0_8__unwrapclsr3stdE7declvalIS6_EEEES6_, symObjAddr: 0x58DC, symBinAddr: 0x100009464, symSize: 0x0 }
  - { offset: 0x671F, size: 0x8, addend: 0x0, symName: __ZNSt3__112__to_addressB8ne190107IKiEEPT_S3_, symObjAddr: 0x59A8, symBinAddr: 0x100009530, symSize: 0x0 }
  - { offset: 0x6754, size: 0x8, addend: 0x0, symName: __ZNSt3__14copyB8ne190107IPKiPiEET0_T_S5_S4_, symObjAddr: 0x5B9C, symBinAddr: 0x100009724, symSize: 0x0 }
  - { offset: 0x67B1, size: 0x8, addend: 0x0, symName: __ZNSt3__16__copyB8ne190107INS_17_ClassicAlgPolicyEPKiS3_PiEENS_4pairIT0_T2_EES6_T1_S7_, symObjAddr: 0x5DBC, symBinAddr: 0x100009944, symSize: 0x0 }
  - { offset: 0x681D, size: 0x8, addend: 0x0, symName: __ZNSt3__124__copy_move_unwrap_itersB8ne190107INS_11__copy_implINS_17_ClassicAlgPolicyEEEPKiS5_PiTnNS_9enable_ifIXsr12__can_rewrapIT0_T2_EE5valueEiE4typeELi0EEENS_4pairIS8_S9_EES8_T1_S9_, symObjAddr: 0x5E08, symBinAddr: 0x100009990, symSize: 0x0 }
  - { offset: 0x6A4D, size: 0x8, addend: 0x0, symName: __ZNSt3__19make_pairB8ne190107IPKiPiEENS_4pairINS_18__unwrap_ref_decayIT_E4typeENS5_IT0_E4typeEEEOS6_OS9_, symObjAddr: 0x6234, symBinAddr: 0x100009DBC, symSize: 0x0 }
  - { offset: 0x6A9E, size: 0x8, addend: 0x0, symName: __ZNSt3__114__rewrap_rangeB8ne190107IPKiS2_S2_EET0_S3_T1_, symObjAddr: 0x646C, symBinAddr: 0x100009FF4, symSize: 0x0 }
  - { offset: 0x6AF3, size: 0x8, addend: 0x0, symName: __ZNSt3__119__copy_trivial_implB8ne190107IKiiEENS_4pairIPT_PT0_EES4_S4_S6_, symObjAddr: 0x64A0, symBinAddr: 0x10000A028, symSize: 0x0 }
  - { offset: 0x6B62, size: 0x8, addend: 0x0, symName: __ZNSt3__119__constexpr_memmoveB8ne190107IiKiTnNS_9enable_ifIXsr23__is_always_bitcastableIT0_T_EE5valueEiE4typeELi0EEEPS4_S7_PS3_NS_15__element_countE, symObjAddr: 0x6798, symBinAddr: 0x10000A320, symSize: 0x0 }
  - { offset: 0x6BD0, size: 0x8, addend: 0x0, symName: __ZNSt3__19make_pairB8ne190107IRPKiPiEENS_4pairINS_18__unwrap_ref_decayIT_E4typeENS6_IT0_E4typeEEEOS7_OSA_, symObjAddr: 0x685C, symBinAddr: 0x10000A3E4, symSize: 0x0 }
  - { offset: 0x6C21, size: 0x8, addend: 0x0, symName: __ZNSt3__113__rewrap_iterB8ne190107IPKiS2_NS_18__unwrap_iter_implIS2_Lb1EEEEET_S5_T0_, symObjAddr: 0x6F60, symBinAddr: 0x10000AAE8, symSize: 0x0 }
  - { offset: 0x6CC9, size: 0x8, addend: 0x0, symName: __ZNSt3__112__destroy_atB8ne190107IiTnNS_9enable_ifIXntsr8is_arrayIT_EE5valueEiE4typeELi0EEEvPS2_, symObjAddr: 0x80C8, symBinAddr: 0x10000BC50, symSize: 0x0 }
  - { offset: 0x6D00, size: 0x8, addend: 0x0, symName: __ZNSt3__119__libcpp_deallocateB8ne190107EPvmm, symObjAddr: 0x8150, symBinAddr: 0x10000BCD8, symSize: 0x0 }
  - { offset: 0x6D65, size: 0x8, addend: 0x0, symName: __ZNSt3__127__do_deallocate_handle_sizeB8ne190107IJSt11align_val_tEEEvPvmDpT_, symObjAddr: 0x81B8, symBinAddr: 0x10000BD40, symSize: 0x0 }
  - { offset: 0x6DB8, size: 0x8, addend: 0x0, symName: __ZNSt3__127__do_deallocate_handle_sizeB8ne190107IJEEEvPvmDpT_, symObjAddr: 0x81F4, symBinAddr: 0x10000BD7C, symSize: 0x0 }
  - { offset: 0x6DF6, size: 0x8, addend: 0x0, symName: __ZNSt3__124__libcpp_operator_deleteB8ne190107IJPvmSt11align_val_tEEEvDpT_, symObjAddr: 0x8228, symBinAddr: 0x10000BDB0, symSize: 0x0 }
  - { offset: 0x6E53, size: 0x8, addend: 0x0, symName: __ZNSt3__124__libcpp_operator_deleteB8ne190107IJPvmEEEvDpT_, symObjAddr: 0x8264, symBinAddr: 0x10000BDEC, symSize: 0x0 }
  - { offset: 0x6E9C, size: 0x8, addend: 0x0, symName: __ZNSt3__130__uninitialized_allocator_copyB8ne190107INS_9allocatorIiEEPiS3_S3_EET2_RT_T0_T1_S4_, symObjAddr: 0x9004, symBinAddr: 0x10000CB8C, symSize: 0x0 }
  - { offset: 0x6F42, size: 0x8, addend: 0x0, symName: __ZNSt3__114__unwrap_rangeB8ne190107IPiS1_EEDaT_T0_, symObjAddr: 0x9270, symBinAddr: 0x10000CDF8, symSize: 0x0 }
  - { offset: 0x6F8E, size: 0x8, addend: 0x0, symName: __ZNSt3__135__uninitialized_allocator_copy_implB8ne190107INS_9allocatorIiEEiiiTnNS_9enable_ifIXaaaaaasr31is_trivially_copy_constructibleIT1_EE5valuesr28is_trivially_copy_assignableIS4_EE5valuesr7is_sameIu14__remove_constIT0_Eu14__remove_constIT2_EEE5valuesr38__allocator_has_trivial_copy_constructIT_S4_EE5valueEiE4typeELi0EEEPS7_RS9_PS5_SE_SC_, symObjAddr: 0x92B4, symBinAddr: 0x10000CE3C, symSize: 0x0 }
  - { offset: 0x715A, size: 0x8, addend: 0x0, symName: __ZNSt3__14copyB8ne190107IPiS1_EET0_T_S3_S2_, symObjAddr: 0x9790, symBinAddr: 0x10000D318, symSize: 0x0 }
  - { offset: 0x71B7, size: 0x8, addend: 0x0, symName: __ZNSt3__16__copyB8ne190107INS_17_ClassicAlgPolicyEPiS2_S2_EENS_4pairIT0_T2_EES4_T1_S5_, symObjAddr: 0x99B0, symBinAddr: 0x10000D538, symSize: 0x0 }
  - { offset: 0x7223, size: 0x8, addend: 0x0, symName: __ZNSt3__124__copy_move_unwrap_itersB8ne190107INS_11__copy_implINS_17_ClassicAlgPolicyEEEPiS4_S4_TnNS_9enable_ifIXsr12__can_rewrapIT0_T2_EE5valueEiE4typeELi0EEENS_4pairIS6_S7_EES6_T1_S7_, symObjAddr: 0x99FC, symBinAddr: 0x10000D584, symSize: 0x0 }
  - { offset: 0x72BC, size: 0x8, addend: 0x0, symName: __ZNSt3__19make_pairB8ne190107IPiS1_EENS_4pairINS_18__unwrap_ref_decayIT_E4typeENS3_IT0_E4typeEEEOS4_OS7_, symObjAddr: 0x9E28, symBinAddr: 0x10000D9B0, symSize: 0x0 }
  - { offset: 0x730D, size: 0x8, addend: 0x0, symName: __ZNSt3__114__rewrap_rangeB8ne190107IPiS1_S1_EET0_S2_T1_, symObjAddr: 0xA060, symBinAddr: 0x10000DBE8, symSize: 0x0 }
  - { offset: 0x7362, size: 0x8, addend: 0x0, symName: __ZNSt3__119__copy_trivial_implB8ne190107IiiEENS_4pairIPT_PT0_EES3_S3_S5_, symObjAddr: 0xA094, symBinAddr: 0x10000DC1C, symSize: 0x0 }
  - { offset: 0x73D1, size: 0x8, addend: 0x0, symName: __ZNSt3__119__constexpr_memmoveB8ne190107IiiTnNS_9enable_ifIXsr23__is_always_bitcastableIT0_T_EE5valueEiE4typeELi0EEEPS3_S6_PS2_NS_15__element_countE, symObjAddr: 0xA38C, symBinAddr: 0x10000DF14, symSize: 0x0 }
  - { offset: 0x743F, size: 0x8, addend: 0x0, symName: __ZNSt3__19make_pairB8ne190107IRPiS1_EENS_4pairINS_18__unwrap_ref_decayIT_E4typeENS4_IT0_E4typeEEEOS5_OS8_, symObjAddr: 0xA450, symBinAddr: 0x10000DFD8, symSize: 0x0 }
  - { offset: 0x7490, size: 0x8, addend: 0x0, symName: __ZNSt3__116__pad_and_outputB8ne190107IcNS_11char_traitsIcEEEENS_19ostreambuf_iteratorIT_T0_EES6_PKS4_S8_S8_RNS_8ios_baseES4_, symObjAddr: 0xBAF4, symBinAddr: 0x10000F67C, symSize: 0x0 }
  - { offset: 0x756A, size: 0x8, addend: 0x0, symName: __ZNSt3__112__to_addressB8ne190107IcEEPT_S2_, symObjAddr: 0xD048, symBinAddr: 0x100010BD0, symSize: 0x0 }
  - { offset: 0x759F, size: 0x8, addend: 0x0, symName: __ZNSt3__19use_facetB8ne190107INS_5ctypeIcEEEERKT_RKNS_6localeE, symObjAddr: 0xE3F4, symBinAddr: 0x100011F7C, symSize: 0x0 }
  - { offset: 0x7A6C, size: 0x8, addend: 0x0, symName: __ZNSt3__112__to_addressB8ne190107IKcEEPT_S3_, symObjAddr: 0xE840, symBinAddr: 0x1000123C8, symSize: 0x0 }
  - { offset: 0x8959, size: 0x8, addend: 0x0, symName: __ZSt28__throw_bad_array_new_lengthB8ne190107v, symObjAddr: 0x4248, symBinAddr: 0x100007DD0, symSize: 0x0 }
  - { offset: 0x8EFD, size: 0x8, addend: 0x0, symName: __Z7messageRKNSt3__112basic_stringIcNS_11char_traitsIcEENS_9allocatorIcEEEE, symObjAddr: 0x8, symBinAddr: 0x100003B90, symSize: 0x0 }
  - { offset: 0x8F29, size: 0x8, addend: 0x0, symName: __Z7averageNSt3__16vectorIiNS_9allocatorIiEEEE, symObjAddr: 0x80, symBinAddr: 0x100003C08, symSize: 0x0 }
  - { offset: 0x8F80, size: 0x8, addend: 0x0, symName: __ZNKSt3__16vectorIiNS_9allocatorIiEEE4sizeB8ne190107Ev, symObjAddr: 0x2B4, symBinAddr: 0x100003E3C, symSize: 0xE0 }
  - { offset: 0x8FA4, size: 0x8, addend: 0x0, symName: __ZNSt3__16vectorIiNS_9allocatorIiEEEixB8ne190107Em, symObjAddr: 0x394, symBinAddr: 0x100003F1C, symSize: 0x180 }
  - { offset: 0x8FD7, size: 0x8, addend: 0x0, symName: _main, symObjAddr: 0x51C, symBinAddr: 0x1000040A4, symSize: 0x0 }
  - { offset: 0x901C, size: 0x8, addend: 0x0, symName: __ZNSt3__112basic_stringIcNS_11char_traitsIcEENS_9allocatorIcEEEC1B8ne190107ILi0EEEPKc, symObjAddr: 0xCA8, symBinAddr: 0x100004830, symSize: 0x6C }
  - { offset: 0x9059, size: 0x8, addend: 0x0, symName: __ZNSt3__113basic_ostreamIcNS_11char_traitsIcEEElsB8ne190107EPFRS3_S4_E, symObjAddr: 0xE20, symBinAddr: 0x1000049A8, symSize: 0x124 }
  - { offset: 0x908C, size: 0x8, addend: 0x0, symName: __ZNSt3__16vectorIiNS_9allocatorIiEEEC1B8ne190107ESt16initializer_listIiE, symObjAddr: 0x1294, symBinAddr: 0x100004E1C, symSize: 0x74 }
  - { offset: 0x90C6, size: 0x8, addend: 0x0, symName: __ZNSt3__16vectorIiNS_9allocatorIiEEEC1ERKS3_, symObjAddr: 0x13C0, symBinAddr: 0x100004F48, symSize: 0x6C }
  - { offset: 0x9100, size: 0x8, addend: 0x0, symName: __ZNSt3__16vectorIiNS_9allocatorIiEEED1B8ne190107Ev, symObjAddr: 0x142C, symBinAddr: 0x100004FB4, symSize: 0x64 }
  - { offset: 0x9129, size: 0x8, addend: 0x0, symName: __ZNSt3__112basic_stringIcNS_11char_traitsIcEENS_9allocatorIcEEEC2B8ne190107ILi0EEEPKc, symObjAddr: 0x1490, symBinAddr: 0x100005018, symSize: 0x244 }
  - { offset: 0x916E, size: 0x8, addend: 0x0, symName: __ZNSt3__117__compressed_pairINS_12basic_stringIcNS_11char_traitsIcEENS_9allocatorIcEEE5__repES5_EC1B8ne190107INS_18__default_init_tagESA_EEOT_OT0_, symObjAddr: 0x16D4, symBinAddr: 0x10000525C, symSize: 0x74 }
  - { offset: 0x91C5, size: 0x8, addend: 0x0, symName: __ZNSt3__111char_traitsIcE6lengthB8ne190107EPKc, symObjAddr: 0x1750, symBinAddr: 0x1000052D8, symSize: 0x0 }
  - { offset: 0x91E8, size: 0x8, addend: 0x0, symName: __ZNSt3__117__compressed_pairINS_12basic_stringIcNS_11char_traitsIcEENS_9allocatorIcEEE5__repES5_EC2B8ne190107INS_18__default_init_tagESA_EEOT_OT0_, symObjAddr: 0x1774, symBinAddr: 0x1000052FC, symSize: 0xC8 }
  - { offset: 0x923F, size: 0x8, addend: 0x0, symName: __ZNSt3__122__compressed_pair_elemINS_12basic_stringIcNS_11char_traitsIcEENS_9allocatorIcEEE5__repELi0ELb0EEC2B8ne190107ENS_18__default_init_tagE, symObjAddr: 0x183C, symBinAddr: 0x1000053C4, symSize: 0x5C }
  - { offset: 0x9273, size: 0x8, addend: 0x0, symName: __ZNSt3__122__compressed_pair_elemINS_9allocatorIcEELi1ELb1EEC2B8ne190107ENS_18__default_init_tagE, symObjAddr: 0x1898, symBinAddr: 0x100005420, symSize: 0x70 }
  - { offset: 0x92A7, size: 0x8, addend: 0x0, symName: __ZNSt3__19allocatorIcEC2B8ne190107Ev, symObjAddr: 0x1908, symBinAddr: 0x100005490, symSize: 0x70 }
  - { offset: 0x92D0, size: 0x8, addend: 0x0, symName: __ZNSt3__116__non_trivial_ifILb1ENS_9allocatorIcEEEC2B8ne190107Ev, symObjAddr: 0x1978, symBinAddr: 0x100005500, symSize: 0x48 }
  - { offset: 0x92F9, size: 0x8, addend: 0x0, symName: __ZNSt3__16vectorIiNS_9allocatorIiEEEC2B8ne190107ESt16initializer_listIiE, symObjAddr: 0x19EC, symBinAddr: 0x100005574, symSize: 0x4C4 }
  - { offset: 0x9356, size: 0x8, addend: 0x0, symName: __ZNSt3__117__compressed_pairIPiNS_9allocatorIiEEEC1B8ne190107IDnNS_18__default_init_tagEEEOT_OT0_, symObjAddr: 0x1EB0, symBinAddr: 0x100005A38, symSize: 0x74 }
  - { offset: 0x93AD, size: 0x8, addend: 0x0, symName: __ZNSt3__16vectorIiNS_9allocatorIiEEE16__destroy_vectorC1B8ne190107ERS3_, symObjAddr: 0x1FA0, symBinAddr: 0x100005B28, symSize: 0x6C }
  - { offset: 0x93E4, size: 0x8, addend: 0x0, symName: __ZNKSt16initializer_listIiE4sizeB8ne190107Ev, symObjAddr: 0x200C, symBinAddr: 0x100005B94, symSize: 0xA0 }
  - { offset: 0x9408, size: 0x8, addend: 0x0, symName: __ZNSt3__16vectorIiNS_9allocatorIiEEE11__vallocateB8ne190107Em, symObjAddr: 0x20AC, symBinAddr: 0x100005C34, symSize: 0x484 }
  - { offset: 0x9450, size: 0x8, addend: 0x0, symName: __ZNSt3__16vectorIiNS_9allocatorIiEEE18__construct_at_endIPKiS6_EEvT_T0_m, symObjAddr: 0x2530, symBinAddr: 0x1000060B8, symSize: 0x3D4 }
  - { offset: 0x94CA, size: 0x8, addend: 0x0, symName: __ZNKSt16initializer_listIiE5beginB8ne190107Ev, symObjAddr: 0x2904, symBinAddr: 0x10000648C, symSize: 0x9C }
  - { offset: 0x94EE, size: 0x8, addend: 0x0, symName: __ZNKSt16initializer_listIiE3endB8ne190107Ev, symObjAddr: 0x29A0, symBinAddr: 0x100006528, symSize: 0x17C }
  - { offset: 0x9512, size: 0x8, addend: 0x0, symName: __ZNSt3__128__exception_guard_exceptionsINS_6vectorIiNS_9allocatorIiEEE16__destroy_vectorEE10__completeB8ne190107Ev, symObjAddr: 0x2B1C, symBinAddr: 0x1000066A4, symSize: 0xC4 }
  - { offset: 0x9537, size: 0x8, addend: 0x0, symName: __ZNSt3__128__exception_guard_exceptionsINS_6vectorIiNS_9allocatorIiEEE16__destroy_vectorEED1B8ne190107Ev, symObjAddr: 0x2BE0, symBinAddr: 0x100006768, symSize: 0x64 }
  - { offset: 0x9560, size: 0x8, addend: 0x0, symName: __ZNSt3__117__compressed_pairIPiNS_9allocatorIiEEEC2B8ne190107IDnNS_18__default_init_tagEEEOT_OT0_, symObjAddr: 0x2C44, symBinAddr: 0x1000067CC, symSize: 0x104 }
  - { offset: 0x95B7, size: 0x8, addend: 0x0, symName: __ZNSt3__122__compressed_pair_elemIPiLi0ELb0EEC2B8ne190107IDnTnNS_9enable_ifIXntsr7is_sameIS2_u7__decayIT_EEE5valueEiE4typeELi0EEEOS5_, symObjAddr: 0x2D48, symBinAddr: 0x1000068D0, symSize: 0xAC }
  - { offset: 0x95FD, size: 0x8, addend: 0x0, symName: __ZNSt3__122__compressed_pair_elemINS_9allocatorIiEELi1ELb1EEC2B8ne190107ENS_18__default_init_tagE, symObjAddr: 0x2DF4, symBinAddr: 0x10000697C, symSize: 0x70 }
  - { offset: 0x9631, size: 0x8, addend: 0x0, symName: __ZNSt3__19allocatorIiEC2B8ne190107Ev, symObjAddr: 0x2E64, symBinAddr: 0x1000069EC, symSize: 0x70 }
  - { offset: 0x965A, size: 0x8, addend: 0x0, symName: __ZNSt3__116__non_trivial_ifILb1ENS_9allocatorIiEEEC2B8ne190107Ev, symObjAddr: 0x2ED4, symBinAddr: 0x100006A5C, symSize: 0x48 }
  - { offset: 0x9683, size: 0x8, addend: 0x0, symName: __ZNSt3__128__exception_guard_exceptionsINS_6vectorIiNS_9allocatorIiEEE16__destroy_vectorEEC1B8ne190107ES5_, symObjAddr: 0x2F1C, symBinAddr: 0x100006AA4, symSize: 0x6C }
  - { offset: 0x96BA, size: 0x8, addend: 0x0, symName: __ZNSt3__128__exception_guard_exceptionsINS_6vectorIiNS_9allocatorIiEEE16__destroy_vectorEEC2B8ne190107ES5_, symObjAddr: 0x2F88, symBinAddr: 0x100006B10, symSize: 0xE0 }
  - { offset: 0x96F1, size: 0x8, addend: 0x0, symName: __ZNSt3__16vectorIiNS_9allocatorIiEEE16__destroy_vectorC2B8ne190107ERS3_, symObjAddr: 0x3068, symBinAddr: 0x100006BF0, symSize: 0xE8 }
  - { offset: 0x9729, size: 0x8, addend: 0x0, symName: __ZNKSt3__16vectorIiNS_9allocatorIiEEE8max_sizeEv, symObjAddr: 0x3150, symBinAddr: 0x100006CD8, symSize: 0x2FC }
  - { offset: 0x9750, size: 0x8, addend: 0x0, symName: __ZNKSt3__16vectorIiNS_9allocatorIiEEE20__throw_length_errorB8ne190107Ev, symObjAddr: 0x344C, symBinAddr: 0x100006FD4, symSize: 0x74 }
  - { offset: 0x9774, size: 0x8, addend: 0x0, symName: __ZNSt3__16vectorIiNS_9allocatorIiEEE7__allocB8ne190107Ev, symObjAddr: 0x3508, symBinAddr: 0x100007090, symSize: 0xC4 }
  - { offset: 0x9798, size: 0x8, addend: 0x0, symName: __ZNSt3__16vectorIiNS_9allocatorIiEEE9__end_capB8ne190107Ev, symObjAddr: 0x35CC, symBinAddr: 0x100007154, symSize: 0xD8 }
  - { offset: 0x97BC, size: 0x8, addend: 0x0, symName: __ZNKSt3__16vectorIiNS_9allocatorIiEEE14__annotate_newB8ne190107Em, symObjAddr: 0x36A4, symBinAddr: 0x10000722C, symSize: 0x1F0 }
  - { offset: 0x97FA, size: 0x8, addend: 0x0, symName: __ZNSt3__116allocator_traitsINS_9allocatorIiEEE8max_sizeB8ne190107IS2_vTnNS_9enable_ifIXntsr14__has_max_sizeIKT_EE5valueEiE4typeELi0EEEmRKS2_, symObjAddr: 0x3978, symBinAddr: 0x100007500, symSize: 0x0 }
  - { offset: 0x9829, size: 0x8, addend: 0x0, symName: __ZNKSt3__16vectorIiNS_9allocatorIiEEE7__allocB8ne190107Ev, symObjAddr: 0x39CC, symBinAddr: 0x100007554, symSize: 0xC4 }
  - { offset: 0x984E, size: 0x8, addend: 0x0, symName: __ZNSt3__114numeric_limitsIlE3maxB8ne190107Ev, symObjAddr: 0x3A98, symBinAddr: 0x100007620, symSize: 0x0 }
  - { offset: 0x9875, size: 0x8, addend: 0x0, symName: __ZNKSt3__16__lessIvvEclB8ne190107ImmEEbRKT_RKT0_, symObjAddr: 0x3D34, symBinAddr: 0x1000078BC, symSize: 0xD0 }
  - { offset: 0x98C8, size: 0x8, addend: 0x0, symName: __ZNSt3__114numeric_limitsImE3maxB8ne190107Ev, symObjAddr: 0x3E0C, symBinAddr: 0x100007994, symSize: 0x0 }
  - { offset: 0x98DC, size: 0x8, addend: 0x0, symName: __ZNSt3__123__libcpp_numeric_limitsImLb1EE3maxB8ne190107Ev, symObjAddr: 0x3E28, symBinAddr: 0x1000079B0, symSize: 0x0 }
  - { offset: 0x98EF, size: 0x8, addend: 0x0, symName: __ZNKSt3__117__compressed_pairIPiNS_9allocatorIiEEE6secondB8ne190107Ev, symObjAddr: 0x3E30, symBinAddr: 0x1000079B8, symSize: 0xC4 }
  - { offset: 0x9913, size: 0x8, addend: 0x0, symName: __ZNKSt3__122__compressed_pair_elemINS_9allocatorIiEELi1ELb1EE5__getB8ne190107Ev, symObjAddr: 0x3EF4, symBinAddr: 0x100007A7C, symSize: 0x64 }
  - { offset: 0x9938, size: 0x8, addend: 0x0, symName: __ZNSt3__123__libcpp_numeric_limitsIlLb1EE3maxB8ne190107Ev, symObjAddr: 0x3F60, symBinAddr: 0x100007AE8, symSize: 0x0 }
  - { offset: 0x994C, size: 0x8, addend: 0x0, symName: __ZNSt12length_errorC1B8ne190107EPKc, symObjAddr: 0x4014, symBinAddr: 0x100007B9C, symSize: 0x6C }
  - { offset: 0x9983, size: 0x8, addend: 0x0, symName: __ZNSt12length_errorC2B8ne190107EPKc, symObjAddr: 0x4080, symBinAddr: 0x100007C08, symSize: 0x108 }
  - { offset: 0x99B9, size: 0x8, addend: 0x0, symName: __ZNSt3__19allocatorIiE8allocateB8ne190107Em, symObjAddr: 0x4188, symBinAddr: 0x100007D10, symSize: 0xB8 }
  - { offset: 0x99EB, size: 0x8, addend: 0x0, symName: __ZNSt3__117__compressed_pairIPiNS_9allocatorIiEEE6secondB8ne190107Ev, symObjAddr: 0x43DC, symBinAddr: 0x100007F64, symSize: 0xC4 }
  - { offset: 0x9A0F, size: 0x8, addend: 0x0, symName: __ZNSt3__122__compressed_pair_elemINS_9allocatorIiEELi1ELb1EE5__getB8ne190107Ev, symObjAddr: 0x44A0, symBinAddr: 0x100008028, symSize: 0x64 }
  - { offset: 0x9A33, size: 0x8, addend: 0x0, symName: __ZNSt3__117__compressed_pairIPiNS_9allocatorIiEEE5firstB8ne190107Ev, symObjAddr: 0x4504, symBinAddr: 0x10000808C, symSize: 0xEC }
  - { offset: 0x9A57, size: 0x8, addend: 0x0, symName: __ZNSt3__122__compressed_pair_elemIPiLi0ELb0EE5__getB8ne190107Ev, symObjAddr: 0x45F0, symBinAddr: 0x100008178, symSize: 0x8C }
  - { offset: 0x9A7B, size: 0x8, addend: 0x0, symName: __ZNKSt3__16vectorIiNS_9allocatorIiEEE31__annotate_contiguous_containerB8ne190107EPKvS5_, symObjAddr: 0x467C, symBinAddr: 0x100008204, symSize: 0x144 }
  - { offset: 0x9ABD, size: 0x8, addend: 0x0, symName: __ZNKSt3__16vectorIiNS_9allocatorIiEEE4dataB8ne190107Ev, symObjAddr: 0x47C0, symBinAddr: 0x100008348, symSize: 0xA0 }
  - { offset: 0x9AE1, size: 0x8, addend: 0x0, symName: __ZNKSt3__16vectorIiNS_9allocatorIiEEE8capacityB8ne190107Ev, symObjAddr: 0x4860, symBinAddr: 0x1000083E8, symSize: 0x124 }
  - { offset: 0x9B05, size: 0x8, addend: 0x0, symName: __ZNKSt3__16vectorIiNS_9allocatorIiEEE9__end_capB8ne190107Ev, symObjAddr: 0x49F4, symBinAddr: 0x10000857C, symSize: 0xD8 }
  - { offset: 0x9B29, size: 0x8, addend: 0x0, symName: __ZNKSt3__117__compressed_pairIPiNS_9allocatorIiEEE5firstB8ne190107Ev, symObjAddr: 0x4ACC, symBinAddr: 0x100008654, symSize: 0xEC }
  - { offset: 0x9B4D, size: 0x8, addend: 0x0, symName: __ZNKSt3__122__compressed_pair_elemIPiLi0ELb0EE5__getB8ne190107Ev, symObjAddr: 0x4BB8, symBinAddr: 0x100008740, symSize: 0x8C }
  - { offset: 0x9B8B, size: 0x8, addend: 0x0, symName: __ZNSt3__16vectorIiNS_9allocatorIiEEE21_ConstructTransactionC1B8ne190107ERS3_m, symObjAddr: 0x4C44, symBinAddr: 0x1000087CC, symSize: 0x74 }
  - { offset: 0x9BD2, size: 0x8, addend: 0x0, symName: __ZNSt3__16vectorIiNS_9allocatorIiEEE21_ConstructTransactionD1B8ne190107Ev, symObjAddr: 0x4F24, symBinAddr: 0x100008AAC, symSize: 0x64 }
  - { offset: 0x9BFB, size: 0x8, addend: 0x0, symName: __ZNSt3__16vectorIiNS_9allocatorIiEEE21_ConstructTransactionC2B8ne190107ERS3_m, symObjAddr: 0x4F88, symBinAddr: 0x100008B10, symSize: 0x34C }
  - { offset: 0x9C41, size: 0x8, addend: 0x0, symName: __ZNKSt3__16vectorIiNS_9allocatorIiEEE19__annotate_increaseB8ne190107Em, symObjAddr: 0x52D4, symBinAddr: 0x100008E5C, symSize: 0x2B0 }
  - { offset: 0x9C8E, size: 0x8, addend: 0x0, symName: __ZNSt3__119__unwrap_range_implIPKiS2_E8__unwrapB8ne190107ES2_S2_, symObjAddr: 0x568C, symBinAddr: 0x100009214, symSize: 0x0 }
  - { offset: 0x9CC6, size: 0x8, addend: 0x0, symName: __ZNSt3__14pairIPKiS2_EC1B8ne190107IS2_S2_TnNS_9enable_ifIXclsr10_CheckArgsE23__is_pair_constructibleIT_T0_EEEiE4typeELi0EEEOS6_OS7_, symObjAddr: 0x5900, symBinAddr: 0x100009488, symSize: 0x74 }
  - { offset: 0x9D23, size: 0x8, addend: 0x0, symName: __ZNSt3__118__unwrap_iter_implIPKiLb1EE8__unwrapB8ne190107ES2_, symObjAddr: 0x597C, symBinAddr: 0x100009504, symSize: 0x0 }
  - { offset: 0x9D46, size: 0x8, addend: 0x0, symName: __ZNSt3__14pairIPKiS2_EC2B8ne190107IS2_S2_TnNS_9enable_ifIXclsr10_CheckArgsE23__is_pair_constructibleIT_T0_EEEiE4typeELi0EEEOS6_OS7_, symObjAddr: 0x59BC, symBinAddr: 0x100009544, symSize: 0x1D8 }
  - { offset: 0x9DC5, size: 0x8, addend: 0x0, symName: __ZNKSt3__111__copy_implINS_17_ClassicAlgPolicyEEclB8ne190107IKiiTnNS_9enable_ifIXsr38__can_lower_copy_assignment_to_memmoveIT_T0_EE5valueEiE4typeELi0EEENS_4pairIPS6_PS7_EESB_SB_SC_, symObjAddr: 0x61C0, symBinAddr: 0x100009D48, symSize: 0x6C }
  - { offset: 0x9E36, size: 0x8, addend: 0x0, symName: __ZNSt3__14pairIPKiPiEC1B8ne190107IRS2_S3_TnNS_9enable_ifIXclsr10_CheckArgsE23__is_pair_constructibleIT_T0_EEEiE4typeELi0EEEOS8_OS9_, symObjAddr: 0x6A8C, symBinAddr: 0x10000A614, symSize: 0x74 }
  - { offset: 0x9E93, size: 0x8, addend: 0x0, symName: __ZNSt3__14pairIPKiPiEC2B8ne190107IRS2_S3_TnNS_9enable_ifIXclsr10_CheckArgsE23__is_pair_constructibleIT_T0_EEEiE4typeELi0EEEOS8_OS9_, symObjAddr: 0x6B00, symBinAddr: 0x10000A688, symSize: 0x1D8 }
  - { offset: 0x9EF0, size: 0x8, addend: 0x0, symName: __ZNSt3__14pairIPKiPiEC1B8ne190107IS2_S3_TnNS_9enable_ifIXclsr10_CheckArgsE23__is_pair_constructibleIT_T0_EEEiE4typeELi0EEEOS7_OS8_, symObjAddr: 0x6CD8, symBinAddr: 0x10000A860, symSize: 0x74 }
  - { offset: 0x9F4D, size: 0x8, addend: 0x0, symName: __ZNSt3__14pairIPKiPiEC2B8ne190107IS2_S3_TnNS_9enable_ifIXclsr10_CheckArgsE23__is_pair_constructibleIT_T0_EEEiE4typeELi0EEEOS7_OS8_, symObjAddr: 0x6D4C, symBinAddr: 0x10000A8D4, symSize: 0x1D8 }
  - { offset: 0x9FAA, size: 0x8, addend: 0x0, symName: __ZNSt3__119__unwrap_range_implIPKiS2_E8__rewrapB8ne190107ES2_S2_, symObjAddr: 0x6F2C, symBinAddr: 0x10000AAB4, symSize: 0x0 }
  - { offset: 0x9FDB, size: 0x8, addend: 0x0, symName: __ZNSt3__118__unwrap_iter_implIPKiLb1EE8__rewrapB8ne190107ES2_S2_, symObjAddr: 0x6FB0, symBinAddr: 0x10000AB38, symSize: 0x0 }
  - { offset: 0xA00C, size: 0x8, addend: 0x0, symName: __ZNSt3__118__unwrap_iter_implIPiLb1EE8__unwrapB8ne190107ES1_, symObjAddr: 0x70BC, symBinAddr: 0x10000AC44, symSize: 0x0 }
  - { offset: 0xA02F, size: 0x8, addend: 0x0, symName: __ZNSt3__118__unwrap_iter_implIPiLb1EE8__rewrapB8ne190107ES1_S1_, symObjAddr: 0x70E8, symBinAddr: 0x10000AC70, symSize: 0x0 }
  - { offset: 0xA060, size: 0x8, addend: 0x0, symName: __ZNSt3__16vectorIiNS_9allocatorIiEEE21_ConstructTransactionD2B8ne190107Ev, symObjAddr: 0x71EC, symBinAddr: 0x10000AD74, symSize: 0x31C }
  - { offset: 0xA088, size: 0x8, addend: 0x0, symName: __ZNKSt3__16vectorIiNS_9allocatorIiEEE17__annotate_shrinkB8ne190107Em, symObjAddr: 0x7508, symBinAddr: 0x10000B090, symSize: 0x1F0 }
  - { offset: 0xA0BC, size: 0x8, addend: 0x0, symName: __ZNSt3__128__exception_guard_exceptionsINS_6vectorIiNS_9allocatorIiEEE16__destroy_vectorEED2B8ne190107Ev, symObjAddr: 0x76F8, symBinAddr: 0x10000B280, symSize: 0x158 }
  - { offset: 0xA0E4, size: 0x8, addend: 0x0, symName: __ZNSt3__16vectorIiNS_9allocatorIiEEE16__destroy_vectorclB8ne190107Ev, symObjAddr: 0x7850, symBinAddr: 0x10000B3D8, symSize: 0x39C }
  - { offset: 0xA108, size: 0x8, addend: 0x0, symName: __ZNSt3__16vectorIiNS_9allocatorIiEEE7__clearB8ne190107Ev, symObjAddr: 0x7BEC, symBinAddr: 0x10000B774, symSize: 0xA0 }
  - { offset: 0xA12C, size: 0x8, addend: 0x0, symName: __ZNKSt3__16vectorIiNS_9allocatorIiEEE17__annotate_deleteB8ne190107Ev, symObjAddr: 0x7C8C, symBinAddr: 0x10000B814, symSize: 0x200 }
  - { offset: 0xA151, size: 0x8, addend: 0x0, symName: __ZNSt3__116allocator_traitsINS_9allocatorIiEEE10deallocateB8ne190107ERS2_Pim, symObjAddr: 0x7E94, symBinAddr: 0x10000BA1C, symSize: 0x0 }
  - { offset: 0xA192, size: 0x8, addend: 0x0, symName: __ZNSt3__16vectorIiNS_9allocatorIiEEE22__base_destruct_at_endB8ne190107EPi, symObjAddr: 0x7EC8, symBinAddr: 0x10000BA50, symSize: 0x1C8 }
  - { offset: 0xA1D5, size: 0x8, addend: 0x0, symName: __ZNSt3__116allocator_traitsINS_9allocatorIiEEE7destroyB8ne190107IivTnNS_9enable_ifIXntsr13__has_destroyIS2_PT_EE5valueEiE4typeELi0EEEvRS2_S7_, symObjAddr: 0x8098, symBinAddr: 0x10000BC20, symSize: 0x0 }
  - { offset: 0xA213, size: 0x8, addend: 0x0, symName: __ZNSt3__19allocatorIiE10deallocateB8ne190107EPim, symObjAddr: 0x80D8, symBinAddr: 0x10000BC60, symSize: 0x70 }
  - { offset: 0xA254, size: 0x8, addend: 0x0, symName: __ZNSt3__16vectorIiNS_9allocatorIiEEEC2ERKS3_, symObjAddr: 0x8290, symBinAddr: 0x10000BE18, symSize: 0x424 }
  - { offset: 0xA290, size: 0x8, addend: 0x0, symName: __ZNSt3__116allocator_traitsINS_9allocatorIiEEE37select_on_container_copy_constructionB8ne190107IS2_vTnNS_9enable_ifIXntsr43__has_select_on_container_copy_constructionIKT_EE5valueEiE4typeELi0EEES2_RKS2_, symObjAddr: 0x86BC, symBinAddr: 0x10000C244, symSize: 0x0 }
  - { offset: 0xA2C9, size: 0x8, addend: 0x0, symName: __ZNSt3__117__compressed_pairIPiNS_9allocatorIiEEEC1B8ne190107IDnS3_EEOT_OT0_, symObjAddr: 0x86CC, symBinAddr: 0x10000C254, symSize: 0x74 }
  - { offset: 0xA31F, size: 0x8, addend: 0x0, symName: __ZNSt3__16vectorIiNS_9allocatorIiEEE16__init_with_sizeB8ne190107IPiS5_EEvT_T0_m, symObjAddr: 0x8740, symBinAddr: 0x10000C2C8, symSize: 0x370 }
  - { offset: 0xA39A, size: 0x8, addend: 0x0, symName: __ZNSt3__117__compressed_pairIPiNS_9allocatorIiEEEC2B8ne190107IDnS3_EEOT_OT0_, symObjAddr: 0x8AB0, symBinAddr: 0x10000C638, symSize: 0x12C }
  - { offset: 0xA3F1, size: 0x8, addend: 0x0, symName: __ZNSt3__122__compressed_pair_elemINS_9allocatorIiEELi1ELb1EEC2B8ne190107IS2_TnNS_9enable_ifIXntsr7is_sameIS3_u7__decayIT_EEE5valueEiE4typeELi0EEEOS6_, symObjAddr: 0x8BDC, symBinAddr: 0x10000C764, symSize: 0x4C }
  - { offset: 0xA436, size: 0x8, addend: 0x0, symName: __ZNSt3__16vectorIiNS_9allocatorIiEEE18__construct_at_endIPiS5_EEvT_T0_m, symObjAddr: 0x8C28, symBinAddr: 0x10000C7B0, symSize: 0x3D4 }
  - { offset: 0xA4CA, size: 0x8, addend: 0x0, symName: __ZNSt3__119__unwrap_range_implIPiS1_E8__unwrapB8ne190107ES1_S1_, symObjAddr: 0x92F4, symBinAddr: 0x10000CE7C, symSize: 0x0 }
  - { offset: 0xA4FD, size: 0x8, addend: 0x0, symName: __ZNSt3__14pairIPiS1_EC1B8ne190107IS1_S1_TnNS_9enable_ifIXclsr10_CheckArgsE23__is_pair_constructibleIT_T0_EEEiE4typeELi0EEEOS5_OS6_, symObjAddr: 0x953C, symBinAddr: 0x10000D0C4, symSize: 0x74 }
  - { offset: 0xA55A, size: 0x8, addend: 0x0, symName: __ZNSt3__14pairIPiS1_EC2B8ne190107IS1_S1_TnNS_9enable_ifIXclsr10_CheckArgsE23__is_pair_constructibleIT_T0_EEEiE4typeELi0EEEOS5_OS6_, symObjAddr: 0x95B0, symBinAddr: 0x10000D138, symSize: 0x1D8 }
  - { offset: 0xA5B6, size: 0x8, addend: 0x0, symName: __ZNKSt3__111__copy_implINS_17_ClassicAlgPolicyEEclB8ne190107IiiTnNS_9enable_ifIXsr38__can_lower_copy_assignment_to_memmoveIT_T0_EE5valueEiE4typeELi0EEENS_4pairIPS5_PS6_EESA_SA_SB_, symObjAddr: 0x9DB4, symBinAddr: 0x10000D93C, symSize: 0x6C }
  - { offset: 0xA61D, size: 0x8, addend: 0x0, symName: __ZNSt3__14pairIPiS1_EC1B8ne190107IRS1_S1_TnNS_9enable_ifIXclsr10_CheckArgsE23__is_pair_constructibleIT_T0_EEEiE4typeELi0EEEOS6_OS7_, symObjAddr: 0xA680, symBinAddr: 0x10000E208, symSize: 0x74 }
  - { offset: 0xA67A, size: 0x8, addend: 0x0, symName: __ZNSt3__14pairIPiS1_EC2B8ne190107IRS1_S1_TnNS_9enable_ifIXclsr10_CheckArgsE23__is_pair_constructibleIT_T0_EEEiE4typeELi0EEEOS6_OS7_, symObjAddr: 0xA6F4, symBinAddr: 0x10000E27C, symSize: 0x1D8 }
  - { offset: 0xA6D7, size: 0x8, addend: 0x0, symName: __ZNSt3__119__unwrap_range_implIPiS1_E8__rewrapB8ne190107ES1_S1_, symObjAddr: 0xA8D4, symBinAddr: 0x10000E45C, symSize: 0x0 }
  - { offset: 0xA708, size: 0x8, addend: 0x0, symName: __ZNSt3__16vectorIiNS_9allocatorIiEEED2B8ne190107Ev, symObjAddr: 0xA900, symBinAddr: 0x10000E488, symSize: 0x250 }
  - { offset: 0xA731, size: 0x8, addend: 0x0, symName: __ZNKSt3__112basic_stringIcNS_11char_traitsIcEENS_9allocatorIcEEE4dataB8ne190107Ev, symObjAddr: 0xB91C, symBinAddr: 0x10000F4A4, symSize: 0x60 }
  - { offset: 0xA755, size: 0x8, addend: 0x0, symName: __ZNKSt3__112basic_stringIcNS_11char_traitsIcEENS_9allocatorIcEEE4sizeB8ne190107Ev, symObjAddr: 0xB97C, symBinAddr: 0x10000F504, symSize: 0x88 }
  - { offset: 0xA797, size: 0x8, addend: 0x0, symName: __ZNKSt3__113basic_ostreamIcNS_11char_traitsIcEEE6sentrycvbB8ne190107Ev, symObjAddr: 0xBA04, symBinAddr: 0x10000F58C, symSize: 0xE8 }
  - { offset: 0xA7BC, size: 0x8, addend: 0x0, symName: __ZNSt3__119ostreambuf_iteratorIcNS_11char_traitsIcEEEC1B8ne190107ERNS_13basic_ostreamIcS2_EE, symObjAddr: 0xC344, symBinAddr: 0x10000FECC, symSize: 0x6C }
  - { offset: 0xA7F3, size: 0x8, addend: 0x0, symName: __ZNKSt3__18ios_base5flagsB8ne190107Ev, symObjAddr: 0xC3B0, symBinAddr: 0x10000FF38, symSize: 0x130 }
  - { offset: 0xA819, size: 0x8, addend: 0x0, symName: __ZNKSt3__19basic_iosIcNS_11char_traitsIcEEE4fillB8ne190107Ev, symObjAddr: 0xC4E0, symBinAddr: 0x100010068, symSize: 0x288 }
  - { offset: 0xA83D, size: 0x8, addend: 0x0, symName: __ZNKSt3__119ostreambuf_iteratorIcNS_11char_traitsIcEEE6failedB8ne190107Ev, symObjAddr: 0xC768, symBinAddr: 0x1000102F0, symSize: 0xA4 }
  - { offset: 0xA861, size: 0x8, addend: 0x0, symName: __ZNSt3__19basic_iosIcNS_11char_traitsIcEEE8setstateB8ne190107Ej, symObjAddr: 0xC80C, symBinAddr: 0x100010394, symSize: 0x100 }
  - { offset: 0xA895, size: 0x8, addend: 0x0, symName: __ZNKSt3__18ios_base5widthB8ne190107Ev, symObjAddr: 0xC90C, symBinAddr: 0x100010494, symSize: 0x10C }
  - { offset: 0xA8BB, size: 0x8, addend: 0x0, symName: __ZNSt3__115basic_streambufIcNS_11char_traitsIcEEE5sputnB8ne190107EPKcl, symObjAddr: 0xCA18, symBinAddr: 0x1000105A0, symSize: 0x164 }
  - { offset: 0xA8FC, size: 0x8, addend: 0x0, symName: __ZNSt3__112basic_stringIcNS_11char_traitsIcEENS_9allocatorIcEEEC1B8ne190107Emc, symObjAddr: 0xCB7C, symBinAddr: 0x100010704, symSize: 0x74 }
  - { offset: 0xA942, size: 0x8, addend: 0x0, symName: __ZNSt3__112basic_stringIcNS_11char_traitsIcEENS_9allocatorIcEEE4dataB8ne190107Ev, symObjAddr: 0xCBF0, symBinAddr: 0x100010778, symSize: 0x60 }
  - { offset: 0xA967, size: 0x8, addend: 0x0, symName: __ZNSt3__18ios_base5widthB8ne190107El, symObjAddr: 0xCC50, symBinAddr: 0x1000107D8, symSize: 0x1B8 }
  - { offset: 0xA9AC, size: 0x8, addend: 0x0, symName: __ZNSt3__112basic_stringIcNS_11char_traitsIcEENS_9allocatorIcEEEC2B8ne190107Emc, symObjAddr: 0xCE08, symBinAddr: 0x100010990, symSize: 0x238 }
  - { offset: 0xA9F5, size: 0x8, addend: 0x0, symName: __ZNSt3__112basic_stringIcNS_11char_traitsIcEENS_9allocatorIcEEE13__get_pointerB8ne190107Ev, symObjAddr: 0xD05C, symBinAddr: 0x100010BE4, symSize: 0x88 }
  - { offset: 0xAA19, size: 0x8, addend: 0x0, symName: __ZNKSt3__112basic_stringIcNS_11char_traitsIcEENS_9allocatorIcEEE9__is_longB8ne190107Ev, symObjAddr: 0xD0E4, symBinAddr: 0x100010C6C, symSize: 0x178 }
  - { offset: 0xAA3D, size: 0x8, addend: 0x0, symName: __ZNSt3__112basic_stringIcNS_11char_traitsIcEENS_9allocatorIcEEE18__get_long_pointerB8ne190107Ev, symObjAddr: 0xD25C, symBinAddr: 0x100010DE4, symSize: 0x184 }
  - { offset: 0xAA61, size: 0x8, addend: 0x0, symName: __ZNSt3__112basic_stringIcNS_11char_traitsIcEENS_9allocatorIcEEE19__get_short_pointerB8ne190107Ev, symObjAddr: 0xD3E0, symBinAddr: 0x100010F68, symSize: 0x140 }
  - { offset: 0xAA85, size: 0x8, addend: 0x0, symName: __ZNKSt3__117__compressed_pairINS_12basic_stringIcNS_11char_traitsIcEENS_9allocatorIcEEE5__repES5_E5firstB8ne190107Ev, symObjAddr: 0xD520, symBinAddr: 0x1000110A8, symSize: 0xEC }
  - { offset: 0xAAA9, size: 0x8, addend: 0x0, symName: __ZNKSt3__122__compressed_pair_elemINS_12basic_stringIcNS_11char_traitsIcEENS_9allocatorIcEEE5__repELi0ELb0EE5__getB8ne190107Ev, symObjAddr: 0xD60C, symBinAddr: 0x100011194, symSize: 0x8C }
  - { offset: 0xAACD, size: 0x8, addend: 0x0, symName: __ZNSt3__117__compressed_pairINS_12basic_stringIcNS_11char_traitsIcEENS_9allocatorIcEEE5__repES5_E5firstB8ne190107Ev, symObjAddr: 0xD698, symBinAddr: 0x100011220, symSize: 0xEC }
  - { offset: 0xAAF1, size: 0x8, addend: 0x0, symName: __ZNSt3__122__compressed_pair_elemINS_12basic_stringIcNS_11char_traitsIcEENS_9allocatorIcEEE5__repELi0ELb0EE5__getB8ne190107Ev, symObjAddr: 0xD784, symBinAddr: 0x10001130C, symSize: 0x8C }
  - { offset: 0xAB16, size: 0x8, addend: 0x0, symName: __ZNSt3__114pointer_traitsIPcE10pointer_toB8ne190107ERc, symObjAddr: 0xD818, symBinAddr: 0x1000113A0, symSize: 0x0 }
  - { offset: 0xAB39, size: 0x8, addend: 0x0, symName: __ZNSt3__119ostreambuf_iteratorIcNS_11char_traitsIcEEEC2B8ne190107ERNS_13basic_ostreamIcS2_EE, symObjAddr: 0xD82C, symBinAddr: 0x1000113B4, symSize: 0x288 }
  - { offset: 0xAB6F, size: 0x8, addend: 0x0, symName: __ZNKSt3__19basic_iosIcNS_11char_traitsIcEEE5rdbufB8ne190107Ev, symObjAddr: 0xDAB4, symBinAddr: 0x10001163C, symSize: 0xF8 }
  - { offset: 0xAB93, size: 0x8, addend: 0x0, symName: __ZNKSt3__18ios_base5rdbufB8ne190107Ev, symObjAddr: 0xDBAC, symBinAddr: 0x100011734, symSize: 0x10C }
  - { offset: 0xABB7, size: 0x8, addend: 0x0, symName: __ZNKSt3__118_SentinelValueFillINS_11char_traitsIcEEE8__is_setB8ne190107Ev, symObjAddr: 0xDCB8, symBinAddr: 0x100011840, symSize: 0x108 }
  - { offset: 0xABDB, size: 0x8, addend: 0x0, symName: __ZNKSt3__19basic_iosIcNS_11char_traitsIcEEE5widenB8ne190107Ec, symObjAddr: 0xDDC0, symBinAddr: 0x100011948, symSize: 0x404 }
  - { offset: 0xAC10, size: 0x8, addend: 0x0, symName: __ZNSt3__118_SentinelValueFillINS_11char_traitsIcEEEaSB8ne190107Ei, symObjAddr: 0xE1C4, symBinAddr: 0x100011D4C, symSize: 0x124 }
  - { offset: 0xAC43, size: 0x8, addend: 0x0, symName: __ZNKSt3__118_SentinelValueFillINS_11char_traitsIcEEE5__getB8ne190107Ev, symObjAddr: 0xE2E8, symBinAddr: 0x100011E70, symSize: 0xF4 }
  - { offset: 0xAC68, size: 0x8, addend: 0x0, symName: __ZNSt3__111char_traitsIcE3eofB8ne190107Ev, symObjAddr: 0xE3E4, symBinAddr: 0x100011F6C, symSize: 0x0 }
  - { offset: 0xACB8, size: 0x8, addend: 0x0, symName: __ZNKSt3__15ctypeIcE5widenB8ne190107Ec, symObjAddr: 0xE540, symBinAddr: 0x1000120C8, symSize: 0x154 }
  - { offset: 0xACEC, size: 0x8, addend: 0x0, symName: __ZNSt3__18ios_base8setstateB8ne190107Ej, symObjAddr: 0xE694, symBinAddr: 0x10001221C, symSize: 0x1A4 }
  - { offset: 0xAD21, size: 0x8, addend: 0x0, symName: __ZNKSt3__112basic_stringIcNS_11char_traitsIcEENS_9allocatorIcEEE13__get_pointerB8ne190107Ev, symObjAddr: 0xE854, symBinAddr: 0x1000123DC, symSize: 0x88 }
  - { offset: 0xAD45, size: 0x8, addend: 0x0, symName: __ZNKSt3__112basic_stringIcNS_11char_traitsIcEENS_9allocatorIcEEE18__get_long_pointerB8ne190107Ev, symObjAddr: 0xE8DC, symBinAddr: 0x100012464, symSize: 0x184 }
  - { offset: 0xAD69, size: 0x8, addend: 0x0, symName: __ZNKSt3__112basic_stringIcNS_11char_traitsIcEENS_9allocatorIcEEE19__get_short_pointerB8ne190107Ev, symObjAddr: 0xEA60, symBinAddr: 0x1000125E8, symSize: 0x140 }
  - { offset: 0xAD8E, size: 0x8, addend: 0x0, symName: __ZNSt3__114pointer_traitsIPKcE10pointer_toB8ne190107ERS1_, symObjAddr: 0xEBA8, symBinAddr: 0x100012730, symSize: 0x0 }
  - { offset: 0xADB0, size: 0x8, addend: 0x0, symName: __ZNKSt3__112basic_stringIcNS_11char_traitsIcEENS_9allocatorIcEEE15__get_long_sizeB8ne190107Ev, symObjAddr: 0xEBBC, symBinAddr: 0x100012744, symSize: 0x18C }
  - { offset: 0xADD4, size: 0x8, addend: 0x0, symName: __ZNKSt3__112basic_stringIcNS_11char_traitsIcEENS_9allocatorIcEEE16__get_short_sizeB8ne190107Ev, symObjAddr: 0xED48, symBinAddr: 0x1000128D0, symSize: 0x178 }
...
