---
triple:          'arm64-apple-darwin'
binary-path:     bomb_main
relocations:
  - { offset: 0x39, size: 0x8, addend: 0x0, symName: __ZN6Random3rngE, symObjAddr: 0x88EA0, symBinAddr: 0x100041200, symSize: 0x0 }
  - { offset: 0x4EA2, size: 0x8, addend: 0x0, symName: __ZNSt3__19__shuffleB8ne190107INS_17_ClassicAlgPolicyENS_11__wrap_iterIPcEES4_RNS_23mersenne_twister_engineIjLm32ELm624ELm397ELm31ELj2567483615ELm11ELj4294967295ELm7ELj2636928640ELm15ELj4022730752ELm18ELj1812433253EEEEET0_S8_T1_OT2_, symObjAddr: 0x11908, symBinAddr: 0x1000157BC, symSize: 0x0 }
  - { offset: 0x524F, size: 0x8, addend: 0x0, symName: __ZNSt3__124__put_character_sequenceB8ne190107IcNS_11char_traitsIcEEEERNS_13basic_ostreamIT_T0_EES7_PKS4_m, symObjAddr: 0x1486C, symBinAddr: 0x100018720, symSize: 0x0 }
  - { offset: 0x8DAD, size: 0x8, addend: 0x0, symName: __ZNSt3__17shuffleB8ne190107INS_11__wrap_iterIPcEERNS_23mersenne_twister_engineIjLm32ELm624ELm397ELm31ELj2567483615ELm11ELj4294967295ELm7ELj2636928640ELm15ELj4022730752ELm18ELj1812433253EEEEEvT_S7_OT0_, symObjAddr: 0x554, symBinAddr: 0x100004408, symSize: 0x0 }
  - { offset: 0x8E03, size: 0x8, addend: 0x0, symName: __ZNSt3__1eqB8ne190107INS_9allocatorIcEEEEbRKNS_12basic_stringIcNS_11char_traitsIcEET_EES9_, symObjAddr: 0xE9C, symBinAddr: 0x100004D50, symSize: 0x0 }
  - { offset: 0x8E58, size: 0x8, addend: 0x0, symName: __ZNSt3__1lsB8ne190107INS_11char_traitsIcEEEERNS_13basic_ostreamIcT_EES6_PKc, symObjAddr: 0xFF4, symBinAddr: 0x100004EA8, symSize: 0x0 }
  - { offset: 0x8E9E, size: 0x8, addend: 0x0, symName: __ZNSt3__14endlB8ne190107IcNS_11char_traitsIcEEEERNS_13basic_ostreamIT_T0_EES7_, symObjAddr: 0x11D0, symBinAddr: 0x100005084, symSize: 0x0 }
  - { offset: 0x8EDE, size: 0x8, addend: 0x0, symName: __ZNSt3__1lsB8ne190107IcNS_11char_traitsIcEENS_9allocatorIcEEEERNS_13basic_ostreamIT_T0_EES9_RKNS_12basic_stringIS6_S7_T1_EE, symObjAddr: 0x1520, symBinAddr: 0x1000053D4, symSize: 0x0 }
  - { offset: 0x9DD3, size: 0x8, addend: 0x0, symName: __ZNSt3__1neB8ne190107ERKNS_21__hash_const_iteratorIPNS_11__hash_nodeINS_12basic_stringIcNS_11char_traitsIcEENS_9allocatorIcEEEEPvEEEESD_, symObjAddr: 0x29E0, symBinAddr: 0x100006894, symSize: 0x0 }
  - { offset: 0x9E10, size: 0x8, addend: 0x0, symName: __ZNSt3__118__constexpr_strlenB8ne190107IcEEmPKT_, symObjAddr: 0x5900, symBinAddr: 0x1000097B4, symSize: 0x0 }
  - { offset: 0x9E45, size: 0x8, addend: 0x0, symName: __ZNSt3__112__to_addressB8ne190107IKcEEPT_S3_, symObjAddr: 0x59C8, symBinAddr: 0x10000987C, symSize: 0x0 }
  - { offset: 0x9EAD, size: 0x8, addend: 0x0, symName: __ZNSt3__112__to_addressB8ne190107IcEEPT_S2_, symObjAddr: 0x6F40, symBinAddr: 0x10000ADF4, symSize: 0x0 }
  - { offset: 0x9EE2, size: 0x8, addend: 0x0, symName: __ZNSt3__131__annotate_contiguous_containerB8ne190107INS_9allocatorIcEEEEvPKvS4_S4_S4_, symObjAddr: 0x77A0, symBinAddr: 0x10000B654, symSize: 0x0 }
  - { offset: 0x9F3D, size: 0x8, addend: 0x0, symName: __ZNSt3__114__construct_atB8ne190107IcJcEPcEEPT_S3_DpOT0_, symObjAddr: 0x7B60, symBinAddr: 0x10000BA14, symSize: 0x0 }
  - { offset: 0x9FB5, size: 0x8, addend: 0x0, symName: __ZNSt3__112construct_atB8ne190107IcJcEPcEEPT_S3_DpOT0_, symObjAddr: 0x7BC0, symBinAddr: 0x10000BA74, symSize: 0x0 }
  - { offset: 0xA025, size: 0x8, addend: 0x0, symName: __ZNSt3__13maxB8ne190107ImEERKT_S3_S3_, symObjAddr: 0x915C, symBinAddr: 0x10000D010, symSize: 0x0 }
  - { offset: 0xA068, size: 0x8, addend: 0x0, symName: __ZNSt3__13minB8ne190107ImEERKT_S3_S3_, symObjAddr: 0x9238, symBinAddr: 0x10000D0EC, symSize: 0x0 }
  - { offset: 0xA295, size: 0x8, addend: 0x0, symName: __ZNSt3__13minB8ne190107ImNS_6__lessIvvEEEERKT_S5_S5_T0_, symObjAddr: 0x9450, symBinAddr: 0x10000D304, symSize: 0x0 }
  - { offset: 0xA33A, size: 0x8, addend: 0x0, symName: __ZNSt3__120__throw_length_errorB8ne190107EPKc, symObjAddr: 0x98FC, symBinAddr: 0x10000D7B0, symSize: 0x0 }
  - { offset: 0xA362, size: 0x8, addend: 0x0, symName: __ZNSt3__13maxB8ne190107ImNS_6__lessIvvEEEERKT_S5_S5_T0_, symObjAddr: 0x9B1C, symBinAddr: 0x10000D9D0, symSize: 0x0 }
  - { offset: 0xA3C2, size: 0x8, addend: 0x0, symName: __ZNSt3__119__allocate_at_leastB8ne190107INS_9allocatorIcEEEENS_19__allocation_resultINS_16allocator_traitsIT_E7pointerEEERS5_m, symObjAddr: 0xA428, symBinAddr: 0x10000E2DC, symSize: 0x0 }
  - { offset: 0xA405, size: 0x8, addend: 0x0, symName: __ZNSt3__117__libcpp_allocateB8ne190107Emm, symObjAddr: 0xA960, symBinAddr: 0x10000E814, symSize: 0x0 }
  - { offset: 0xA45F, size: 0x8, addend: 0x0, symName: __ZNSt3__124__is_overaligned_for_newB8ne190107Em, symObjAddr: 0xA9C8, symBinAddr: 0x10000E87C, symSize: 0x0 }
  - { offset: 0xA48B, size: 0x8, addend: 0x0, symName: __ZNSt3__121__libcpp_operator_newB8ne190107IJmSt11align_val_tEEEPvDpT_, symObjAddr: 0xA9EC, symBinAddr: 0x10000E8A0, symSize: 0x0 }
  - { offset: 0xA4D8, size: 0x8, addend: 0x0, symName: __ZNSt3__121__libcpp_operator_newB8ne190107IJmEEEPvDpT_, symObjAddr: 0xAA5C, symBinAddr: 0x10000E910, symSize: 0x0 }
  - { offset: 0xA511, size: 0x8, addend: 0x0, symName: __ZNSt3__134__uninitialized_allocator_relocateB8ne190107INS_9allocatorIcEEcEEvRT_PT0_S6_S6_, symObjAddr: 0xAF1C, symBinAddr: 0x10000EDD0, symSize: 0x0 }
  - { offset: 0xA57A, size: 0x8, addend: 0x0, symName: __ZNSt3__14swapB8ne190107IPcEENS_9enable_ifIXaasr21is_move_constructibleIT_EE5valuesr18is_move_assignableIS3_EE5valueEvE4typeERS3_S6_, symObjAddr: 0xAF6C, symBinAddr: 0x10000EE20, symSize: 0x0 }
  - { offset: 0xA5CB, size: 0x8, addend: 0x0, symName: __ZNSt3__112__destroy_atB8ne190107IcTnNS_9enable_ifIXntsr8is_arrayIT_EE5valueEiE4typeELi0EEEvPS2_, symObjAddr: 0xB8B0, symBinAddr: 0x10000F764, symSize: 0x0 }
  - { offset: 0xA602, size: 0x8, addend: 0x0, symName: __ZNSt3__119__libcpp_deallocateB8ne190107EPvmm, symObjAddr: 0xB938, symBinAddr: 0x10000F7EC, symSize: 0x0 }
  - { offset: 0xA667, size: 0x8, addend: 0x0, symName: __ZNSt3__127__do_deallocate_handle_sizeB8ne190107IJSt11align_val_tEEEvPvmDpT_, symObjAddr: 0xB9A0, symBinAddr: 0x10000F854, symSize: 0x0 }
  - { offset: 0xA6BA, size: 0x8, addend: 0x0, symName: __ZNSt3__127__do_deallocate_handle_sizeB8ne190107IJEEEvPvmDpT_, symObjAddr: 0xB9DC, symBinAddr: 0x10000F890, symSize: 0x0 }
  - { offset: 0xA6F8, size: 0x8, addend: 0x0, symName: __ZNSt3__124__libcpp_operator_deleteB8ne190107IJPvmSt11align_val_tEEEvDpT_, symObjAddr: 0xBA10, symBinAddr: 0x10000F8C4, symSize: 0x0 }
  - { offset: 0xA755, size: 0x8, addend: 0x0, symName: __ZNSt3__124__libcpp_operator_deleteB8ne190107IJPvmEEEvDpT_, symObjAddr: 0xBA4C, symBinAddr: 0x10000F900, symSize: 0x0 }
  - { offset: 0xA79E, size: 0x8, addend: 0x0, symName: __ZNSt3__116__do_string_hashB8ne190107IPKcEEmT_S3_, symObjAddr: 0xDE60, symBinAddr: 0x100011D14, symSize: 0x0 }
  - { offset: 0xA7E6, size: 0x8, addend: 0x0, symName: __ZNSt3__110__loadwordB8ne190107ImEET_PKv, symObjAddr: 0x10A48, symBinAddr: 0x1000148FC, symSize: 0x0 }
  - { offset: 0xA829, size: 0x8, addend: 0x0, symName: __ZNSt3__14swapB8ne190107ImEENS_9enable_ifIXaasr21is_move_constructibleIT_EE5valuesr18is_move_assignableIS2_EE5valueEvE4typeERS2_S5_, symObjAddr: 0x110C0, symBinAddr: 0x100014F74, symSize: 0x0 }
  - { offset: 0xA87A, size: 0x8, addend: 0x0, symName: __ZNSt3__110__loadwordB8ne190107IjEET_PKv, symObjAddr: 0x113B0, symBinAddr: 0x100015264, symSize: 0x0 }
  - { offset: 0xA924, size: 0x8, addend: 0x0, symName: __ZNSt3__1miB8ne190107IPcS1_EEDTmicldtfp_4baseEcldtfp0_4baseEERKNS_11__wrap_iterIT_EERKNS3_IT0_EE, symObjAddr: 0x11DAC, symBinAddr: 0x100015C60, symSize: 0x0 }
  - { offset: 0xA970, size: 0x8, addend: 0x0, symName: __ZNSt3__1ltB8ne190107IPcEEbRKNS_11__wrap_iterIT_EES6_, symObjAddr: 0x12028, symBinAddr: 0x100015EDC, symSize: 0x0 }
  - { offset: 0xA9B3, size: 0x8, addend: 0x0, symName: __ZNSt3__113__countl_zeroB8ne190107ImEEiT_, symObjAddr: 0x12D94, symBinAddr: 0x100016C48, symSize: 0x0 }
  - { offset: 0xA9E8, size: 0x8, addend: 0x0, symName: __ZNSt3__19iter_swapB8ne190107INS_11__wrap_iterIPcEES3_EEvT_T0_, symObjAddr: 0x141C0, symBinAddr: 0x100018074, symSize: 0x0 }
  - { offset: 0xAA38, size: 0x8, addend: 0x0, symName: __ZNSt3__14swapB8ne190107IcEENS_9enable_ifIXaasr21is_move_constructibleIT_EE5valuesr18is_move_assignableIS2_EE5valueEvE4typeERS2_S5_, symObjAddr: 0x143F8, symBinAddr: 0x1000182AC, symSize: 0x0 }
  - { offset: 0xAA89, size: 0x8, addend: 0x0, symName: __ZNSt3__116__pad_and_outputB8ne190107IcNS_11char_traitsIcEEEENS_19ostreambuf_iteratorIT_T0_EES6_PKS4_S8_S8_RNS_8ios_baseES4_, symObjAddr: 0x15720, symBinAddr: 0x1000195D4, symSize: 0x0 }
  - { offset: 0xAB63, size: 0x8, addend: 0x0, symName: __ZNSt3__19use_facetB8ne190107INS_5ctypeIcEEEERKT_RKNS_6localeE, symObjAddr: 0x17834, symBinAddr: 0x10001B6E8, symSize: 0x0 }
  - { offset: 0xB04E, size: 0x8, addend: 0x0, symName: __ZNSt3__116__is_hash_power2B8ne190107Em, symObjAddr: 0x1BB70, symBinAddr: 0x10001FA24, symSize: 0x0 }
  - { offset: 0xB07A, size: 0x8, addend: 0x0, symName: __ZNSt3__116__next_hash_pow2B8ne190107Em, symObjAddr: 0x1BBC4, symBinAddr: 0x10001FA78, symSize: 0x0 }
  - { offset: 0xB0AB, size: 0x8, addend: 0x0, symName: __ZNSt3__16__math4ceilB8ne190107Ef, symObjAddr: 0x1BC94, symBinAddr: 0x10001FB48, symSize: 0x0 }
  - { offset: 0xB131, size: 0x8, addend: 0x0, symName: __ZNSt3__116__constrain_hashB8ne190107Emm, symObjAddr: 0x1C9F4, symBinAddr: 0x1000208A8, symSize: 0x0 }
  - { offset: 0xB19E, size: 0x8, addend: 0x0, symName: __ZNSt3__112__libcpp_clzB8ne190107Em, symObjAddr: 0x1CF54, symBinAddr: 0x100020E08, symSize: 0x0 }
  - { offset: 0xB1CA, size: 0x8, addend: 0x0, symName: __ZNSt3__112__destroy_atB8ne190107INS_11__hash_nodeINS_12basic_stringIcNS_11char_traitsIcEENS_9allocatorIcEEEEPvEETnNS_9enable_ifIXntsr8is_arrayIT_EE5valueEiE4typeELi0EEEvPSB_, symObjAddr: 0x1D8A4, symBinAddr: 0x100021758, symSize: 0x0 }
  - { offset: 0xB201, size: 0x8, addend: 0x0, symName: __ZNSt3__112__destroy_atB8ne190107INS_12basic_stringIcNS_11char_traitsIcEENS_9allocatorIcEEEETnNS_9enable_ifIXntsr8is_arrayIT_EE5valueEiE4typeELi0EEEvPS8_, symObjAddr: 0x1DA6C, symBinAddr: 0x100021920, symSize: 0x0 }
  - { offset: 0xB256, size: 0x8, addend: 0x0, symName: __ZNSt3__114__construct_atB8ne190107INS_11__hash_nodeINS_12basic_stringIcNS_11char_traitsIcEENS_9allocatorIcEEEEPvEEJDnRmEPS9_EEPT_SD_DpOT0_, symObjAddr: 0x20884, symBinAddr: 0x100024738, symSize: 0x0 }
  - { offset: 0xB2E1, size: 0x8, addend: 0x0, symName: __ZNSt3__112construct_atB8ne190107INS_11__hash_nodeINS_12basic_stringIcNS_11char_traitsIcEENS_9allocatorIcEEEEPvEEJDnRmEPS9_EEPT_SD_DpOT0_, symObjAddr: 0x213F0, symBinAddr: 0x1000252A4, symSize: 0x0 }
  - { offset: 0xB364, size: 0x8, addend: 0x0, symName: __ZNSt3__114__construct_atB8ne190107INS_12basic_stringIcNS_11char_traitsIcEENS_9allocatorIcEEEEJS6_EPS6_EEPT_S9_DpOT0_, symObjAddr: 0x218D8, symBinAddr: 0x10002578C, symSize: 0x0 }
  - { offset: 0xB3DC, size: 0x8, addend: 0x0, symName: __ZNSt3__112construct_atB8ne190107INS_12basic_stringIcNS_11char_traitsIcEENS_9allocatorIcEEEEJS6_EPS6_EEPT_S9_DpOT0_, symObjAddr: 0x2194C, symBinAddr: 0x100025800, symSize: 0x0 }
  - { offset: 0xB44C, size: 0x8, addend: 0x0, symName: __ZNSt3__1eqB8ne190107ERKNS_21__hash_const_iteratorIPNS_11__hash_nodeINS_12basic_stringIcNS_11char_traitsIcEENS_9allocatorIcEEEEPvEEEESD_, symObjAddr: 0x23174, symBinAddr: 0x100027028, symSize: 0x0 }
  - { offset: 0xC2F7, size: 0x8, addend: 0x0, symName: __ZSt28__throw_bad_array_new_lengthB8ne190107v, symObjAddr: 0xA8EC, symBinAddr: 0x10000E7A0, symSize: 0x0 }
  - { offset: 0xC368, size: 0x8, addend: 0x0, symName: _.str, symObjAddr: 0x32760, symBinAddr: 0x10002DC80, symSize: 0x0 }
  - { offset: 0xC394, size: 0x8, addend: 0x0, symName: _.str.1, symObjAddr: 0x32780, symBinAddr: 0x10002DCA0, symSize: 0x0 }
  - { offset: 0xC3B3, size: 0x8, addend: 0x0, symName: _.str.2, symObjAddr: 0x327A0, symBinAddr: 0x10002DCC0, symSize: 0x0 }
  - { offset: 0xC3D2, size: 0x8, addend: 0x0, symName: _.str.3, symObjAddr: 0x32800, symBinAddr: 0x10002DD20, symSize: 0x0 }
  - { offset: 0xC3F1, size: 0x8, addend: 0x0, symName: _.str.4, symObjAddr: 0x32820, symBinAddr: 0x10002DD40, symSize: 0x0 }
  - { offset: 0xC403, size: 0x8, addend: 0x0, symName: _.str.5, symObjAddr: 0x32840, symBinAddr: 0x10002DD60, symSize: 0x0 }
  - { offset: 0xC422, size: 0x8, addend: 0x0, symName: _.str.6, symObjAddr: 0x32860, symBinAddr: 0x10002DD80, symSize: 0x0 }
  - { offset: 0xC434, size: 0x8, addend: 0x0, symName: _.str.7, symObjAddr: 0x32880, symBinAddr: 0x10002DDA0, symSize: 0x0 }
  - { offset: 0xC446, size: 0x8, addend: 0x0, symName: _.str.8, symObjAddr: 0x328E0, symBinAddr: 0x10002DE00, symSize: 0x0 }
  - { offset: 0xC458, size: 0x8, addend: 0x0, symName: _.str.9, symObjAddr: 0x32940, symBinAddr: 0x10002DE60, symSize: 0x0 }
  - { offset: 0xC477, size: 0x8, addend: 0x0, symName: _.str.10, symObjAddr: 0x32980, symBinAddr: 0x10002DEA0, symSize: 0x0 }
  - { offset: 0xC48A, size: 0x8, addend: 0x0, symName: _.str.20, symObjAddr: 0x329A0, symBinAddr: 0x10002DEC0, symSize: 0x0 }
  - { offset: 0xC9E6, size: 0x8, addend: 0x0, symName: __ZNSt3__124uniform_int_distributionIlEclINS_23mersenne_twister_engineIjLm32ELm624ELm397ELm31ELj2567483615ELm11ELj4294967295ELm7ELj2636928640ELm15ELj4022730752ELm18ELj1812433253EEEEElRT_RKNS1_10param_typeE, symObjAddr: 0x120B8, symBinAddr: 0x100015F6C, symSize: 0x508 }
  - { offset: 0xD10A, size: 0x8, addend: 0x0, symName: __ZNSt3__123mersenne_twister_engineIjLm32ELm624ELm397ELm31ELj2567483615ELm11ELj4294967295ELm7ELj2636928640ELm15ELj4022730752ELm18ELj1812433253EEC1B8ne190107Ev, symObjAddr: 0x0, symBinAddr: 0x100003EB4, symSize: 0x68 }
  - { offset: 0xD133, size: 0x8, addend: 0x0, symName: __Z16shuffle_passwordRKNSt3__112basic_stringIcNS_11char_traitsIcEENS_9allocatorIcEEEE, symObjAddr: 0x70, symBinAddr: 0x100003F24, symSize: 0x0 }
  - { offset: 0xD171, size: 0x8, addend: 0x0, symName: __ZNKSt3__113__string_hashIcNS_9allocatorIcEEEclB8ne190107ERKNS_12basic_stringIcNS_11char_traitsIcEES2_EE, symObjAddr: 0x3A0, symBinAddr: 0x100004254, symSize: 0x1AC }
  - { offset: 0xD1A6, size: 0x8, addend: 0x0, symName: __ZNSt3__112basic_stringIcNS_11char_traitsIcEENS_9allocatorIcEEE5beginB8ne190107Ev, symObjAddr: 0x5F4, symBinAddr: 0x1000044A8, symSize: 0x8C }
  - { offset: 0xD1CC, size: 0x8, addend: 0x0, symName: __ZNSt3__112basic_stringIcNS_11char_traitsIcEENS_9allocatorIcEEE3endB8ne190107Ev, symObjAddr: 0x680, symBinAddr: 0x100004534, symSize: 0x12C }
  - { offset: 0xD1F1, size: 0x8, addend: 0x0, symName: __Z6phase0NSt3__112basic_stringIcNS_11char_traitsIcEENS_9allocatorIcEEEE, symObjAddr: 0x7B4, symBinAddr: 0x100004668, symSize: 0x0 }
  - { offset: 0xD234, size: 0x8, addend: 0x0, symName: __ZNSt3__112basic_stringIcNS_11char_traitsIcEENS_9allocatorIcEEEC1B8ne190107ILi0EEEPKc, symObjAddr: 0xE28, symBinAddr: 0x100004CDC, symSize: 0x6C }
  - { offset: 0xD273, size: 0x8, addend: 0x0, symName: __ZNSt3__113basic_ostreamIcNS_11char_traitsIcEEElsB8ne190107EPFRS3_S4_E, symObjAddr: 0x10A4, symBinAddr: 0x100004F58, symSize: 0x124 }
  - { offset: 0xD2A6, size: 0x8, addend: 0x0, symName: __Z6phase1RKNSt3__112basic_stringIcNS_11char_traitsIcEENS_9allocatorIcEEEE, symObjAddr: 0x162C, symBinAddr: 0x1000054E0, symSize: 0x0 }
  - { offset: 0xD4AC, size: 0x8, addend: 0x0, symName: __ZNSt3__113unordered_setINS_12basic_stringIcNS_11char_traitsIcEENS_9allocatorIcEEEENS_4hashIS6_EENS_8equal_toIS6_EENS4_IS6_EEEC1EmRKS8_RKSA_, symObjAddr: 0x21B4, symBinAddr: 0x100006068, symSize: 0x7C }
  - { offset: 0xD505, size: 0x8, addend: 0x0, symName: __ZNSt3__113unordered_setINS_12basic_stringIcNS_11char_traitsIcEENS_9allocatorIcEEEENS_4hashIS6_EENS_8equal_toIS6_EENS4_IS6_EEE6insertB8ne190107EOS6_, symObjAddr: 0x2230, symBinAddr: 0x1000060E4, symSize: 0x2D0 }
  - { offset: 0xD53C, size: 0x8, addend: 0x0, symName: __ZNSt3__113unordered_setINS_12basic_stringIcNS_11char_traitsIcEENS_9allocatorIcEEEENS_4hashIS6_EENS_8equal_toIS6_EENS4_IS6_EEE5beginB8ne190107Ev, symObjAddr: 0x2500, symBinAddr: 0x1000063B4, symSize: 0x26C }
  - { offset: 0xD563, size: 0x8, addend: 0x0, symName: __ZNSt3__113unordered_setINS_12basic_stringIcNS_11char_traitsIcEENS_9allocatorIcEEEENS_4hashIS6_EENS_8equal_toIS6_EENS4_IS6_EEE3endB8ne190107Ev, symObjAddr: 0x276C, symBinAddr: 0x100006620, symSize: 0x26C }
  - { offset: 0xD58A, size: 0x8, addend: 0x0, symName: __ZNKSt3__121__hash_const_iteratorIPNS_11__hash_nodeINS_12basic_stringIcNS_11char_traitsIcEENS_9allocatorIcEEEEPvEEEdeB8ne190107Ev, symObjAddr: 0x2A80, symBinAddr: 0x100006934, symSize: 0x14C }
  - { offset: 0xD5B0, size: 0x8, addend: 0x0, symName: __ZNKSt3__112basic_stringIcNS_11char_traitsIcEENS_9allocatorIcEEEixB8ne190107Em, symObjAddr: 0x2BCC, symBinAddr: 0x100006A80, symSize: 0x13C }
  - { offset: 0xD5E5, size: 0x8, addend: 0x0, symName: __ZNSt3__121__hash_const_iteratorIPNS_11__hash_nodeINS_12basic_stringIcNS_11char_traitsIcEENS_9allocatorIcEEEEPvEEEppB8ne190107Ev, symObjAddr: 0x2D08, symBinAddr: 0x100006BBC, symSize: 0x1B8 }
  - { offset: 0xD60B, size: 0x8, addend: 0x0, symName: __ZNSt3__113unordered_setINS_12basic_stringIcNS_11char_traitsIcEENS_9allocatorIcEEEENS_4hashIS6_EENS_8equal_toIS6_EENS4_IS6_EEED1B8ne190107Ev, symObjAddr: 0x2EC0, symBinAddr: 0x100006D74, symSize: 0x64 }
  - { offset: 0xD634, size: 0x8, addend: 0x0, symName: __Z6phase2RKNSt3__112basic_stringIcNS_11char_traitsIcEENS_9allocatorIcEEEE, symObjAddr: 0x2F2C, symBinAddr: 0x100006DE0, symSize: 0x0 }
  - { offset: 0xD6B9, size: 0x8, addend: 0x0, symName: __ZNSt3__16vectorIcNS_9allocatorIcEEEC1B8ne190107Ev, symObjAddr: 0x37BC, symBinAddr: 0x100007670, symSize: 0x64 }
  - { offset: 0xD6E3, size: 0x8, addend: 0x0, symName: __ZNSt3__16vectorIcNS_9allocatorIcEEE9push_backB8ne190107EOc, symObjAddr: 0x3820, symBinAddr: 0x1000076D4, symSize: 0x254 }
  - { offset: 0xD727, size: 0x8, addend: 0x0, symName: __ZN6Random7randIntEi, symObjAddr: 0x3A7C, symBinAddr: 0x100007930, symSize: 0x0 }
  - { offset: 0xD74A, size: 0x8, addend: 0x0, symName: __ZNKSt3__16vectorIcNS_9allocatorIcEEE4sizeB8ne190107Ev, symObjAddr: 0x3B24, symBinAddr: 0x1000079D8, symSize: 0xD8 }
  - { offset: 0xD770, size: 0x8, addend: 0x0, symName: __ZNSt3__16vectorIcNS_9allocatorIcEEEixB8ne190107Em, symObjAddr: 0x3BFC, symBinAddr: 0x100007AB0, symSize: 0x16C }
  - { offset: 0xD7A5, size: 0x8, addend: 0x0, symName: __ZNSt3__16vectorIcNS_9allocatorIcEEED1B8ne190107Ev, symObjAddr: 0x3D68, symBinAddr: 0x100007C1C, symSize: 0x64 }
  - { offset: 0xD7CF, size: 0x8, addend: 0x0, symName: _main, symObjAddr: 0x3DD4, symBinAddr: 0x100007C88, symSize: 0x0 }
  - { offset: 0xD812, size: 0x8, addend: 0x0, symName: __ZN6Random4seedEi, symObjAddr: 0x42E8, symBinAddr: 0x10000819C, symSize: 0x0 }
  - { offset: 0xD835, size: 0x8, addend: 0x0, symName: __ZNSt3__112basic_stringIcNS_11char_traitsIcEENS_9allocatorIcEEEC1B8ne190107Ev, symObjAddr: 0x4314, symBinAddr: 0x1000081C8, symSize: 0x64 }
  - { offset: 0xD85F, size: 0x8, addend: 0x0, symName: __ZNSt3__112basic_stringIcNS_11char_traitsIcEENS_9allocatorIcEEEpLB8ne190107Ec, symObjAddr: 0x4378, symBinAddr: 0x10000822C, symSize: 0x9C }
  - { offset: 0xD894, size: 0x8, addend: 0x0, symName: __ZNSt3__112basic_stringIcNS_11char_traitsIcEENS_9allocatorIcEEEixB8ne190107Em, symObjAddr: 0x4414, symBinAddr: 0x1000082C8, symSize: 0x13C }
  - { offset: 0xD8C9, size: 0x8, addend: 0x0, symName: __ZNSt3__112basic_stringIcNS_11char_traitsIcEENS_9allocatorIcEEE15__make_iteratorB8ne190107EPc, symObjAddr: 0x4550, symBinAddr: 0x100008404, symSize: 0x1E8 }
  - { offset: 0xD900, size: 0x8, addend: 0x0, symName: __ZNSt3__112basic_stringIcNS_11char_traitsIcEENS_9allocatorIcEEE13__get_pointerB8ne190107Ev, symObjAddr: 0x4738, symBinAddr: 0x1000085EC, symSize: 0x88 }
  - { offset: 0xD926, size: 0x8, addend: 0x0, symName: __ZNSt3__111__wrap_iterIPcEC1B8ne190107ES1_, symObjAddr: 0x47D0, symBinAddr: 0x100008684, symSize: 0x6C }
  - { offset: 0xD95E, size: 0x8, addend: 0x0, symName: __ZNSt3__111__wrap_iterIPcEC2B8ne190107ES1_, symObjAddr: 0x483C, symBinAddr: 0x1000086F0, symSize: 0xB8 }
  - { offset: 0xD996, size: 0x8, addend: 0x0, symName: __ZNKSt3__112basic_stringIcNS_11char_traitsIcEENS_9allocatorIcEEE9__is_longB8ne190107Ev, symObjAddr: 0x48F4, symBinAddr: 0x1000087A8, symSize: 0x178 }
  - { offset: 0xD9BC, size: 0x8, addend: 0x0, symName: __ZNSt3__112basic_stringIcNS_11char_traitsIcEENS_9allocatorIcEEE18__get_long_pointerB8ne190107Ev, symObjAddr: 0x4A6C, symBinAddr: 0x100008920, symSize: 0x184 }
  - { offset: 0xD9E2, size: 0x8, addend: 0x0, symName: __ZNSt3__112basic_stringIcNS_11char_traitsIcEENS_9allocatorIcEEE19__get_short_pointerB8ne190107Ev, symObjAddr: 0x4BF0, symBinAddr: 0x100008AA4, symSize: 0x140 }
  - { offset: 0xDA08, size: 0x8, addend: 0x0, symName: __ZNKSt3__117__compressed_pairINS_12basic_stringIcNS_11char_traitsIcEENS_9allocatorIcEEE5__repES5_E5firstB8ne190107Ev, symObjAddr: 0x4D30, symBinAddr: 0x100008BE4, symSize: 0xEC }
  - { offset: 0xDA2E, size: 0x8, addend: 0x0, symName: __ZNKSt3__122__compressed_pair_elemINS_12basic_stringIcNS_11char_traitsIcEENS_9allocatorIcEEE5__repELi0ELb0EE5__getB8ne190107Ev, symObjAddr: 0x4E1C, symBinAddr: 0x100008CD0, symSize: 0x8C }
  - { offset: 0xDA54, size: 0x8, addend: 0x0, symName: __ZNSt3__117__compressed_pairINS_12basic_stringIcNS_11char_traitsIcEENS_9allocatorIcEEE5__repES5_E5firstB8ne190107Ev, symObjAddr: 0x4EA8, symBinAddr: 0x100008D5C, symSize: 0xEC }
  - { offset: 0xDA7A, size: 0x8, addend: 0x0, symName: __ZNSt3__122__compressed_pair_elemINS_12basic_stringIcNS_11char_traitsIcEENS_9allocatorIcEEE5__repELi0ELb0EE5__getB8ne190107Ev, symObjAddr: 0x4F94, symBinAddr: 0x100008E48, symSize: 0x8C }
  - { offset: 0xDAA0, size: 0x8, addend: 0x0, symName: __ZNSt3__114pointer_traitsIPcE10pointer_toB8ne190107ERc, symObjAddr: 0x5028, symBinAddr: 0x100008EDC, symSize: 0x0 }
  - { offset: 0xDAC3, size: 0x8, addend: 0x0, symName: __ZNKSt3__112basic_stringIcNS_11char_traitsIcEENS_9allocatorIcEEE4sizeB8ne190107Ev, symObjAddr: 0x503C, symBinAddr: 0x100008EF0, symSize: 0x88 }
  - { offset: 0xDAE9, size: 0x8, addend: 0x0, symName: __ZNKSt3__112basic_stringIcNS_11char_traitsIcEENS_9allocatorIcEEE15__get_long_sizeB8ne190107Ev, symObjAddr: 0x50C4, symBinAddr: 0x100008F78, symSize: 0x18C }
  - { offset: 0xDB0F, size: 0x8, addend: 0x0, symName: __ZNKSt3__112basic_stringIcNS_11char_traitsIcEENS_9allocatorIcEEE16__get_short_sizeB8ne190107Ev, symObjAddr: 0x5250, symBinAddr: 0x100009104, symSize: 0x178 }
  - { offset: 0xDB35, size: 0x8, addend: 0x0, symName: __ZNSt3__112basic_stringIcNS_11char_traitsIcEENS_9allocatorIcEEEC2B8ne190107ILi0EEEPKc, symObjAddr: 0x53C8, symBinAddr: 0x10000927C, symSize: 0x244 }
  - { offset: 0xDB7C, size: 0x8, addend: 0x0, symName: __ZNSt3__117__compressed_pairINS_12basic_stringIcNS_11char_traitsIcEENS_9allocatorIcEEE5__repES5_EC1B8ne190107INS_18__default_init_tagESA_EEOT_OT0_, symObjAddr: 0x560C, symBinAddr: 0x1000094C0, symSize: 0x74 }
  - { offset: 0xDBD4, size: 0x8, addend: 0x0, symName: __ZNSt3__111char_traitsIcE6lengthB8ne190107EPKc, symObjAddr: 0x5688, symBinAddr: 0x10000953C, symSize: 0x0 }
  - { offset: 0xDBF7, size: 0x8, addend: 0x0, symName: __ZNSt3__117__compressed_pairINS_12basic_stringIcNS_11char_traitsIcEENS_9allocatorIcEEE5__repES5_EC2B8ne190107INS_18__default_init_tagESA_EEOT_OT0_, symObjAddr: 0x56AC, symBinAddr: 0x100009560, symSize: 0xC8 }
  - { offset: 0xDC4F, size: 0x8, addend: 0x0, symName: __ZNSt3__122__compressed_pair_elemINS_12basic_stringIcNS_11char_traitsIcEENS_9allocatorIcEEE5__repELi0ELb0EEC2B8ne190107ENS_18__default_init_tagE, symObjAddr: 0x5774, symBinAddr: 0x100009628, symSize: 0x5C }
  - { offset: 0xDC84, size: 0x8, addend: 0x0, symName: __ZNSt3__122__compressed_pair_elemINS_9allocatorIcEELi1ELb1EEC2B8ne190107ENS_18__default_init_tagE, symObjAddr: 0x57D0, symBinAddr: 0x100009684, symSize: 0x70 }
  - { offset: 0xDCB9, size: 0x8, addend: 0x0, symName: __ZNSt3__19allocatorIcEC2B8ne190107Ev, symObjAddr: 0x5840, symBinAddr: 0x1000096F4, symSize: 0x70 }
  - { offset: 0xDCE3, size: 0x8, addend: 0x0, symName: __ZNSt3__116__non_trivial_ifILb1ENS_9allocatorIcEEEC2B8ne190107Ev, symObjAddr: 0x58B0, symBinAddr: 0x100009764, symSize: 0x48 }
  - { offset: 0xDD0D, size: 0x8, addend: 0x0, symName: __ZNSt3__111char_traitsIcE7compareB8ne190107EPKcS3_m, symObjAddr: 0x592C, symBinAddr: 0x1000097E0, symSize: 0x0 }
  - { offset: 0xDD4C, size: 0x8, addend: 0x0, symName: __ZNKSt3__112basic_stringIcNS_11char_traitsIcEENS_9allocatorIcEEE4dataB8ne190107Ev, symObjAddr: 0x5960, symBinAddr: 0x100009814, symSize: 0x60 }
  - { offset: 0xDD72, size: 0x8, addend: 0x0, symName: __ZNKSt3__112basic_stringIcNS_11char_traitsIcEENS_9allocatorIcEEE13__get_pointerB8ne190107Ev, symObjAddr: 0x59DC, symBinAddr: 0x100009890, symSize: 0x88 }
  - { offset: 0xDD98, size: 0x8, addend: 0x0, symName: __ZNKSt3__112basic_stringIcNS_11char_traitsIcEENS_9allocatorIcEEE18__get_long_pointerB8ne190107Ev, symObjAddr: 0x5A64, symBinAddr: 0x100009918, symSize: 0x184 }
  - { offset: 0xDDBE, size: 0x8, addend: 0x0, symName: __ZNKSt3__112basic_stringIcNS_11char_traitsIcEENS_9allocatorIcEEE19__get_short_pointerB8ne190107Ev, symObjAddr: 0x5BE8, symBinAddr: 0x100009A9C, symSize: 0x140 }
  - { offset: 0xDDE4, size: 0x8, addend: 0x0, symName: __ZNSt3__114pointer_traitsIPKcE10pointer_toB8ne190107ERS1_, symObjAddr: 0x5D30, symBinAddr: 0x100009BE4, symSize: 0x0 }
  - { offset: 0xDE07, size: 0x8, addend: 0x0, symName: __ZNSt3__112basic_stringIcNS_11char_traitsIcEENS_9allocatorIcEEE13__fits_in_ssoB8ne190107Em, symObjAddr: 0x5D4C, symBinAddr: 0x100009C00, symSize: 0x0 }
  - { offset: 0xDE2B, size: 0x8, addend: 0x0, symName: __ZNSt3__16vectorIcNS_9allocatorIcEEEC2B8ne190107Ev, symObjAddr: 0x5D68, symBinAddr: 0x100009C1C, symSize: 0x2C4 }
  - { offset: 0xDE5C, size: 0x8, addend: 0x0, symName: __ZNSt3__117__compressed_pairIPcNS_9allocatorIcEEEC1B8ne190107IDnNS_18__default_init_tagEEEOT_OT0_, symObjAddr: 0x602C, symBinAddr: 0x100009EE0, symSize: 0x74 }
  - { offset: 0xDEB4, size: 0x8, addend: 0x0, symName: __ZNSt3__117__compressed_pairIPcNS_9allocatorIcEEEC2B8ne190107IDnNS_18__default_init_tagEEEOT_OT0_, symObjAddr: 0x60A0, symBinAddr: 0x100009F54, symSize: 0x104 }
  - { offset: 0xDF0C, size: 0x8, addend: 0x0, symName: __ZNSt3__122__compressed_pair_elemIPcLi0ELb0EEC2B8ne190107IDnTnNS_9enable_ifIXntsr7is_sameIS2_u7__decayIT_EEE5valueEiE4typeELi0EEEOS5_, symObjAddr: 0x61A4, symBinAddr: 0x10000A058, symSize: 0xAC }
  - { offset: 0xDF53, size: 0x8, addend: 0x0, symName: __ZNSt3__16vectorIcNS_9allocatorIcEEE9__end_capB8ne190107Ev, symObjAddr: 0x6250, symBinAddr: 0x10000A104, symSize: 0xD8 }
  - { offset: 0xDF7F, size: 0x8, addend: 0x0, symName: __ZNSt3__16vectorIcNS_9allocatorIcEEE22__construct_one_at_endB8ne190107IJcEEEvDpOT_, symObjAddr: 0x6328, symBinAddr: 0x10000A1DC, symSize: 0x42C }
  - { offset: 0xDFD4, size: 0x8, addend: 0x0, symName: __ZNSt3__16vectorIcNS_9allocatorIcEEE21__push_back_slow_pathIcEEPcOT_, symObjAddr: 0x6754, symBinAddr: 0x10000A608, symSize: 0x4D0 }
  - { offset: 0xE037, size: 0x8, addend: 0x0, symName: __ZNSt3__117__compressed_pairIPcNS_9allocatorIcEEE5firstB8ne190107Ev, symObjAddr: 0x6C24, symBinAddr: 0x10000AAD8, symSize: 0xEC }
  - { offset: 0xE05D, size: 0x8, addend: 0x0, symName: __ZNSt3__122__compressed_pair_elemIPcLi0ELb0EE5__getB8ne190107Ev, symObjAddr: 0x6D10, symBinAddr: 0x10000ABC4, symSize: 0x8C }
  - { offset: 0xE0A1, size: 0x8, addend: 0x0, symName: __ZNSt3__16vectorIcNS_9allocatorIcEEE21_ConstructTransactionC1B8ne190107ERS3_m, symObjAddr: 0x6D9C, symBinAddr: 0x10000AC50, symSize: 0x74 }
  - { offset: 0xE0E9, size: 0x8, addend: 0x0, symName: __ZNSt3__116allocator_traitsINS_9allocatorIcEEE9constructB8ne190107IcJcEvTnNS_9enable_ifIXntsr15__has_constructIS2_PT_DpT0_EE5valueEiE4typeELi0EEEvRS2_S7_DpOS8_, symObjAddr: 0x6E18, symBinAddr: 0x10000ACCC, symSize: 0x0 }
  - { offset: 0xE143, size: 0x8, addend: 0x0, symName: __ZNSt3__16vectorIcNS_9allocatorIcEEE7__allocB8ne190107Ev, symObjAddr: 0x6E74, symBinAddr: 0x10000AD28, symSize: 0xC4 }
  - { offset: 0xE169, size: 0x8, addend: 0x0, symName: __ZNSt3__16vectorIcNS_9allocatorIcEEE21_ConstructTransactionD1B8ne190107Ev, symObjAddr: 0x6F54, symBinAddr: 0x10000AE08, symSize: 0x64 }
  - { offset: 0xE193, size: 0x8, addend: 0x0, symName: __ZNSt3__16vectorIcNS_9allocatorIcEEE21_ConstructTransactionC2B8ne190107ERS3_m, symObjAddr: 0x6FB8, symBinAddr: 0x10000AE6C, symSize: 0x34C }
  - { offset: 0xE1DB, size: 0x8, addend: 0x0, symName: __ZNKSt3__16vectorIcNS_9allocatorIcEEE19__annotate_increaseB8ne190107Em, symObjAddr: 0x7304, symBinAddr: 0x10000B1B8, symSize: 0x2B0 }
  - { offset: 0xE210, size: 0x8, addend: 0x0, symName: __ZNKSt3__16vectorIcNS_9allocatorIcEEE31__annotate_contiguous_containerB8ne190107EPKvS5_, symObjAddr: 0x75B4, symBinAddr: 0x10000B468, symSize: 0x144 }
  - { offset: 0xE254, size: 0x8, addend: 0x0, symName: __ZNKSt3__16vectorIcNS_9allocatorIcEEE4dataB8ne190107Ev, symObjAddr: 0x76F8, symBinAddr: 0x10000B5AC, symSize: 0xA0 }
  - { offset: 0xE27A, size: 0x8, addend: 0x0, symName: __ZNKSt3__16vectorIcNS_9allocatorIcEEE8capacityB8ne190107Ev, symObjAddr: 0x77EC, symBinAddr: 0x10000B6A0, symSize: 0x11C }
  - { offset: 0xE2A0, size: 0x8, addend: 0x0, symName: __ZNKSt3__16vectorIcNS_9allocatorIcEEE9__end_capB8ne190107Ev, symObjAddr: 0x7908, symBinAddr: 0x10000B7BC, symSize: 0xD8 }
  - { offset: 0xE2C6, size: 0x8, addend: 0x0, symName: __ZNKSt3__117__compressed_pairIPcNS_9allocatorIcEEE5firstB8ne190107Ev, symObjAddr: 0x79E0, symBinAddr: 0x10000B894, symSize: 0xEC }
  - { offset: 0xE2EC, size: 0x8, addend: 0x0, symName: __ZNKSt3__122__compressed_pair_elemIPcLi0ELb0EE5__getB8ne190107Ev, symObjAddr: 0x7ACC, symBinAddr: 0x10000B980, symSize: 0x8C }
  - { offset: 0xE312, size: 0x8, addend: 0x0, symName: __ZNSt3__117__compressed_pairIPcNS_9allocatorIcEEE6secondB8ne190107Ev, symObjAddr: 0x7D0C, symBinAddr: 0x10000BBC0, symSize: 0xC4 }
  - { offset: 0xE338, size: 0x8, addend: 0x0, symName: __ZNSt3__122__compressed_pair_elemINS_9allocatorIcEELi1ELb1EE5__getB8ne190107Ev, symObjAddr: 0x7DD0, symBinAddr: 0x10000BC84, symSize: 0x64 }
  - { offset: 0xE35E, size: 0x8, addend: 0x0, symName: __ZNSt3__16vectorIcNS_9allocatorIcEEE21_ConstructTransactionD2B8ne190107Ev, symObjAddr: 0x7E34, symBinAddr: 0x10000BCE8, symSize: 0x314 }
  - { offset: 0xE388, size: 0x8, addend: 0x0, symName: __ZNKSt3__16vectorIcNS_9allocatorIcEEE17__annotate_shrinkB8ne190107Em, symObjAddr: 0x8148, symBinAddr: 0x10000BFFC, symSize: 0x1F0 }
  - { offset: 0xE3BD, size: 0x8, addend: 0x0, symName: __ZNKSt3__16vectorIcNS_9allocatorIcEEE11__recommendB8ne190107Em, symObjAddr: 0x8338, symBinAddr: 0x10000C1EC, symSize: 0x378 }
  - { offset: 0xE417, size: 0x8, addend: 0x0, symName: __ZNSt3__114__split_bufferIcRNS_9allocatorIcEEEC1EmmS3_, symObjAddr: 0x86B0, symBinAddr: 0x10000C564, symSize: 0x7C }
  - { offset: 0xE46B, size: 0x8, addend: 0x0, symName: __ZNSt3__16vectorIcNS_9allocatorIcEEE26__swap_out_circular_bufferERNS_14__split_bufferIcRS2_EE, symObjAddr: 0x872C, symBinAddr: 0x10000C5E0, symSize: 0x654 }
  - { offset: 0xE4AF, size: 0x8, addend: 0x0, symName: __ZNSt3__114__split_bufferIcRNS_9allocatorIcEEED1Ev, symObjAddr: 0x8D80, symBinAddr: 0x10000CC34, symSize: 0x64 }
  - { offset: 0xE4D9, size: 0x8, addend: 0x0, symName: __ZNKSt3__16vectorIcNS_9allocatorIcEEE8max_sizeEv, symObjAddr: 0x8DE4, symBinAddr: 0x10000CC98, symSize: 0x2FC }
  - { offset: 0xE500, size: 0x8, addend: 0x0, symName: __ZNKSt3__16vectorIcNS_9allocatorIcEEE20__throw_length_errorB8ne190107Ev, symObjAddr: 0x90E0, symBinAddr: 0x10000CF94, symSize: 0x74 }
  - { offset: 0xE532, size: 0x8, addend: 0x0, symName: __ZNSt3__116allocator_traitsINS_9allocatorIcEEE8max_sizeB8ne190107IS2_vTnNS_9enable_ifIXntsr14__has_max_sizeIKT_EE5valueEiE4typeELi0EEEmRKS2_, symObjAddr: 0x9314, symBinAddr: 0x10000D1C8, symSize: 0x0 }
  - { offset: 0xE563, size: 0x8, addend: 0x0, symName: __ZNKSt3__16vectorIcNS_9allocatorIcEEE7__allocB8ne190107Ev, symObjAddr: 0x9368, symBinAddr: 0x10000D21C, symSize: 0xC4 }
  - { offset: 0xE589, size: 0x8, addend: 0x0, symName: __ZNSt3__114numeric_limitsIlE3maxB8ne190107Ev, symObjAddr: 0x9434, symBinAddr: 0x10000D2E8, symSize: 0x0 }
  - { offset: 0xE5A9, size: 0x8, addend: 0x0, symName: __ZNKSt3__16__lessIvvEclB8ne190107ImmEEbRKT_RKT0_, symObjAddr: 0x96C0, symBinAddr: 0x10000D574, symSize: 0xD0 }
  - { offset: 0xE5FD, size: 0x8, addend: 0x0, symName: __ZNSt3__114numeric_limitsImE3maxB8ne190107Ev, symObjAddr: 0x9798, symBinAddr: 0x10000D64C, symSize: 0x0 }
  - { offset: 0xE611, size: 0x8, addend: 0x0, symName: __ZNSt3__123__libcpp_numeric_limitsImLb1EE3maxB8ne190107Ev, symObjAddr: 0x97B4, symBinAddr: 0x10000D668, symSize: 0x0 }
  - { offset: 0xE625, size: 0x8, addend: 0x0, symName: __ZNKSt3__117__compressed_pairIPcNS_9allocatorIcEEE6secondB8ne190107Ev, symObjAddr: 0x97BC, symBinAddr: 0x10000D670, symSize: 0xC4 }
  - { offset: 0xE64B, size: 0x8, addend: 0x0, symName: __ZNKSt3__122__compressed_pair_elemINS_9allocatorIcEELi1ELb1EE5__getB8ne190107Ev, symObjAddr: 0x9880, symBinAddr: 0x10000D734, symSize: 0x64 }
  - { offset: 0xE671, size: 0x8, addend: 0x0, symName: __ZNSt3__123__libcpp_numeric_limitsIlLb1EE3maxB8ne190107Ev, symObjAddr: 0x98EC, symBinAddr: 0x10000D7A0, symSize: 0x0 }
  - { offset: 0xE685, size: 0x8, addend: 0x0, symName: __ZNSt12length_errorC1B8ne190107EPKc, symObjAddr: 0x99A0, symBinAddr: 0x10000D854, symSize: 0x6C }
  - { offset: 0xE6BD, size: 0x8, addend: 0x0, symName: __ZNSt12length_errorC2B8ne190107EPKc, symObjAddr: 0x9A0C, symBinAddr: 0x10000D8C0, symSize: 0x108 }
  - { offset: 0xE6F5, size: 0x8, addend: 0x0, symName: __ZNSt3__114__split_bufferIcRNS_9allocatorIcEEEC2EmmS3_, symObjAddr: 0x9D8C, symBinAddr: 0x10000DC40, symSize: 0x620 }
  - { offset: 0xE76E, size: 0x8, addend: 0x0, symName: __ZNSt3__117__compressed_pairIPcRNS_9allocatorIcEEEC1B8ne190107IDnS4_EEOT_OT0_, symObjAddr: 0xA3AC, symBinAddr: 0x10000E260, symSize: 0x74 }
  - { offset: 0xE7C6, size: 0x8, addend: 0x0, symName: __ZNSt3__114__split_bufferIcRNS_9allocatorIcEEE7__allocB8ne190107Ev, symObjAddr: 0xA468, symBinAddr: 0x10000E31C, symSize: 0xC4 }
  - { offset: 0xE7EC, size: 0x8, addend: 0x0, symName: __ZNSt3__114__split_bufferIcRNS_9allocatorIcEEE9__end_capB8ne190107Ev, symObjAddr: 0xA52C, symBinAddr: 0x10000E3E0, symSize: 0xD8 }
  - { offset: 0xE812, size: 0x8, addend: 0x0, symName: __ZNSt3__117__compressed_pairIPcRNS_9allocatorIcEEEC2B8ne190107IDnS4_EEOT_OT0_, symObjAddr: 0xA604, symBinAddr: 0x10000E4B8, symSize: 0x154 }
  - { offset: 0xE86A, size: 0x8, addend: 0x0, symName: __ZNSt3__122__compressed_pair_elemIRNS_9allocatorIcEELi1ELb0EEC2B8ne190107IS3_TnNS_9enable_ifIXntsr7is_sameIS4_u7__decayIT_EEE5valueEiE4typeELi0EEEOS7_, symObjAddr: 0xA758, symBinAddr: 0x10000E60C, symSize: 0xD4 }
  - { offset: 0xE8B1, size: 0x8, addend: 0x0, symName: __ZNSt3__19allocatorIcE8allocateB8ne190107Em, symObjAddr: 0xA82C, symBinAddr: 0x10000E6E0, symSize: 0xB8 }
  - { offset: 0xE8E5, size: 0x8, addend: 0x0, symName: __ZNSt3__117__compressed_pairIPcRNS_9allocatorIcEEE6secondB8ne190107Ev, symObjAddr: 0xAA80, symBinAddr: 0x10000E934, symSize: 0xE8 }
  - { offset: 0xE90B, size: 0x8, addend: 0x0, symName: __ZNSt3__122__compressed_pair_elemIRNS_9allocatorIcEELi1ELb0EE5__getB8ne190107Ev, symObjAddr: 0xAB68, symBinAddr: 0x10000EA1C, symSize: 0xC0 }
  - { offset: 0xE931, size: 0x8, addend: 0x0, symName: __ZNSt3__117__compressed_pairIPcRNS_9allocatorIcEEE5firstB8ne190107Ev, symObjAddr: 0xAC28, symBinAddr: 0x10000EADC, symSize: 0xEC }
  - { offset: 0xE957, size: 0x8, addend: 0x0, symName: __ZNKSt3__16vectorIcNS_9allocatorIcEEE17__annotate_deleteB8ne190107Ev, symObjAddr: 0xAD14, symBinAddr: 0x10000EBC8, symSize: 0x200 }
  - { offset: 0xE97D, size: 0x8, addend: 0x0, symName: __ZNKSt3__16vectorIcNS_9allocatorIcEEE14__annotate_newB8ne190107Em, symObjAddr: 0xB0FC, symBinAddr: 0x10000EFB0, symSize: 0x1F0 }
  - { offset: 0xE9B2, size: 0x8, addend: 0x0, symName: __ZNSt3__114__split_bufferIcRNS_9allocatorIcEEED2Ev, symObjAddr: 0xB2EC, symBinAddr: 0x10000F1A0, symSize: 0x144 }
  - { offset: 0xE9DC, size: 0x8, addend: 0x0, symName: __ZNSt3__114__split_bufferIcRNS_9allocatorIcEEE5clearB8ne190107Ev, symObjAddr: 0xB430, symBinAddr: 0x10000F2E4, symSize: 0xA4 }
  - { offset: 0xEA02, size: 0x8, addend: 0x0, symName: __ZNSt3__116allocator_traitsINS_9allocatorIcEEE10deallocateB8ne190107ERS2_Pcm, symObjAddr: 0xB4DC, symBinAddr: 0x10000F390, symSize: 0x0 }
  - { offset: 0xEA44, size: 0x8, addend: 0x0, symName: __ZNKSt3__114__split_bufferIcRNS_9allocatorIcEEE8capacityB8ne190107Ev, symObjAddr: 0xB510, symBinAddr: 0x10000F3C4, symSize: 0x11C }
  - { offset: 0xEA6A, size: 0x8, addend: 0x0, symName: __ZNSt3__114__split_bufferIcRNS_9allocatorIcEEE17__destruct_at_endB8ne190107EPc, symObjAddr: 0xB62C, symBinAddr: 0x10000F4E0, symSize: 0x64 }
  - { offset: 0xEA9E, size: 0x8, addend: 0x0, symName: __ZNSt3__114__split_bufferIcRNS_9allocatorIcEEE17__destruct_at_endB8ne190107EPcNS_17integral_constantIbLb0EEE, symObjAddr: 0xB690, symBinAddr: 0x10000F544, symSize: 0x1E8 }
  - { offset: 0xEADD, size: 0x8, addend: 0x0, symName: __ZNSt3__116allocator_traitsINS_9allocatorIcEEE7destroyB8ne190107IcvTnNS_9enable_ifIXntsr13__has_destroyIS2_PT_EE5valueEiE4typeELi0EEEvRS2_S7_, symObjAddr: 0xB880, symBinAddr: 0x10000F734, symSize: 0x0 }
  - { offset: 0xEB1D, size: 0x8, addend: 0x0, symName: __ZNSt3__19allocatorIcE10deallocateB8ne190107EPcm, symObjAddr: 0xB8C0, symBinAddr: 0x10000F774, symSize: 0x70 }
  - { offset: 0xEB5F, size: 0x8, addend: 0x0, symName: __ZNKSt3__114__split_bufferIcRNS_9allocatorIcEEE9__end_capB8ne190107Ev, symObjAddr: 0xBA78, symBinAddr: 0x10000F92C, symSize: 0xD8 }
  - { offset: 0xEB85, size: 0x8, addend: 0x0, symName: __ZNKSt3__117__compressed_pairIPcRNS_9allocatorIcEEE5firstB8ne190107Ev, symObjAddr: 0xBB50, symBinAddr: 0x10000FA04, symSize: 0xEC }
  - { offset: 0xEBAB, size: 0x8, addend: 0x0, symName: __ZNSt3__123mersenne_twister_engineIjLm32ELm624ELm397ELm31ELj2567483615ELm11ELj4294967295ELm7ELj2636928640ELm15ELj4022730752ELm18ELj1812433253EEclEv, symObjAddr: 0xBC3C, symBinAddr: 0x10000FAF0, symSize: 0xB44 }
  - { offset: 0xEC1E, size: 0x8, addend: 0x0, symName: __ZNSt3__123mersenne_twister_engineIjLm32ELm624ELm397ELm31ELj2567483615ELm11ELj4294967295ELm7ELj2636928640ELm15ELj4022730752ELm18ELj1812433253EE8__rshiftB8ne190107ILm1ETnNS_9enable_ifIXltT_L_ZNS1_3_DtEEEiE4typeELi0EEEjj, symObjAddr: 0xC788, symBinAddr: 0x10001063C, symSize: 0x0 }
  - { offset: 0xEC52, size: 0x8, addend: 0x0, symName: __ZNSt3__123mersenne_twister_engineIjLm32ELm624ELm397ELm31ELj2567483615ELm11ELj4294967295ELm7ELj2636928640ELm15ELj4022730752ELm18ELj1812433253EE8__rshiftB8ne190107ILm11ETnNS_9enable_ifIXltT_L_ZNS1_3_DtEEEiE4typeELi0EEEjj, symObjAddr: 0xC7E0, symBinAddr: 0x100010694, symSize: 0x0 }
  - { offset: 0xEC86, size: 0x8, addend: 0x0, symName: __ZNSt3__123mersenne_twister_engineIjLm32ELm624ELm397ELm31ELj2567483615ELm11ELj4294967295ELm7ELj2636928640ELm15ELj4022730752ELm18ELj1812433253EE8__lshiftB8ne190107ILm7ETnNS_9enable_ifIXltT_Lm32EEiE4typeELi0EEEjj, symObjAddr: 0xC838, symBinAddr: 0x1000106EC, symSize: 0x0 }
  - { offset: 0xECBA, size: 0x8, addend: 0x0, symName: __ZNSt3__123mersenne_twister_engineIjLm32ELm624ELm397ELm31ELj2567483615ELm11ELj4294967295ELm7ELj2636928640ELm15ELj4022730752ELm18ELj1812433253EE8__lshiftB8ne190107ILm15ETnNS_9enable_ifIXltT_Lm32EEiE4typeELi0EEEjj, symObjAddr: 0xC898, symBinAddr: 0x10001074C, symSize: 0x0 }
  - { offset: 0xECEE, size: 0x8, addend: 0x0, symName: __ZNSt3__123mersenne_twister_engineIjLm32ELm624ELm397ELm31ELj2567483615ELm11ELj4294967295ELm7ELj2636928640ELm15ELj4022730752ELm18ELj1812433253EE8__rshiftB8ne190107ILm18ETnNS_9enable_ifIXltT_L_ZNS1_3_DtEEEiE4typeELi0EEEjj, symObjAddr: 0xC8F8, symBinAddr: 0x1000107AC, symSize: 0x0 }
  - { offset: 0xED22, size: 0x8, addend: 0x0, symName: __ZNSt3__16vectorIcNS_9allocatorIcEEED2B8ne190107Ev, symObjAddr: 0xC948, symBinAddr: 0x1000107FC, symSize: 0x254 }
  - { offset: 0xED4D, size: 0x8, addend: 0x0, symName: __ZNSt3__16vectorIcNS_9allocatorIcEEE16__destroy_vectorC1B8ne190107ERS3_, symObjAddr: 0xCB9C, symBinAddr: 0x100010A50, symSize: 0x6C }
  - { offset: 0xED86, size: 0x8, addend: 0x0, symName: __ZNSt3__16vectorIcNS_9allocatorIcEEE16__destroy_vectorclB8ne190107Ev, symObjAddr: 0xCC08, symBinAddr: 0x100010ABC, symSize: 0x39C }
  - { offset: 0xEDAC, size: 0x8, addend: 0x0, symName: __ZNSt3__16vectorIcNS_9allocatorIcEEE16__destroy_vectorC2B8ne190107ERS3_, symObjAddr: 0xCFA4, symBinAddr: 0x100010E58, symSize: 0xE8 }
  - { offset: 0xEDE5, size: 0x8, addend: 0x0, symName: __ZNSt3__16vectorIcNS_9allocatorIcEEE7__clearB8ne190107Ev, symObjAddr: 0xD08C, symBinAddr: 0x100010F40, symSize: 0xA0 }
  - { offset: 0xEE0B, size: 0x8, addend: 0x0, symName: __ZNSt3__16vectorIcNS_9allocatorIcEEE22__base_destruct_at_endB8ne190107EPc, symObjAddr: 0xD12C, symBinAddr: 0x100010FE0, symSize: 0x1C8 }
  - { offset: 0xEE4F, size: 0x8, addend: 0x0, symName: __ZNSt3__123mersenne_twister_engineIjLm32ELm624ELm397ELm31ELj2567483615ELm11ELj4294967295ELm7ELj2636928640ELm15ELj4022730752ELm18ELj1812433253EE4seedEj, symObjAddr: 0xD2F4, symBinAddr: 0x1000111A8, symSize: 0x5F4 }
  - { offset: 0xEEA2, size: 0x8, addend: 0x0, symName: __ZNSt3__123mersenne_twister_engineIjLm32ELm624ELm397ELm31ELj2567483615ELm11ELj4294967295ELm7ELj2636928640ELm15ELj4022730752ELm18ELj1812433253EE8__rshiftB8ne190107ILm30ETnNS_9enable_ifIXltT_L_ZNS1_3_DtEEEiE4typeELi0EEEjj, symObjAddr: 0xD8F0, symBinAddr: 0x1000117A4, symSize: 0x0 }
  - { offset: 0xEED6, size: 0x8, addend: 0x0, symName: __ZNSt3__112basic_stringIcNS_11char_traitsIcEENS_9allocatorIcEEEC2B8ne190107Ev, symObjAddr: 0xD940, symBinAddr: 0x1000117F4, symSize: 0x240 }
  - { offset: 0xEF07, size: 0x8, addend: 0x0, symName: __ZNSt3__117__compressed_pairINS_12basic_stringIcNS_11char_traitsIcEENS_9allocatorIcEEE5__repES5_EC1B8ne190107INS_16__value_init_tagENS_18__default_init_tagEEEOT_OT0_, symObjAddr: 0xDB80, symBinAddr: 0x100011A34, symSize: 0x74 }
  - { offset: 0xEF5F, size: 0x8, addend: 0x0, symName: __ZNKSt3__112basic_stringIcNS_11char_traitsIcEENS_9allocatorIcEEE14__annotate_newB8ne190107Em, symObjAddr: 0xDBF4, symBinAddr: 0x100011AA8, symSize: 0x58 }
  - { offset: 0xEF94, size: 0x8, addend: 0x0, symName: __ZNSt3__117__compressed_pairINS_12basic_stringIcNS_11char_traitsIcEENS_9allocatorIcEEE5__repES5_EC2B8ne190107INS_16__value_init_tagENS_18__default_init_tagEEEOT_OT0_, symObjAddr: 0xDC4C, symBinAddr: 0x100011B00, symSize: 0xC8 }
  - { offset: 0xEFEC, size: 0x8, addend: 0x0, symName: __ZNSt3__122__compressed_pair_elemINS_12basic_stringIcNS_11char_traitsIcEENS_9allocatorIcEEE5__repELi0ELb0EEC2B8ne190107ENS_16__value_init_tagE, symObjAddr: 0xDD14, symBinAddr: 0x100011BC8, symSize: 0x6C }
  - { offset: 0xF021, size: 0x8, addend: 0x0, symName: __ZNSt3__123mersenne_twister_engineIjLm32ELm624ELm397ELm31ELj2567483615ELm11ELj4294967295ELm7ELj2636928640ELm15ELj4022730752ELm18ELj1812433253EEC1B8ne190107Ej, symObjAddr: 0xDD80, symBinAddr: 0x100011C34, symSize: 0x6C }
  - { offset: 0xF059, size: 0x8, addend: 0x0, symName: __ZNSt3__123mersenne_twister_engineIjLm32ELm624ELm397ELm31ELj2567483615ELm11ELj4294967295ELm7ELj2636928640ELm15ELj4022730752ELm18ELj1812433253EEC2B8ne190107Ej, symObjAddr: 0xDDEC, symBinAddr: 0x100011CA0, symSize: 0x6C }
  - { offset: 0xF091, size: 0x8, addend: 0x0, symName: __ZNKSt3__121__murmur2_or_cityhashImLm64EEclB8ne190107EPKvm, symObjAddr: 0xE02C, symBinAddr: 0x100011EE0, symSize: 0x13BC }
  - { offset: 0xF13D, size: 0x8, addend: 0x0, symName: __ZNSt3__121__murmur2_or_cityhashImLm64EE18__hash_len_0_to_16B8ne190107EPKcm, symObjAddr: 0xF3F0, symBinAddr: 0x1000132A4, symSize: 0x0 }
  - { offset: 0xF21B, size: 0x8, addend: 0x0, symName: __ZNSt3__121__murmur2_or_cityhashImLm64EE19__hash_len_17_to_32B8ne190107EPKcm, symObjAddr: 0xFB7C, symBinAddr: 0x100013A30, symSize: 0x0 }
  - { offset: 0xF284, size: 0x8, addend: 0x0, symName: __ZNSt3__121__murmur2_or_cityhashImLm64EE19__hash_len_33_to_64B8ne190107EPKcm, symObjAddr: 0xFF9C, symBinAddr: 0x100013E50, symSize: 0x0 }
  - { offset: 0xF338, size: 0x8, addend: 0x0, symName: __ZNSt3__121__murmur2_or_cityhashImLm64EE13__hash_len_16B8ne190107Emm, symObjAddr: 0x10A80, symBinAddr: 0x100014934, symSize: 0x0 }
  - { offset: 0xF393, size: 0x8, addend: 0x0, symName: __ZNSt3__121__murmur2_or_cityhashImLm64EE29__weak_hash_len_32_with_seedsB8ne190107EPKcmm, symObjAddr: 0x10B78, symBinAddr: 0x100014A2C, symSize: 0x0 }
  - { offset: 0xF3D2, size: 0x8, addend: 0x0, symName: __ZNSt3__121__murmur2_or_cityhashImLm64EE8__rotateB8ne190107Emi, symObjAddr: 0x10DA0, symBinAddr: 0x100014C54, symSize: 0x0 }
  - { offset: 0xF403, size: 0x8, addend: 0x0, symName: __ZNSt3__14pairImmEaSB8ne190107EOS1_, symObjAddr: 0x10EB0, symBinAddr: 0x100014D64, symSize: 0x208 }
  - { offset: 0xF438, size: 0x8, addend: 0x0, symName: __ZNSt3__121__murmur2_or_cityhashImLm64EE11__shift_mixB8ne190107Em, symObjAddr: 0x11258, symBinAddr: 0x10001510C, symSize: 0x0 }
  - { offset: 0xF45B, size: 0x8, addend: 0x0, symName: __ZNSt3__121__murmur2_or_cityhashImLm64EE22__rotate_by_at_least_1B8ne190107Emi, symObjAddr: 0x112BC, symBinAddr: 0x100015170, symSize: 0x0 }
  - { offset: 0xF48C, size: 0x8, addend: 0x0, symName: __ZNSt3__121__murmur2_or_cityhashImLm64EE29__weak_hash_len_32_with_seedsB8ne190107Emmmmmm, symObjAddr: 0x113E8, symBinAddr: 0x10001529C, symSize: 0x0 }
  - { offset: 0xF510, size: 0x8, addend: 0x0, symName: __ZNSt3__14pairImmEC1B8ne190107ImmTnNS_9enable_ifIXclsr10_CheckArgsE23__is_pair_constructibleIT_T0_EEEiE4typeELi0EEEOS4_OS5_, symObjAddr: 0x116B4, symBinAddr: 0x100015568, symSize: 0x74 }
  - { offset: 0xF56E, size: 0x8, addend: 0x0, symName: __ZNSt3__14pairImmEC2B8ne190107ImmTnNS_9enable_ifIXclsr10_CheckArgsE23__is_pair_constructibleIT_T0_EEEiE4typeELi0EEEOS4_OS5_, symObjAddr: 0x11728, symBinAddr: 0x1000155DC, symSize: 0x1D8 }
  - { offset: 0xF5CC, size: 0x8, addend: 0x0, symName: __ZNSt3__18_IterOpsINS_17_ClassicAlgPolicyEE4nextB8ne190107INS_11__wrap_iterIPcEEEET_S7_S7_, symObjAddr: 0x11D6C, symBinAddr: 0x100015C20, symSize: 0x0 }
  - { offset: 0xF603, size: 0x8, addend: 0x0, symName: __ZNSt3__124uniform_int_distributionIlEC1B8ne190107Ev, symObjAddr: 0x11E38, symBinAddr: 0x100015CEC, symSize: 0x70 }
  - { offset: 0xF62D, size: 0x8, addend: 0x0, symName: __ZNSt3__111__wrap_iterIPcEmmB8ne190107Ev, symObjAddr: 0x11EA8, symBinAddr: 0x100015D5C, symSize: 0x178 }
  - { offset: 0xF653, size: 0x8, addend: 0x0, symName: __ZNSt3__124uniform_int_distributionIlE10param_typeC1B8ne190107Ell, symObjAddr: 0x125C0, symBinAddr: 0x100016474, symSize: 0x74 }
  - { offset: 0xF69F, size: 0x8, addend: 0x0, symName: __ZNSt3__18_IterOpsINS_17_ClassicAlgPolicyEE9iter_swapB8ne190107IRNS_11__wrap_iterIPcEES6_EEvOT_OT0_, symObjAddr: 0x1263C, symBinAddr: 0x1000164F0, symSize: 0x0 }
  - { offset: 0xF6E2, size: 0x8, addend: 0x0, symName: __ZNKSt3__111__wrap_iterIPcEplB8ne190107El, symObjAddr: 0x1268C, symBinAddr: 0x100016540, symSize: 0x1F8 }
  - { offset: 0xF72A, size: 0x8, addend: 0x0, symName: __ZNSt3__111__wrap_iterIPcEppB8ne190107Ev, symObjAddr: 0x12884, symBinAddr: 0x100016738, symSize: 0x178 }
  - { offset: 0xF750, size: 0x8, addend: 0x0, symName: __ZNKSt3__111__wrap_iterIPcE4baseB8ne190107Ev, symObjAddr: 0x129FC, symBinAddr: 0x1000168B0, symSize: 0x9C }
  - { offset: 0xF776, size: 0x8, addend: 0x0, symName: __ZNSt3__124uniform_int_distributionIlEC1B8ne190107Ell, symObjAddr: 0x12A98, symBinAddr: 0x10001694C, symSize: 0x74 }
  - { offset: 0xF7BC, size: 0x8, addend: 0x0, symName: __ZNSt3__124uniform_int_distributionIlEC2B8ne190107Ell, symObjAddr: 0x12B0C, symBinAddr: 0x1000169C0, symSize: 0x74 }
  - { offset: 0xF802, size: 0x8, addend: 0x0, symName: __ZNKSt3__124uniform_int_distributionIlE10param_type1bB8ne190107Ev, symObjAddr: 0x12B80, symBinAddr: 0x100016A34, symSize: 0xA0 }
  - { offset: 0xF828, size: 0x8, addend: 0x0, symName: __ZNKSt3__124uniform_int_distributionIlE10param_type1aB8ne190107Ev, symObjAddr: 0x12C20, symBinAddr: 0x100016AD4, symSize: 0x9C }
  - { offset: 0xF84E, size: 0x8, addend: 0x0, symName: __ZNSt3__125__independent_bits_engineINS_23mersenne_twister_engineIjLm32ELm624ELm397ELm31ELj2567483615ELm11ELj4294967295ELm7ELj2636928640ELm15ELj4022730752ELm18ELj1812433253EEEmEC1ERS2_m, symObjAddr: 0x12CBC, symBinAddr: 0x100016B70, symSize: 0x74 }
  - { offset: 0xF894, size: 0x8, addend: 0x0, symName: __ZNSt3__125__independent_bits_engineINS_23mersenne_twister_engineIjLm32ELm624ELm397ELm31ELj2567483615ELm11ELj4294967295ELm7ELj2636928640ELm15ELj4022730752ELm18ELj1812433253EEEmEclB8ne190107Ev, symObjAddr: 0x12D30, symBinAddr: 0x100016BE4, symSize: 0x5C }
  - { offset: 0xF8BA, size: 0x8, addend: 0x0, symName: __ZNSt3__125__independent_bits_engineINS_23mersenne_twister_engineIjLm32ELm624ELm397ELm31ELj2567483615ELm11ELj4294967295ELm7ELj2636928640ELm15ELj4022730752ELm18ELj1812433253EEEmEC2ERS2_m, symObjAddr: 0x12DBC, symBinAddr: 0x100016C70, symSize: 0xD38 }
  - { offset: 0xF900, size: 0x8, addend: 0x0, symName: __ZNSt3__125__independent_bits_engineINS_23mersenne_twister_engineIjLm32ELm624ELm397ELm31ELj2567483615ELm11ELj4294967295ELm7ELj2636928640ELm15ELj4022730752ELm18ELj1812433253EEEmE6__evalENS_17integral_constantIbLb1EEE, symObjAddr: 0x13AF4, symBinAddr: 0x1000179A8, symSize: 0x5BC }
  - { offset: 0xF9BF, size: 0x8, addend: 0x0, symName: __ZNSt3__123mersenne_twister_engineIjLm32ELm624ELm397ELm31ELj2567483615ELm11ELj4294967295ELm7ELj2636928640ELm15ELj4022730752ELm18ELj1812433253EE3minB8ne190107Ev, symObjAddr: 0x140B8, symBinAddr: 0x100017F6C, symSize: 0x0 }
  - { offset: 0xF9D3, size: 0x8, addend: 0x0, symName: __ZNSt3__124uniform_int_distributionIlE10param_typeC2B8ne190107Ell, symObjAddr: 0x140C0, symBinAddr: 0x100017F74, symSize: 0xF8 }
  - { offset: 0xFA19, size: 0x8, addend: 0x0, symName: __ZNKSt3__111__wrap_iterIPcEdeB8ne190107Ev, symObjAddr: 0x145D0, symBinAddr: 0x100018484, symSize: 0xC0 }
  - { offset: 0xFA3F, size: 0x8, addend: 0x0, symName: __ZNSt3__111__wrap_iterIPcEpLB8ne190107El, symObjAddr: 0x14690, symBinAddr: 0x100018544, symSize: 0x1D4 }
  - { offset: 0xFA97, size: 0x8, addend: 0x0, symName: __ZNKSt3__113basic_ostreamIcNS_11char_traitsIcEEE6sentrycvbB8ne190107Ev, symObjAddr: 0x15630, symBinAddr: 0x1000194E4, symSize: 0xE8 }
  - { offset: 0xFABD, size: 0x8, addend: 0x0, symName: __ZNSt3__119ostreambuf_iteratorIcNS_11char_traitsIcEEEC1B8ne190107ERNS_13basic_ostreamIcS2_EE, symObjAddr: 0x15F70, symBinAddr: 0x100019E24, symSize: 0x6C }
  - { offset: 0xFAF5, size: 0x8, addend: 0x0, symName: __ZNKSt3__18ios_base5flagsB8ne190107Ev, symObjAddr: 0x15FDC, symBinAddr: 0x100019E90, symSize: 0x130 }
  - { offset: 0xFB1D, size: 0x8, addend: 0x0, symName: __ZNKSt3__19basic_iosIcNS_11char_traitsIcEEE4fillB8ne190107Ev, symObjAddr: 0x1610C, symBinAddr: 0x100019FC0, symSize: 0x288 }
  - { offset: 0xFB43, size: 0x8, addend: 0x0, symName: __ZNKSt3__119ostreambuf_iteratorIcNS_11char_traitsIcEEE6failedB8ne190107Ev, symObjAddr: 0x16394, symBinAddr: 0x10001A248, symSize: 0xA4 }
  - { offset: 0xFB69, size: 0x8, addend: 0x0, symName: __ZNSt3__19basic_iosIcNS_11char_traitsIcEEE8setstateB8ne190107Ej, symObjAddr: 0x16438, symBinAddr: 0x10001A2EC, symSize: 0x100 }
  - { offset: 0xFB9E, size: 0x8, addend: 0x0, symName: __ZNKSt3__18ios_base5widthB8ne190107Ev, symObjAddr: 0x16538, symBinAddr: 0x10001A3EC, symSize: 0x10C }
  - { offset: 0xFBC6, size: 0x8, addend: 0x0, symName: __ZNSt3__115basic_streambufIcNS_11char_traitsIcEEE5sputnB8ne190107EPKcl, symObjAddr: 0x16644, symBinAddr: 0x10001A4F8, symSize: 0x164 }
  - { offset: 0xFC08, size: 0x8, addend: 0x0, symName: __ZNSt3__112basic_stringIcNS_11char_traitsIcEENS_9allocatorIcEEEC1B8ne190107Emc, symObjAddr: 0x167A8, symBinAddr: 0x10001A65C, symSize: 0x74 }
  - { offset: 0xFC50, size: 0x8, addend: 0x0, symName: __ZNSt3__112basic_stringIcNS_11char_traitsIcEENS_9allocatorIcEEE4dataB8ne190107Ev, symObjAddr: 0x1681C, symBinAddr: 0x10001A6D0, symSize: 0x60 }
  - { offset: 0xFC76, size: 0x8, addend: 0x0, symName: __ZNSt3__18ios_base5widthB8ne190107El, symObjAddr: 0x1687C, symBinAddr: 0x10001A730, symSize: 0x1B8 }
  - { offset: 0xFCBC, size: 0x8, addend: 0x0, symName: __ZNSt3__112basic_stringIcNS_11char_traitsIcEENS_9allocatorIcEEEC2B8ne190107Emc, symObjAddr: 0x16A34, symBinAddr: 0x10001A8E8, symSize: 0x238 }
  - { offset: 0xFD07, size: 0x8, addend: 0x0, symName: __ZNSt3__119ostreambuf_iteratorIcNS_11char_traitsIcEEEC2B8ne190107ERNS_13basic_ostreamIcS2_EE, symObjAddr: 0x16C6C, symBinAddr: 0x10001AB20, symSize: 0x288 }
  - { offset: 0xFD3F, size: 0x8, addend: 0x0, symName: __ZNKSt3__19basic_iosIcNS_11char_traitsIcEEE5rdbufB8ne190107Ev, symObjAddr: 0x16EF4, symBinAddr: 0x10001ADA8, symSize: 0xF8 }
  - { offset: 0xFD65, size: 0x8, addend: 0x0, symName: __ZNKSt3__18ios_base5rdbufB8ne190107Ev, symObjAddr: 0x16FEC, symBinAddr: 0x10001AEA0, symSize: 0x10C }
  - { offset: 0xFD8B, size: 0x8, addend: 0x0, symName: __ZNKSt3__118_SentinelValueFillINS_11char_traitsIcEEE8__is_setB8ne190107Ev, symObjAddr: 0x170F8, symBinAddr: 0x10001AFAC, symSize: 0x108 }
  - { offset: 0xFDB1, size: 0x8, addend: 0x0, symName: __ZNKSt3__19basic_iosIcNS_11char_traitsIcEEE5widenB8ne190107Ec, symObjAddr: 0x17200, symBinAddr: 0x10001B0B4, symSize: 0x404 }
  - { offset: 0xFDE8, size: 0x8, addend: 0x0, symName: __ZNSt3__118_SentinelValueFillINS_11char_traitsIcEEEaSB8ne190107Ei, symObjAddr: 0x17604, symBinAddr: 0x10001B4B8, symSize: 0x124 }
  - { offset: 0xFE1D, size: 0x8, addend: 0x0, symName: __ZNKSt3__118_SentinelValueFillINS_11char_traitsIcEEE5__getB8ne190107Ev, symObjAddr: 0x17728, symBinAddr: 0x10001B5DC, symSize: 0xF4 }
  - { offset: 0xFE43, size: 0x8, addend: 0x0, symName: __ZNSt3__111char_traitsIcE3eofB8ne190107Ev, symObjAddr: 0x17824, symBinAddr: 0x10001B6D8, symSize: 0x0 }
  - { offset: 0xFE9E, size: 0x8, addend: 0x0, symName: __ZNKSt3__15ctypeIcE5widenB8ne190107Ec, symObjAddr: 0x17980, symBinAddr: 0x10001B834, symSize: 0x154 }
  - { offset: 0xFED3, size: 0x8, addend: 0x0, symName: __ZNSt3__18ios_base8setstateB8ne190107Ej, symObjAddr: 0x17AD4, symBinAddr: 0x10001B988, symSize: 0x1A4 }
  - { offset: 0xFF0A, size: 0x8, addend: 0x0, symName: __ZNSt3__113unordered_setINS_12basic_stringIcNS_11char_traitsIcEENS_9allocatorIcEEEENS_4hashIS6_EENS_8equal_toIS6_EENS4_IS6_EEEC2EmRKS8_RKSA_, symObjAddr: 0x17C78, symBinAddr: 0x10001BB2C, symSize: 0x128 }
  - { offset: 0xFF63, size: 0x8, addend: 0x0, symName: __ZNSt3__112__hash_tableINS_12basic_stringIcNS_11char_traitsIcEENS_9allocatorIcEEEENS_4hashIS6_EENS_8equal_toIS6_EENS4_IS6_EEEC1ERKS8_RKSA_, symObjAddr: 0x17DA0, symBinAddr: 0x10001BC54, symSize: 0x74 }
  - { offset: 0xFFAD, size: 0x8, addend: 0x0, symName: __ZNSt3__112__hash_tableINS_12basic_stringIcNS_11char_traitsIcEENS_9allocatorIcEEEENS_4hashIS6_EENS_8equal_toIS6_EENS4_IS6_EEE15__rehash_uniqueB8ne190107Em, symObjAddr: 0x17E14, symBinAddr: 0x10001BCC8, symSize: 0x64 }
  - { offset: 0xFFE2, size: 0x8, addend: 0x0, symName: __ZNSt3__112__hash_tableINS_12basic_stringIcNS_11char_traitsIcEENS_9allocatorIcEEEENS_4hashIS6_EENS_8equal_toIS6_EENS4_IS6_EEED1Ev, symObjAddr: 0x17E78, symBinAddr: 0x10001BD2C, symSize: 0x64 }
  - { offset: 0x1000E, size: 0x8, addend: 0x0, symName: __ZNSt3__112__hash_tableINS_12basic_stringIcNS_11char_traitsIcEENS_9allocatorIcEEEENS_4hashIS6_EENS_8equal_toIS6_EENS4_IS6_EEEC2ERKS8_RKSA_, symObjAddr: 0x17EDC, symBinAddr: 0x10001BD90, symSize: 0x404 }
  - { offset: 0x1005B, size: 0x8, addend: 0x0, symName: __ZNSt3__125__bucket_list_deallocatorINS_9allocatorIPNS_16__hash_node_baseIPNS_11__hash_nodeINS_12basic_stringIcNS_11char_traitsIcEENS1_IcEEEEPvEEEEEEEC1B8ne190107Ev, symObjAddr: 0x182E0, symBinAddr: 0x10001C194, symSize: 0x64 }
  - { offset: 0x10085, size: 0x8, addend: 0x0, symName: __ZNSt3__110unique_ptrIA_PNS_16__hash_node_baseIPNS_11__hash_nodeINS_12basic_stringIcNS_11char_traitsIcEENS_9allocatorIcEEEEPvEEEENS_25__bucket_list_deallocatorINS6_ISD_EEEEEC1B8ne190107ILb1EvEEDnNS_16__dependent_typeINS_27__unique_ptr_deleter_sfinaeISH_EEXT_EE20__good_rval_ref_typeE, symObjAddr: 0x18344, symBinAddr: 0x10001C1F8, symSize: 0x74 }
  - { offset: 0x100D5, size: 0x8, addend: 0x0, symName: __ZNSt3__117__compressed_pairINS_16__hash_node_baseIPNS_11__hash_nodeINS_12basic_stringIcNS_11char_traitsIcEENS_9allocatorIcEEEEPvEEEENS6_ISA_EEEC1B8ne190107ILb1ETnNS_9enable_ifIXaasr16__dependent_typeINS_24is_default_constructibleISC_EEXT_EEE5valuesr16__dependent_typeINSH_ISD_EEXT_EEE5valueEiE4typeELi0EEEv, symObjAddr: 0x183B8, symBinAddr: 0x10001C26C, symSize: 0x64 }
  - { offset: 0x10115, size: 0x8, addend: 0x0, symName: __ZNSt3__117__compressed_pairImNS_4hashINS_12basic_stringIcNS_11char_traitsIcEENS_9allocatorIcEEEEEEEC1B8ne190107IiRKS8_EEOT_OT0_, symObjAddr: 0x1841C, symBinAddr: 0x10001C2D0, symSize: 0x74 }
  - { offset: 0x10173, size: 0x8, addend: 0x0, symName: __ZNSt3__117__compressed_pairIfNS_8equal_toINS_12basic_stringIcNS_11char_traitsIcEENS_9allocatorIcEEEEEEEC1B8ne190107IfRKS8_EEOT_OT0_, symObjAddr: 0x18490, symBinAddr: 0x10001C344, symSize: 0x74 }
  - { offset: 0x101CB, size: 0x8, addend: 0x0, symName: __ZNSt3__110unique_ptrIA_PNS_16__hash_node_baseIPNS_11__hash_nodeINS_12basic_stringIcNS_11char_traitsIcEENS_9allocatorIcEEEEPvEEEENS_25__bucket_list_deallocatorINS6_ISD_EEEEED1B8ne190107Ev, symObjAddr: 0x18504, symBinAddr: 0x10001C3B8, symSize: 0x64 }
  - { offset: 0x101F5, size: 0x8, addend: 0x0, symName: __ZNSt3__125__bucket_list_deallocatorINS_9allocatorIPNS_16__hash_node_baseIPNS_11__hash_nodeINS_12basic_stringIcNS_11char_traitsIcEENS1_IcEEEEPvEEEEEEEC2B8ne190107Ev, symObjAddr: 0x18568, symBinAddr: 0x10001C41C, symSize: 0x23C }
  - { offset: 0x10220, size: 0x8, addend: 0x0, symName: __ZNSt3__117__compressed_pairImNS_9allocatorIPNS_16__hash_node_baseIPNS_11__hash_nodeINS_12basic_stringIcNS_11char_traitsIcEENS1_IcEEEEPvEEEEEEEC1B8ne190107IiNS_18__default_init_tagEEEOT_OT0_, symObjAddr: 0x187A4, symBinAddr: 0x10001C658, symSize: 0x74 }
  - { offset: 0x10278, size: 0x8, addend: 0x0, symName: __ZNSt3__117__compressed_pairImNS_9allocatorIPNS_16__hash_node_baseIPNS_11__hash_nodeINS_12basic_stringIcNS_11char_traitsIcEENS1_IcEEEEPvEEEEEEEC2B8ne190107IiNS_18__default_init_tagEEEOT_OT0_, symObjAddr: 0x18818, symBinAddr: 0x10001C6CC, symSize: 0x104 }
  - { offset: 0x102D0, size: 0x8, addend: 0x0, symName: __ZNSt3__122__compressed_pair_elemImLi0ELb0EEC2B8ne190107IiTnNS_9enable_ifIXntsr7is_sameIS1_u7__decayIT_EEE5valueEiE4typeELi0EEEOS4_, symObjAddr: 0x1891C, symBinAddr: 0x10001C7D0, symSize: 0x148 }
  - { offset: 0x10317, size: 0x8, addend: 0x0, symName: __ZNSt3__122__compressed_pair_elemINS_9allocatorIPNS_16__hash_node_baseIPNS_11__hash_nodeINS_12basic_stringIcNS_11char_traitsIcEENS1_IcEEEEPvEEEEEELi1ELb1EEC2B8ne190107ENS_18__default_init_tagE, symObjAddr: 0x18A64, symBinAddr: 0x10001C918, symSize: 0x70 }
  - { offset: 0x1034C, size: 0x8, addend: 0x0, symName: __ZNSt3__19allocatorIPNS_16__hash_node_baseIPNS_11__hash_nodeINS_12basic_stringIcNS_11char_traitsIcEENS0_IcEEEEPvEEEEEC2B8ne190107Ev, symObjAddr: 0x18AD4, symBinAddr: 0x10001C988, symSize: 0x70 }
  - { offset: 0x10376, size: 0x8, addend: 0x0, symName: __ZNSt3__116__non_trivial_ifILb1ENS_9allocatorIPNS_16__hash_node_baseIPNS_11__hash_nodeINS_12basic_stringIcNS_11char_traitsIcEENS1_IcEEEEPvEEEEEEEC2B8ne190107Ev, symObjAddr: 0x18B44, symBinAddr: 0x10001C9F8, symSize: 0x48 }
  - { offset: 0x103A0, size: 0x8, addend: 0x0, symName: __ZNSt3__110unique_ptrIA_PNS_16__hash_node_baseIPNS_11__hash_nodeINS_12basic_stringIcNS_11char_traitsIcEENS_9allocatorIcEEEEPvEEEENS_25__bucket_list_deallocatorINS6_ISD_EEEEEC2B8ne190107ILb1EvEEDnNS_16__dependent_typeINS_27__unique_ptr_deleter_sfinaeISH_EEXT_EE20__good_rval_ref_typeE, symObjAddr: 0x18B8C, symBinAddr: 0x10001CA40, symSize: 0x260 }
  - { offset: 0x103F3, size: 0x8, addend: 0x0, symName: __ZNSt3__117__compressed_pairIPPNS_16__hash_node_baseIPNS_11__hash_nodeINS_12basic_stringIcNS_11char_traitsIcEENS_9allocatorIcEEEEPvEEEENS_25__bucket_list_deallocatorINS6_ISD_EEEEEC1B8ne190107IDnSH_EEOT_OT0_, symObjAddr: 0x18DEC, symBinAddr: 0x10001CCA0, symSize: 0x74 }
  - { offset: 0x1044B, size: 0x8, addend: 0x0, symName: __ZNSt3__117__compressed_pairIPPNS_16__hash_node_baseIPNS_11__hash_nodeINS_12basic_stringIcNS_11char_traitsIcEENS_9allocatorIcEEEEPvEEEENS_25__bucket_list_deallocatorINS6_ISD_EEEEEC2B8ne190107IDnSH_EEOT_OT0_, symObjAddr: 0x18E60, symBinAddr: 0x10001CD14, symSize: 0x168 }
  - { offset: 0x104A3, size: 0x8, addend: 0x0, symName: __ZNSt3__122__compressed_pair_elemIPPNS_16__hash_node_baseIPNS_11__hash_nodeINS_12basic_stringIcNS_11char_traitsIcEENS_9allocatorIcEEEEPvEEEELi0ELb0EEC2B8ne190107IDnTnNS_9enable_ifIXntsr7is_sameISF_u7__decayIT_EEE5valueEiE4typeELi0EEEOSI_, symObjAddr: 0x18FC8, symBinAddr: 0x10001CE7C, symSize: 0xAC }
  - { offset: 0x104EA, size: 0x8, addend: 0x0, symName: __ZNSt3__122__compressed_pair_elemINS_25__bucket_list_deallocatorINS_9allocatorIPNS_16__hash_node_baseIPNS_11__hash_nodeINS_12basic_stringIcNS_11char_traitsIcEENS2_IcEEEEPvEEEEEEEELi1ELb0EEC2B8ne190107ISG_TnNS_9enable_ifIXntsr7is_sameISH_u7__decayIT_EEE5valueEiE4typeELi0EEEOSK_, symObjAddr: 0x19074, symBinAddr: 0x10001CF28, symSize: 0xA4 }
  - { offset: 0x10531, size: 0x8, addend: 0x0, symName: __ZNSt3__125__bucket_list_deallocatorINS_9allocatorIPNS_16__hash_node_baseIPNS_11__hash_nodeINS_12basic_stringIcNS_11char_traitsIcEENS1_IcEEEEPvEEEEEEEC1B8ne190107EOSF_, symObjAddr: 0x19118, symBinAddr: 0x10001CFCC, symSize: 0x6C }
  - { offset: 0x1056A, size: 0x8, addend: 0x0, symName: __ZNSt3__125__bucket_list_deallocatorINS_9allocatorIPNS_16__hash_node_baseIPNS_11__hash_nodeINS_12basic_stringIcNS_11char_traitsIcEENS1_IcEEEEPvEEEEEEEC2B8ne190107EOSF_, symObjAddr: 0x19184, symBinAddr: 0x10001D038, symSize: 0x11C }
  - { offset: 0x105A3, size: 0x8, addend: 0x0, symName: __ZNSt3__125__bucket_list_deallocatorINS_9allocatorIPNS_16__hash_node_baseIPNS_11__hash_nodeINS_12basic_stringIcNS_11char_traitsIcEENS1_IcEEEEPvEEEEEEE4sizeB8ne190107Ev, symObjAddr: 0x192A0, symBinAddr: 0x10001D154, symSize: 0xC8 }
  - { offset: 0x105C9, size: 0x8, addend: 0x0, symName: __ZNSt3__117__compressed_pairImNS_9allocatorIPNS_16__hash_node_baseIPNS_11__hash_nodeINS_12basic_stringIcNS_11char_traitsIcEENS1_IcEEEEPvEEEEEEE5firstB8ne190107Ev, symObjAddr: 0x19368, symBinAddr: 0x10001D21C, symSize: 0xEC }
  - { offset: 0x105EF, size: 0x8, addend: 0x0, symName: __ZNSt3__122__compressed_pair_elemImLi0ELb0EE5__getB8ne190107Ev, symObjAddr: 0x19454, symBinAddr: 0x10001D308, symSize: 0x8C }
  - { offset: 0x10615, size: 0x8, addend: 0x0, symName: __ZNSt3__117__compressed_pairINS_16__hash_node_baseIPNS_11__hash_nodeINS_12basic_stringIcNS_11char_traitsIcEENS_9allocatorIcEEEEPvEEEENS6_ISA_EEEC2B8ne190107ILb1ETnNS_9enable_ifIXaasr16__dependent_typeINS_24is_default_constructibleISC_EEXT_EEE5valuesr16__dependent_typeINSH_ISD_EEXT_EEE5valueEiE4typeELi0EEEv, symObjAddr: 0x194E0, symBinAddr: 0x10001D394, symSize: 0xC0 }
  - { offset: 0x1064F, size: 0x8, addend: 0x0, symName: __ZNSt3__122__compressed_pair_elemINS_16__hash_node_baseIPNS_11__hash_nodeINS_12basic_stringIcNS_11char_traitsIcEENS_9allocatorIcEEEEPvEEEELi0ELb0EEC2B8ne190107ENS_16__value_init_tagE, symObjAddr: 0x195A0, symBinAddr: 0x10001D454, symSize: 0x64 }
  - { offset: 0x10684, size: 0x8, addend: 0x0, symName: __ZNSt3__122__compressed_pair_elemINS_9allocatorINS_11__hash_nodeINS_12basic_stringIcNS_11char_traitsIcEENS1_IcEEEEPvEEEELi1ELb1EEC2B8ne190107ENS_16__value_init_tagE, symObjAddr: 0x19604, symBinAddr: 0x10001D4B8, symSize: 0x70 }
  - { offset: 0x106B9, size: 0x8, addend: 0x0, symName: __ZNSt3__116__hash_node_baseIPNS_11__hash_nodeINS_12basic_stringIcNS_11char_traitsIcEENS_9allocatorIcEEEEPvEEEC1B8ne190107Ev, symObjAddr: 0x19674, symBinAddr: 0x10001D528, symSize: 0x64 }
  - { offset: 0x106E3, size: 0x8, addend: 0x0, symName: __ZNSt3__116__hash_node_baseIPNS_11__hash_nodeINS_12basic_stringIcNS_11char_traitsIcEENS_9allocatorIcEEEEPvEEEC2B8ne190107Ev, symObjAddr: 0x196D8, symBinAddr: 0x10001D58C, symSize: 0xA8 }
  - { offset: 0x1070D, size: 0x8, addend: 0x0, symName: __ZNSt3__19allocatorINS_11__hash_nodeINS_12basic_stringIcNS_11char_traitsIcEENS0_IcEEEEPvEEEC2B8ne190107Ev, symObjAddr: 0x19780, symBinAddr: 0x10001D634, symSize: 0x70 }
  - { offset: 0x10737, size: 0x8, addend: 0x0, symName: __ZNSt3__116__non_trivial_ifILb1ENS_9allocatorINS_11__hash_nodeINS_12basic_stringIcNS_11char_traitsIcEENS1_IcEEEEPvEEEEEC2B8ne190107Ev, symObjAddr: 0x197F0, symBinAddr: 0x10001D6A4, symSize: 0x48 }
  - { offset: 0x10761, size: 0x8, addend: 0x0, symName: __ZNSt3__117__compressed_pairImNS_4hashINS_12basic_stringIcNS_11char_traitsIcEENS_9allocatorIcEEEEEEEC2B8ne190107IiRKS8_EEOT_OT0_, symObjAddr: 0x19838, symBinAddr: 0x10001D6EC, symSize: 0x12C }
  - { offset: 0x107B9, size: 0x8, addend: 0x0, symName: __ZNSt3__122__compressed_pair_elemINS_4hashINS_12basic_stringIcNS_11char_traitsIcEENS_9allocatorIcEEEEEELi1ELb1EEC2B8ne190107IRKS8_TnNS_9enable_ifIXntsr7is_sameIS9_u7__decayIT_EEE5valueEiE4typeELi0EEEOSE_, symObjAddr: 0x19964, symBinAddr: 0x10001D818, symSize: 0x4C }
  - { offset: 0x10800, size: 0x8, addend: 0x0, symName: __ZNSt3__117__compressed_pairIfNS_8equal_toINS_12basic_stringIcNS_11char_traitsIcEENS_9allocatorIcEEEEEEEC2B8ne190107IfRKS8_EEOT_OT0_, symObjAddr: 0x199B0, symBinAddr: 0x10001D864, symSize: 0x12C }
  - { offset: 0x10858, size: 0x8, addend: 0x0, symName: __ZNSt3__122__compressed_pair_elemIfLi0ELb0EEC2B8ne190107IfTnNS_9enable_ifIXntsr7is_sameIS1_u7__decayIT_EEE5valueEiE4typeELi0EEEOS4_, symObjAddr: 0x19ADC, symBinAddr: 0x10001D990, symSize: 0x16C }
  - { offset: 0x1089F, size: 0x8, addend: 0x0, symName: __ZNSt3__122__compressed_pair_elemINS_8equal_toINS_12basic_stringIcNS_11char_traitsIcEENS_9allocatorIcEEEEEELi1ELb1EEC2B8ne190107IRKS8_TnNS_9enable_ifIXntsr7is_sameIS9_u7__decayIT_EEE5valueEiE4typeELi0EEEOSE_, symObjAddr: 0x19C48, symBinAddr: 0x10001DAFC, symSize: 0x4C }
  - { offset: 0x108E6, size: 0x8, addend: 0x0, symName: __ZNSt3__110unique_ptrIA_PNS_16__hash_node_baseIPNS_11__hash_nodeINS_12basic_stringIcNS_11char_traitsIcEENS_9allocatorIcEEEEPvEEEENS_25__bucket_list_deallocatorINS6_ISD_EEEEED2B8ne190107Ev, symObjAddr: 0x19C94, symBinAddr: 0x10001DB48, symSize: 0x68 }
  - { offset: 0x10910, size: 0x8, addend: 0x0, symName: __ZNSt3__110unique_ptrIA_PNS_16__hash_node_baseIPNS_11__hash_nodeINS_12basic_stringIcNS_11char_traitsIcEENS_9allocatorIcEEEEPvEEEENS_25__bucket_list_deallocatorINS6_ISD_EEEEE5resetB8ne190107EDn, symObjAddr: 0x19CFC, symBinAddr: 0x10001DBB0, symSize: 0x248 }
  - { offset: 0x10951, size: 0x8, addend: 0x0, symName: __ZNSt3__117__compressed_pairIPPNS_16__hash_node_baseIPNS_11__hash_nodeINS_12basic_stringIcNS_11char_traitsIcEENS_9allocatorIcEEEEPvEEEENS_25__bucket_list_deallocatorINS6_ISD_EEEEE5firstB8ne190107Ev, symObjAddr: 0x19F44, symBinAddr: 0x10001DDF8, symSize: 0xEC }
  - { offset: 0x10977, size: 0x8, addend: 0x0, symName: __ZNSt3__117__compressed_pairIPPNS_16__hash_node_baseIPNS_11__hash_nodeINS_12basic_stringIcNS_11char_traitsIcEENS_9allocatorIcEEEEPvEEEENS_25__bucket_list_deallocatorINS6_ISD_EEEEE6secondB8ne190107Ev, symObjAddr: 0x1A030, symBinAddr: 0x10001DEE4, symSize: 0xFC }
  - { offset: 0x1099D, size: 0x8, addend: 0x0, symName: __ZNSt3__125__bucket_list_deallocatorINS_9allocatorIPNS_16__hash_node_baseIPNS_11__hash_nodeINS_12basic_stringIcNS_11char_traitsIcEENS1_IcEEEEPvEEEEEEEclB8ne190107EPSD_, symObjAddr: 0x1A12C, symBinAddr: 0x10001DFE0, symSize: 0x118 }
  - { offset: 0x109D2, size: 0x8, addend: 0x0, symName: __ZNSt3__122__compressed_pair_elemIPPNS_16__hash_node_baseIPNS_11__hash_nodeINS_12basic_stringIcNS_11char_traitsIcEENS_9allocatorIcEEEEPvEEEELi0ELb0EE5__getB8ne190107Ev, symObjAddr: 0x1A244, symBinAddr: 0x10001E0F8, symSize: 0x8C }
  - { offset: 0x109F8, size: 0x8, addend: 0x0, symName: __ZNSt3__122__compressed_pair_elemINS_25__bucket_list_deallocatorINS_9allocatorIPNS_16__hash_node_baseIPNS_11__hash_nodeINS_12basic_stringIcNS_11char_traitsIcEENS2_IcEEEEPvEEEEEEEELi1ELb0EE5__getB8ne190107Ev, symObjAddr: 0x1A2D0, symBinAddr: 0x10001E184, symSize: 0x8C }
  - { offset: 0x10A1E, size: 0x8, addend: 0x0, symName: __ZNSt3__116allocator_traitsINS_9allocatorIPNS_16__hash_node_baseIPNS_11__hash_nodeINS_12basic_stringIcNS_11char_traitsIcEENS1_IcEEEEPvEEEEEEE10deallocateB8ne190107ERSE_PSD_m, symObjAddr: 0x1A364, symBinAddr: 0x10001E218, symSize: 0x0 }
  - { offset: 0x10A60, size: 0x8, addend: 0x0, symName: __ZNSt3__125__bucket_list_deallocatorINS_9allocatorIPNS_16__hash_node_baseIPNS_11__hash_nodeINS_12basic_stringIcNS_11char_traitsIcEENS1_IcEEEEPvEEEEEEE7__allocB8ne190107Ev, symObjAddr: 0x1A398, symBinAddr: 0x10001E24C, symSize: 0xB4 }
  - { offset: 0x10A86, size: 0x8, addend: 0x0, symName: __ZNSt3__19allocatorIPNS_16__hash_node_baseIPNS_11__hash_nodeINS_12basic_stringIcNS_11char_traitsIcEENS0_IcEEEEPvEEEEE10deallocateB8ne190107EPSC_m, symObjAddr: 0x1A44C, symBinAddr: 0x10001E300, symSize: 0x70 }
  - { offset: 0x10AC8, size: 0x8, addend: 0x0, symName: __ZNSt3__117__compressed_pairImNS_9allocatorIPNS_16__hash_node_baseIPNS_11__hash_nodeINS_12basic_stringIcNS_11char_traitsIcEENS1_IcEEEEPvEEEEEEE6secondB8ne190107Ev, symObjAddr: 0x1A4BC, symBinAddr: 0x10001E370, symSize: 0xC4 }
  - { offset: 0x10AEE, size: 0x8, addend: 0x0, symName: __ZNSt3__122__compressed_pair_elemINS_9allocatorIPNS_16__hash_node_baseIPNS_11__hash_nodeINS_12basic_stringIcNS_11char_traitsIcEENS1_IcEEEEPvEEEEEELi1ELb1EE5__getB8ne190107Ev, symObjAddr: 0x1A580, symBinAddr: 0x10001E434, symSize: 0x64 }
  - { offset: 0x10B14, size: 0x8, addend: 0x0, symName: __ZNSt3__112__hash_tableINS_12basic_stringIcNS_11char_traitsIcEENS_9allocatorIcEEEENS_4hashIS6_EENS_8equal_toIS6_EENS4_IS6_EEE8__rehashILb1EEEvm, symObjAddr: 0x1A5E4, symBinAddr: 0x10001E498, symSize: 0x694 }
  - { offset: 0x10B68, size: 0x8, addend: 0x0, symName: __ZNKSt3__112__hash_tableINS_12basic_stringIcNS_11char_traitsIcEENS_9allocatorIcEEEENS_4hashIS6_EENS_8equal_toIS6_EENS4_IS6_EEE12bucket_countB8ne190107Ev, symObjAddr: 0x1AC78, symBinAddr: 0x10001EB2C, symSize: 0xCC }
  - { offset: 0x10B8E, size: 0x8, addend: 0x0, symName: __ZNSt3__112__hash_tableINS_12basic_stringIcNS_11char_traitsIcEENS_9allocatorIcEEEENS_4hashIS6_EENS_8equal_toIS6_EENS4_IS6_EEE11__do_rehashILb1EEEvm, symObjAddr: 0x1AD44, symBinAddr: 0x10001EBF8, symSize: 0xE24 }
  - { offset: 0x10C71, size: 0x8, addend: 0x0, symName: __ZNSt3__112__hash_tableINS_12basic_stringIcNS_11char_traitsIcEENS_9allocatorIcEEEENS_4hashIS6_EENS_8equal_toIS6_EENS4_IS6_EEE4sizeB8ne190107Ev, symObjAddr: 0x1BCAC, symBinAddr: 0x10001FB60, symSize: 0xD8 }
  - { offset: 0x10C97, size: 0x8, addend: 0x0, symName: __ZNSt3__112__hash_tableINS_12basic_stringIcNS_11char_traitsIcEENS_9allocatorIcEEEENS_4hashIS6_EENS_8equal_toIS6_EENS4_IS6_EEE15max_load_factorB8ne190107Ev, symObjAddr: 0x1BD84, symBinAddr: 0x10001FC38, symSize: 0xD8 }
  - { offset: 0x10CBD, size: 0x8, addend: 0x0, symName: __ZNKSt3__110unique_ptrIA_PNS_16__hash_node_baseIPNS_11__hash_nodeINS_12basic_stringIcNS_11char_traitsIcEENS_9allocatorIcEEEEPvEEEENS_25__bucket_list_deallocatorINS6_ISD_EEEEE11get_deleterB8ne190107Ev, symObjAddr: 0x1BE5C, symBinAddr: 0x10001FD10, symSize: 0xC8 }
  - { offset: 0x10CE3, size: 0x8, addend: 0x0, symName: __ZNKSt3__125__bucket_list_deallocatorINS_9allocatorIPNS_16__hash_node_baseIPNS_11__hash_nodeINS_12basic_stringIcNS_11char_traitsIcEENS1_IcEEEEPvEEEEEEE4sizeB8ne190107Ev, symObjAddr: 0x1BF24, symBinAddr: 0x10001FDD8, symSize: 0x10C }
  - { offset: 0x10D09, size: 0x8, addend: 0x0, symName: __ZNKSt3__117__compressed_pairIPPNS_16__hash_node_baseIPNS_11__hash_nodeINS_12basic_stringIcNS_11char_traitsIcEENS_9allocatorIcEEEEPvEEEENS_25__bucket_list_deallocatorINS6_ISD_EEEEE6secondB8ne190107Ev, symObjAddr: 0x1C030, symBinAddr: 0x10001FEE4, symSize: 0xFC }
  - { offset: 0x10D2F, size: 0x8, addend: 0x0, symName: __ZNKSt3__122__compressed_pair_elemINS_25__bucket_list_deallocatorINS_9allocatorIPNS_16__hash_node_baseIPNS_11__hash_nodeINS_12basic_stringIcNS_11char_traitsIcEENS2_IcEEEEPvEEEEEEEELi1ELb0EE5__getB8ne190107Ev, symObjAddr: 0x1C12C, symBinAddr: 0x10001FFE0, symSize: 0x8C }
  - { offset: 0x10D55, size: 0x8, addend: 0x0, symName: __ZNKSt3__117__compressed_pairImNS_9allocatorIPNS_16__hash_node_baseIPNS_11__hash_nodeINS_12basic_stringIcNS_11char_traitsIcEENS1_IcEEEEPvEEEEEEE5firstB8ne190107Ev, symObjAddr: 0x1C1B8, symBinAddr: 0x10002006C, symSize: 0xEC }
  - { offset: 0x10D7B, size: 0x8, addend: 0x0, symName: __ZNKSt3__122__compressed_pair_elemImLi0ELb0EE5__getB8ne190107Ev, symObjAddr: 0x1C2A4, symBinAddr: 0x100020158, symSize: 0x8C }
  - { offset: 0x10DA1, size: 0x8, addend: 0x0, symName: __ZNSt3__110unique_ptrIA_PNS_16__hash_node_baseIPNS_11__hash_nodeINS_12basic_stringIcNS_11char_traitsIcEENS_9allocatorIcEEEEPvEEEENS_25__bucket_list_deallocatorINS6_ISD_EEEEE11get_deleterB8ne190107Ev, symObjAddr: 0x1C330, symBinAddr: 0x1000201E4, symSize: 0xC8 }
  - { offset: 0x10DC7, size: 0x8, addend: 0x0, symName: __ZNSt3__110unique_ptrIA_PNS_16__hash_node_baseIPNS_11__hash_nodeINS_12basic_stringIcNS_11char_traitsIcEENS_9allocatorIcEEEEPvEEEENS_25__bucket_list_deallocatorINS6_ISD_EEEEE5resetB8ne190107IPSD_TnNS_9enable_ifIXsr28_CheckArrayPointerConversionIT_EE5valueEiE4typeELi0EEEvSM_, symObjAddr: 0x1C3F8, symBinAddr: 0x1000202AC, symSize: 0x254 }
  - { offset: 0x10E1A, size: 0x8, addend: 0x0, symName: __ZNSt3__116allocator_traitsINS_9allocatorIPNS_16__hash_node_baseIPNS_11__hash_nodeINS_12basic_stringIcNS_11char_traitsIcEENS1_IcEEEEPvEEEEEEE8allocateB8ne190107ERSE_m, symObjAddr: 0x1C654, symBinAddr: 0x100020508, symSize: 0x0 }
  - { offset: 0x10E4D, size: 0x8, addend: 0x0, symName: __ZNKSt3__110unique_ptrIA_PNS_16__hash_node_baseIPNS_11__hash_nodeINS_12basic_stringIcNS_11char_traitsIcEENS_9allocatorIcEEEEPvEEEENS_25__bucket_list_deallocatorINS6_ISD_EEEEEixB8ne190107Em, symObjAddr: 0x1C680, symBinAddr: 0x100020534, symSize: 0x1F0 }
  - { offset: 0x10E82, size: 0x8, addend: 0x0, symName: __ZNSt3__117__compressed_pairINS_16__hash_node_baseIPNS_11__hash_nodeINS_12basic_stringIcNS_11char_traitsIcEENS_9allocatorIcEEEEPvEEEENS6_ISA_EEE5firstB8ne190107Ev, symObjAddr: 0x1C870, symBinAddr: 0x100020724, symSize: 0xEC }
  - { offset: 0x10EA8, size: 0x8, addend: 0x0, symName: __ZNSt3__116__hash_node_baseIPNS_11__hash_nodeINS_12basic_stringIcNS_11char_traitsIcEENS_9allocatorIcEEEEPvEEE5__ptrB8ne190107Ev, symObjAddr: 0x1C95C, symBinAddr: 0x100020810, symSize: 0x90 }
  - { offset: 0x10ECE, size: 0x8, addend: 0x0, symName: __ZNKSt3__116__hash_node_baseIPNS_11__hash_nodeINS_12basic_stringIcNS_11char_traitsIcEENS_9allocatorIcEEEEPvEEE6__hashB8ne190107Ev, symObjAddr: 0x1CAC0, symBinAddr: 0x100020974, symSize: 0x158 }
  - { offset: 0x10EF4, size: 0x8, addend: 0x0, symName: __ZNSt3__19allocatorIPNS_16__hash_node_baseIPNS_11__hash_nodeINS_12basic_stringIcNS_11char_traitsIcEENS0_IcEEEEPvEEEEE8allocateB8ne190107Em, symObjAddr: 0x1CC18, symBinAddr: 0x100020ACC, symSize: 0xB8 }
  - { offset: 0x10F34, size: 0x8, addend: 0x0, symName: __ZNSt3__116allocator_traitsINS_9allocatorIPNS_16__hash_node_baseIPNS_11__hash_nodeINS_12basic_stringIcNS_11char_traitsIcEENS1_IcEEEEPvEEEEEEE8max_sizeB8ne190107ISE_vTnNS_9enable_ifIXntsr14__has_max_sizeIKT_EE5valueEiE4typeELi0EEEmRKSE_, symObjAddr: 0x1CCD8, symBinAddr: 0x100020B8C, symSize: 0x0 }
  - { offset: 0x10F65, size: 0x8, addend: 0x0, symName: __ZNKSt3__117__compressed_pairIPPNS_16__hash_node_baseIPNS_11__hash_nodeINS_12basic_stringIcNS_11char_traitsIcEENS_9allocatorIcEEEEPvEEEENS_25__bucket_list_deallocatorINS6_ISD_EEEEE5firstB8ne190107Ev, symObjAddr: 0x1CD2C, symBinAddr: 0x100020BE0, symSize: 0xEC }
  - { offset: 0x10F8B, size: 0x8, addend: 0x0, symName: __ZNKSt3__122__compressed_pair_elemIPPNS_16__hash_node_baseIPNS_11__hash_nodeINS_12basic_stringIcNS_11char_traitsIcEENS_9allocatorIcEEEEPvEEEELi0ELb0EE5__getB8ne190107Ev, symObjAddr: 0x1CE18, symBinAddr: 0x100020CCC, symSize: 0x8C }
  - { offset: 0x10FB1, size: 0x8, addend: 0x0, symName: __ZNSt3__122__compressed_pair_elemINS_16__hash_node_baseIPNS_11__hash_nodeINS_12basic_stringIcNS_11char_traitsIcEENS_9allocatorIcEEEEPvEEEELi0ELb0EE5__getB8ne190107Ev, symObjAddr: 0x1CEA4, symBinAddr: 0x100020D58, symSize: 0x8C }
  - { offset: 0x10FD7, size: 0x8, addend: 0x0, symName: __ZNSt3__114pointer_traitsIPNS_16__hash_node_baseIPNS_11__hash_nodeINS_12basic_stringIcNS_11char_traitsIcEENS_9allocatorIcEEEEPvEEEEE10pointer_toB8ne190107ERSC_, symObjAddr: 0x1CF38, symBinAddr: 0x100020DEC, symSize: 0x0 }
  - { offset: 0x10FFA, size: 0x8, addend: 0x0, symName: __ZNSt3__117__compressed_pairImNS_4hashINS_12basic_stringIcNS_11char_traitsIcEENS_9allocatorIcEEEEEEE5firstB8ne190107Ev, symObjAddr: 0x1CF9C, symBinAddr: 0x100020E50, symSize: 0xEC }
  - { offset: 0x11020, size: 0x8, addend: 0x0, symName: __ZNSt3__117__compressed_pairIfNS_8equal_toINS_12basic_stringIcNS_11char_traitsIcEENS_9allocatorIcEEEEEEE5firstB8ne190107Ev, symObjAddr: 0x1D088, symBinAddr: 0x100020F3C, symSize: 0xEC }
  - { offset: 0x11046, size: 0x8, addend: 0x0, symName: __ZNSt3__122__compressed_pair_elemIfLi0ELb0EE5__getB8ne190107Ev, symObjAddr: 0x1D174, symBinAddr: 0x100021028, symSize: 0x8C }
  - { offset: 0x1106C, size: 0x8, addend: 0x0, symName: __ZNSt3__112__hash_tableINS_12basic_stringIcNS_11char_traitsIcEENS_9allocatorIcEEEENS_4hashIS6_EENS_8equal_toIS6_EENS4_IS6_EEED2Ev, symObjAddr: 0x1D200, symBinAddr: 0x1000210B4, symSize: 0x170 }
  - { offset: 0x11098, size: 0x8, addend: 0x0, symName: __ZNSt3__112__hash_tableINS_12basic_stringIcNS_11char_traitsIcEENS_9allocatorIcEEEENS_4hashIS6_EENS_8equal_toIS6_EENS4_IS6_EEE17__deallocate_nodeEPNS_16__hash_node_baseIPNS_11__hash_nodeIS6_PvEEEE, symObjAddr: 0x1D370, symBinAddr: 0x100021224, symSize: 0x2B8 }
  - { offset: 0x11102, size: 0x8, addend: 0x0, symName: __ZNSt3__112__hash_tableINS_12basic_stringIcNS_11char_traitsIcEENS_9allocatorIcEEEENS_4hashIS6_EENS_8equal_toIS6_EENS4_IS6_EEE12__node_allocB8ne190107Ev, symObjAddr: 0x1D628, symBinAddr: 0x1000214DC, symSize: 0xC4 }
  - { offset: 0x11128, size: 0x8, addend: 0x0, symName: __ZNSt3__116__hash_node_baseIPNS_11__hash_nodeINS_12basic_stringIcNS_11char_traitsIcEENS_9allocatorIcEEEEPvEEE8__upcastB8ne190107Ev, symObjAddr: 0x1D6EC, symBinAddr: 0x1000215A0, symSize: 0xC8 }
  - { offset: 0x1114E, size: 0x8, addend: 0x0, symName: __ZNSt3__116allocator_traitsINS_9allocatorINS_11__hash_nodeINS_12basic_stringIcNS_11char_traitsIcEENS1_IcEEEEPvEEEEE7destroyB8ne190107IS7_vTnNS_9enable_ifIXntsr13__has_destroyISA_PT_EE5valueEiE4typeELi0EEEvRSA_SF_, symObjAddr: 0x1D7BC, symBinAddr: 0x100021670, symSize: 0x0 }
  - { offset: 0x1118E, size: 0x8, addend: 0x0, symName: __ZNSt3__122__hash_key_value_typesINS_12basic_stringIcNS_11char_traitsIcEENS_9allocatorIcEEEEE9__get_ptrB8ne190107ERS6_, symObjAddr: 0x1D7EC, symBinAddr: 0x1000216A0, symSize: 0x0 }
  - { offset: 0x111B1, size: 0x8, addend: 0x0, symName: __ZNSt3__111__hash_nodeINS_12basic_stringIcNS_11char_traitsIcEENS_9allocatorIcEEEEPvE11__get_valueB8ne190107Ev, symObjAddr: 0x1D800, symBinAddr: 0x1000216B4, symSize: 0x9C }
  - { offset: 0x111D7, size: 0x8, addend: 0x0, symName: __ZNSt3__116allocator_traitsINS_9allocatorINS_11__hash_nodeINS_12basic_stringIcNS_11char_traitsIcEENS1_IcEEEEPvEEEEE10deallocateB8ne190107ERSA_PS9_m, symObjAddr: 0x1D908, symBinAddr: 0x1000217BC, symSize: 0x0 }
  - { offset: 0x11219, size: 0x8, addend: 0x0, symName: __ZNSt3__117__compressed_pairINS_16__hash_node_baseIPNS_11__hash_nodeINS_12basic_stringIcNS_11char_traitsIcEENS_9allocatorIcEEEEPvEEEENS6_ISA_EEE6secondB8ne190107Ev, symObjAddr: 0x1D93C, symBinAddr: 0x1000217F0, symSize: 0xC4 }
  - { offset: 0x1123F, size: 0x8, addend: 0x0, symName: __ZNSt3__122__compressed_pair_elemINS_9allocatorINS_11__hash_nodeINS_12basic_stringIcNS_11char_traitsIcEENS1_IcEEEEPvEEEELi1ELb1EE5__getB8ne190107Ev, symObjAddr: 0x1DA00, symBinAddr: 0x1000218B4, symSize: 0x64 }
  - { offset: 0x11265, size: 0x8, addend: 0x0, symName: __ZNSt3__111__hash_nodeINS_12basic_stringIcNS_11char_traitsIcEENS_9allocatorIcEEEEPvED1B8ne190107Ev, symObjAddr: 0x1DAC8, symBinAddr: 0x10002197C, symSize: 0x64 }
  - { offset: 0x1128F, size: 0x8, addend: 0x0, symName: __ZNSt3__111__hash_nodeINS_12basic_stringIcNS_11char_traitsIcEENS_9allocatorIcEEEEPvED2B8ne190107Ev, symObjAddr: 0x1DB2C, symBinAddr: 0x1000219E0, symSize: 0x5C }
  - { offset: 0x112B9, size: 0x8, addend: 0x0, symName: __ZNSt3__19allocatorINS_11__hash_nodeINS_12basic_stringIcNS_11char_traitsIcEENS0_IcEEEEPvEEE10deallocateB8ne190107EPS8_m, symObjAddr: 0x1DB88, symBinAddr: 0x100021A3C, symSize: 0x74 }
  - { offset: 0x112FB, size: 0x8, addend: 0x0, symName: __ZNSt3__113unordered_setINS_12basic_stringIcNS_11char_traitsIcEENS_9allocatorIcEEEENS_4hashIS6_EENS_8equal_toIS6_EENS4_IS6_EEED2B8ne190107Ev, symObjAddr: 0x1DBFC, symBinAddr: 0x100021AB0, symSize: 0x64 }
  - { offset: 0x11325, size: 0x8, addend: 0x0, symName: __ZNSt3__112__hash_tableINS_12basic_stringIcNS_11char_traitsIcEENS_9allocatorIcEEEENS_4hashIS6_EENS_8equal_toIS6_EENS4_IS6_EEE15__insert_uniqueB8ne190107EOS6_, symObjAddr: 0x1DC60, symBinAddr: 0x100021B14, symSize: 0x178 }
  - { offset: 0x1135A, size: 0x8, addend: 0x0, symName: __ZNSt3__14pairINS_21__hash_const_iteratorIPNS_11__hash_nodeINS_12basic_stringIcNS_11char_traitsIcEENS_9allocatorIcEEEEPvEEEEbEC1B8ne190107INS_15__hash_iteratorISB_EEbTnNS_9enable_ifIXclsr10_CheckArgsE23__is_pair_constructibleIT_T0_EEEiE4typeELi0EEEONS0_ISI_SJ_EE, symObjAddr: 0x1DDD8, symBinAddr: 0x100021C8C, symSize: 0x6C }
  - { offset: 0x113B0, size: 0x8, addend: 0x0, symName: __ZNSt3__112__hash_tableINS_12basic_stringIcNS_11char_traitsIcEENS_9allocatorIcEEEENS_4hashIS6_EENS_8equal_toIS6_EENS4_IS6_EEE25__emplace_unique_key_argsIS6_JS6_EEENS_4pairINS_15__hash_iteratorIPNS_11__hash_nodeIS6_PvEEEEbEERKT_DpOT0_, symObjAddr: 0x1DE44, symBinAddr: 0x100021CF8, symSize: 0x183C }
  - { offset: 0x11498, size: 0x8, addend: 0x0, symName: __ZNSt3__122__hash_key_value_typesINS_12basic_stringIcNS_11char_traitsIcEENS_9allocatorIcEEEEE9__get_keyB8ne190107ERKS6_, symObjAddr: 0x1F688, symBinAddr: 0x10002353C, symSize: 0x0 }
  - { offset: 0x114BB, size: 0x8, addend: 0x0, symName: __ZNSt3__112__hash_tableINS_12basic_stringIcNS_11char_traitsIcEENS_9allocatorIcEEEENS_4hashIS6_EENS_8equal_toIS6_EENS4_IS6_EEE13hash_functionB8ne190107Ev, symObjAddr: 0x1F6E0, symBinAddr: 0x100023594, symSize: 0xC4 }
  - { offset: 0x114E1, size: 0x8, addend: 0x0, symName: __ZNSt3__112__hash_tableINS_12basic_stringIcNS_11char_traitsIcEENS_9allocatorIcEEEENS_4hashIS6_EENS_8equal_toIS6_EENS4_IS6_EEE6key_eqB8ne190107Ev, symObjAddr: 0x1F7A4, symBinAddr: 0x100023658, symSize: 0xC4 }
  - { offset: 0x11507, size: 0x8, addend: 0x0, symName: __ZNKSt3__18equal_toINS_12basic_stringIcNS_11char_traitsIcEENS_9allocatorIcEEEEEclB8ne190107ERKS6_S9_, symObjAddr: 0x1F868, symBinAddr: 0x10002371C, symSize: 0xC4 }
  - { offset: 0x1154B, size: 0x8, addend: 0x0, symName: __ZNSt3__112__hash_tableINS_12basic_stringIcNS_11char_traitsIcEENS_9allocatorIcEEEENS_4hashIS6_EENS_8equal_toIS6_EENS4_IS6_EEE21__construct_node_hashIS6_JEEENS_10unique_ptrINS_11__hash_nodeIS6_PvEENS_22__hash_node_destructorINS4_ISH_EEEEEEmOT_DpOT0_, symObjAddr: 0x1F92C, symBinAddr: 0x1000237E0, symSize: 0x698 }
  - { offset: 0x115C4, size: 0x8, addend: 0x0, symName: __ZNKSt3__110unique_ptrINS_11__hash_nodeINS_12basic_stringIcNS_11char_traitsIcEENS_9allocatorIcEEEEPvEENS_22__hash_node_destructorINS5_IS9_EEEEEptB8ne190107Ev, symObjAddr: 0x1FFC4, symBinAddr: 0x100023E78, symSize: 0x10C }
  - { offset: 0x115EA, size: 0x8, addend: 0x0, symName: __ZNKSt3__110unique_ptrINS_11__hash_nodeINS_12basic_stringIcNS_11char_traitsIcEENS_9allocatorIcEEEEPvEENS_22__hash_node_destructorINS5_IS9_EEEEE3getB8ne190107Ev, symObjAddr: 0x200D0, symBinAddr: 0x100023F84, symSize: 0x10C }
  - { offset: 0x11610, size: 0x8, addend: 0x0, symName: __ZNSt3__110unique_ptrINS_11__hash_nodeINS_12basic_stringIcNS_11char_traitsIcEENS_9allocatorIcEEEEPvEENS_22__hash_node_destructorINS5_IS9_EEEEE7releaseB8ne190107Ev, symObjAddr: 0x201DC, symBinAddr: 0x100024090, symSize: 0x1BC }
  - { offset: 0x11645, size: 0x8, addend: 0x0, symName: __ZNSt3__110unique_ptrINS_11__hash_nodeINS_12basic_stringIcNS_11char_traitsIcEENS_9allocatorIcEEEEPvEENS_22__hash_node_destructorINS5_IS9_EEEEED1B8ne190107Ev, symObjAddr: 0x20398, symBinAddr: 0x10002424C, symSize: 0x64 }
  - { offset: 0x1166F, size: 0x8, addend: 0x0, symName: __ZNSt3__115__hash_iteratorIPNS_11__hash_nodeINS_12basic_stringIcNS_11char_traitsIcEENS_9allocatorIcEEEEPvEEEC1B8ne190107EPNS_16__hash_node_baseISA_EE, symObjAddr: 0x203FC, symBinAddr: 0x1000242B0, symSize: 0x6C }
  - { offset: 0x116B4, size: 0x8, addend: 0x0, symName: __ZNSt3__14pairINS_15__hash_iteratorIPNS_11__hash_nodeINS_12basic_stringIcNS_11char_traitsIcEENS_9allocatorIcEEEEPvEEEEbEC1B8ne190107ISC_RbTnNS_9enable_ifIXclsr10_CheckArgsE23__is_pair_constructibleIT_T0_EEEiE4typeELi0EEEOSH_OSI_, symObjAddr: 0x20468, symBinAddr: 0x10002431C, symSize: 0x74 }
  - { offset: 0x11712, size: 0x8, addend: 0x0, symName: __ZNSt3__117__compressed_pairImNS_4hashINS_12basic_stringIcNS_11char_traitsIcEENS_9allocatorIcEEEEEEE6secondB8ne190107Ev, symObjAddr: 0x204DC, symBinAddr: 0x100024390, symSize: 0xC4 }
  - { offset: 0x11738, size: 0x8, addend: 0x0, symName: __ZNSt3__122__compressed_pair_elemINS_4hashINS_12basic_stringIcNS_11char_traitsIcEENS_9allocatorIcEEEEEELi1ELb1EE5__getB8ne190107Ev, symObjAddr: 0x205A0, symBinAddr: 0x100024454, symSize: 0x64 }
  - { offset: 0x1175E, size: 0x8, addend: 0x0, symName: __ZNSt3__117__compressed_pairIfNS_8equal_toINS_12basic_stringIcNS_11char_traitsIcEENS_9allocatorIcEEEEEEE6secondB8ne190107Ev, symObjAddr: 0x20604, symBinAddr: 0x1000244B8, symSize: 0xC4 }
  - { offset: 0x11784, size: 0x8, addend: 0x0, symName: __ZNSt3__122__compressed_pair_elemINS_8equal_toINS_12basic_stringIcNS_11char_traitsIcEENS_9allocatorIcEEEEEELi1ELb1EE5__getB8ne190107Ev, symObjAddr: 0x206C8, symBinAddr: 0x10002457C, symSize: 0x64 }
  - { offset: 0x117AA, size: 0x8, addend: 0x0, symName: __ZNSt3__116allocator_traitsINS_9allocatorINS_11__hash_nodeINS_12basic_stringIcNS_11char_traitsIcEENS1_IcEEEEPvEEEEE8allocateB8ne190107ERSA_m, symObjAddr: 0x20734, symBinAddr: 0x1000245E8, symSize: 0x0 }
  - { offset: 0x117DD, size: 0x8, addend: 0x0, symName: __ZNSt3__122__hash_node_destructorINS_9allocatorINS_11__hash_nodeINS_12basic_stringIcNS_11char_traitsIcEENS1_IcEEEEPvEEEEEC1B8ne190107ERSA_b, symObjAddr: 0x20760, symBinAddr: 0x100024614, symSize: 0xA8 }
  - { offset: 0x1182B, size: 0x8, addend: 0x0, symName: __ZNSt3__110unique_ptrINS_11__hash_nodeINS_12basic_stringIcNS_11char_traitsIcEENS_9allocatorIcEEEEPvEENS_22__hash_node_destructorINS5_IS9_EEEEEC1B8ne190107ILb1EvEEPS9_NS_16__dependent_typeINS_27__unique_ptr_deleter_sfinaeISC_EEXT_EE20__good_rval_ref_typeE, symObjAddr: 0x20808, symBinAddr: 0x1000246BC, symSize: 0x74 }
  - { offset: 0x1187C, size: 0x8, addend: 0x0, symName: __ZNKSt3__110unique_ptrINS_11__hash_nodeINS_12basic_stringIcNS_11char_traitsIcEENS_9allocatorIcEEEEPvEENS_22__hash_node_destructorINS5_IS9_EEEEEdeB8ne190107Ev, symObjAddr: 0x20930, symBinAddr: 0x1000247E4, symSize: 0x144 }
  - { offset: 0x118A2, size: 0x8, addend: 0x0, symName: __ZNSt3__116allocator_traitsINS_9allocatorINS_11__hash_nodeINS_12basic_stringIcNS_11char_traitsIcEENS1_IcEEEEPvEEEEE9constructB8ne190107IS7_JS7_EvTnNS_9enable_ifIXntsr15__has_constructISA_PT_DpT0_EE5valueEiE4typeELi0EEEvRSA_SF_DpOSG_, symObjAddr: 0x20A7C, symBinAddr: 0x100024930, symSize: 0x0 }
  - { offset: 0x118FC, size: 0x8, addend: 0x0, symName: __ZNSt3__110unique_ptrINS_11__hash_nodeINS_12basic_stringIcNS_11char_traitsIcEENS_9allocatorIcEEEEPvEENS_22__hash_node_destructorINS5_IS9_EEEEE11get_deleterB8ne190107Ev, symObjAddr: 0x20AEC, symBinAddr: 0x1000249A0, symSize: 0xC8 }
  - { offset: 0x11922, size: 0x8, addend: 0x0, symName: __ZNSt3__19allocatorINS_11__hash_nodeINS_12basic_stringIcNS_11char_traitsIcEENS0_IcEEEEPvEEE8allocateB8ne190107Em, symObjAddr: 0x20BB4, symBinAddr: 0x100024A68, symSize: 0xBC }
  - { offset: 0x11962, size: 0x8, addend: 0x0, symName: __ZNSt3__116allocator_traitsINS_9allocatorINS_11__hash_nodeINS_12basic_stringIcNS_11char_traitsIcEENS1_IcEEEEPvEEEEE8max_sizeB8ne190107ISA_vTnNS_9enable_ifIXntsr14__has_max_sizeIKT_EE5valueEiE4typeELi0EEEmRKSA_, symObjAddr: 0x20C78, symBinAddr: 0x100024B2C, symSize: 0x0 }
  - { offset: 0x11993, size: 0x8, addend: 0x0, symName: __ZNSt3__122__hash_node_destructorINS_9allocatorINS_11__hash_nodeINS_12basic_stringIcNS_11char_traitsIcEENS1_IcEEEEPvEEEEEC2B8ne190107ERSA_b, symObjAddr: 0x20CCC, symBinAddr: 0x100024B80, symSize: 0x168 }
  - { offset: 0x119DB, size: 0x8, addend: 0x0, symName: __ZNSt3__110unique_ptrINS_11__hash_nodeINS_12basic_stringIcNS_11char_traitsIcEENS_9allocatorIcEEEEPvEENS_22__hash_node_destructorINS5_IS9_EEEEEC2B8ne190107ILb1EvEEPS9_NS_16__dependent_typeINS_27__unique_ptr_deleter_sfinaeISC_EEXT_EE20__good_rval_ref_typeE, symObjAddr: 0x20E34, symBinAddr: 0x100024CE8, symSize: 0x244 }
  - { offset: 0x11A32, size: 0x8, addend: 0x0, symName: __ZNSt3__117__compressed_pairIPNS_11__hash_nodeINS_12basic_stringIcNS_11char_traitsIcEENS_9allocatorIcEEEEPvEENS_22__hash_node_destructorINS5_IS9_EEEEEC1B8ne190107IRSA_SD_EEOT_OT0_, symObjAddr: 0x21078, symBinAddr: 0x100024F2C, symSize: 0x74 }
  - { offset: 0x11A8A, size: 0x8, addend: 0x0, symName: __ZNSt3__117__compressed_pairIPNS_11__hash_nodeINS_12basic_stringIcNS_11char_traitsIcEENS_9allocatorIcEEEEPvEENS_22__hash_node_destructorINS5_IS9_EEEEEC2B8ne190107IRSA_SD_EEOT_OT0_, symObjAddr: 0x210EC, symBinAddr: 0x100024FA0, symSize: 0x168 }
  - { offset: 0x11AE2, size: 0x8, addend: 0x0, symName: __ZNSt3__122__compressed_pair_elemIPNS_11__hash_nodeINS_12basic_stringIcNS_11char_traitsIcEENS_9allocatorIcEEEEPvEELi0ELb0EEC2B8ne190107IRSA_TnNS_9enable_ifIXntsr7is_sameISB_u7__decayIT_EEE5valueEiE4typeELi0EEEOSF_, symObjAddr: 0x21254, symBinAddr: 0x100025108, symSize: 0x124 }
  - { offset: 0x11B29, size: 0x8, addend: 0x0, symName: __ZNSt3__122__compressed_pair_elemINS_22__hash_node_destructorINS_9allocatorINS_11__hash_nodeINS_12basic_stringIcNS_11char_traitsIcEENS2_IcEEEEPvEEEEEELi1ELb0EEC2B8ne190107ISC_TnNS_9enable_ifIXntsr7is_sameISD_u7__decayIT_EEE5valueEiE4typeELi0EEEOSG_, symObjAddr: 0x21378, symBinAddr: 0x10002522C, symSize: 0x70 }
  - { offset: 0x11B70, size: 0x8, addend: 0x0, symName: __ZNSt3__111__hash_nodeINS_12basic_stringIcNS_11char_traitsIcEENS_9allocatorIcEEEEPvEC1B8ne190107EPNS_16__hash_node_baseIPS8_EEm, symObjAddr: 0x2151C, symBinAddr: 0x1000253D0, symSize: 0x74 }
  - { offset: 0x11BB6, size: 0x8, addend: 0x0, symName: __ZNSt3__111__hash_nodeINS_12basic_stringIcNS_11char_traitsIcEENS_9allocatorIcEEEEPvEC2B8ne190107EPNS_16__hash_node_baseIPS8_EEm, symObjAddr: 0x21590, symBinAddr: 0x100025444, symSize: 0x110 }
  - { offset: 0x11BFC, size: 0x8, addend: 0x0, symName: __ZNSt3__116__hash_node_baseIPNS_11__hash_nodeINS_12basic_stringIcNS_11char_traitsIcEENS_9allocatorIcEEEEPvEEEC2B8ne190107EPSB_, symObjAddr: 0x216A0, symBinAddr: 0x100025554, symSize: 0xB8 }
  - { offset: 0x11C34, size: 0x8, addend: 0x0, symName: __ZNKSt3__117__compressed_pairIPNS_11__hash_nodeINS_12basic_stringIcNS_11char_traitsIcEENS_9allocatorIcEEEEPvEENS_22__hash_node_destructorINS5_IS9_EEEEE5firstB8ne190107Ev, symObjAddr: 0x21758, symBinAddr: 0x10002560C, symSize: 0xEC }
  - { offset: 0x11C5A, size: 0x8, addend: 0x0, symName: __ZNKSt3__122__compressed_pair_elemIPNS_11__hash_nodeINS_12basic_stringIcNS_11char_traitsIcEENS_9allocatorIcEEEEPvEELi0ELb0EE5__getB8ne190107Ev, symObjAddr: 0x21844, symBinAddr: 0x1000256F8, symSize: 0x8C }
  - { offset: 0x11C80, size: 0x8, addend: 0x0, symName: __ZNSt3__112basic_stringIcNS_11char_traitsIcEENS_9allocatorIcEEEC1B8ne190107EOS5_, symObjAddr: 0x21A2C, symBinAddr: 0x1000258E0, symSize: 0x6C }
  - { offset: 0x11CB9, size: 0x8, addend: 0x0, symName: __ZNSt3__112basic_stringIcNS_11char_traitsIcEENS_9allocatorIcEEEC2B8ne190107EOS5_, symObjAddr: 0x21A98, symBinAddr: 0x10002594C, symSize: 0x334 }
  - { offset: 0x11D27, size: 0x8, addend: 0x0, symName: __ZZNSt3__112basic_stringIcNS_11char_traitsIcEENS_9allocatorIcEEEC1B8ne190107EOS5_ENKUlRS5_E_clES7_, symObjAddr: 0x21DCC, symBinAddr: 0x100025C80, symSize: 0xE8 }
  - { offset: 0x11D60, size: 0x8, addend: 0x0, symName: __ZNKSt3__112basic_stringIcNS_11char_traitsIcEENS_9allocatorIcEEE17__annotate_deleteB8ne190107Ev, symObjAddr: 0x21EB4, symBinAddr: 0x100025D68, symSize: 0x54 }
  - { offset: 0x11D86, size: 0x8, addend: 0x0, symName: __ZNSt3__117__compressed_pairIPNS_11__hash_nodeINS_12basic_stringIcNS_11char_traitsIcEENS_9allocatorIcEEEEPvEENS_22__hash_node_destructorINS5_IS9_EEEEE6secondB8ne190107Ev, symObjAddr: 0x21F08, symBinAddr: 0x100025DBC, symSize: 0xFC }
  - { offset: 0x11DAC, size: 0x8, addend: 0x0, symName: __ZNSt3__122__compressed_pair_elemINS_22__hash_node_destructorINS_9allocatorINS_11__hash_nodeINS_12basic_stringIcNS_11char_traitsIcEENS2_IcEEEEPvEEEEEELi1ELb0EE5__getB8ne190107Ev, symObjAddr: 0x22004, symBinAddr: 0x100025EB8, symSize: 0x8C }
  - { offset: 0x11DD2, size: 0x8, addend: 0x0, symName: __ZNSt3__117__compressed_pairIPNS_11__hash_nodeINS_12basic_stringIcNS_11char_traitsIcEENS_9allocatorIcEEEEPvEENS_22__hash_node_destructorINS5_IS9_EEEEE5firstB8ne190107Ev, symObjAddr: 0x22090, symBinAddr: 0x100025F44, symSize: 0xEC }
  - { offset: 0x11DF8, size: 0x8, addend: 0x0, symName: __ZNSt3__122__compressed_pair_elemIPNS_11__hash_nodeINS_12basic_stringIcNS_11char_traitsIcEENS_9allocatorIcEEEEPvEELi0ELb0EE5__getB8ne190107Ev, symObjAddr: 0x2217C, symBinAddr: 0x100026030, symSize: 0x8C }
  - { offset: 0x11E1E, size: 0x8, addend: 0x0, symName: __ZNSt3__110unique_ptrINS_11__hash_nodeINS_12basic_stringIcNS_11char_traitsIcEENS_9allocatorIcEEEEPvEENS_22__hash_node_destructorINS5_IS9_EEEEED2B8ne190107Ev, symObjAddr: 0x22208, symBinAddr: 0x1000260BC, symSize: 0x68 }
  - { offset: 0x11E48, size: 0x8, addend: 0x0, symName: __ZNSt3__110unique_ptrINS_11__hash_nodeINS_12basic_stringIcNS_11char_traitsIcEENS_9allocatorIcEEEEPvEENS_22__hash_node_destructorINS5_IS9_EEEEE5resetB8ne190107EPS9_, symObjAddr: 0x22270, symBinAddr: 0x100026124, symSize: 0x254 }
  - { offset: 0x11E8C, size: 0x8, addend: 0x0, symName: __ZNSt3__122__hash_node_destructorINS_9allocatorINS_11__hash_nodeINS_12basic_stringIcNS_11char_traitsIcEENS1_IcEEEEPvEEEEEclB8ne190107EPS9_, symObjAddr: 0x224C4, symBinAddr: 0x100026378, symSize: 0x25C }
  - { offset: 0x11EC1, size: 0x8, addend: 0x0, symName: __ZNSt3__115__hash_iteratorIPNS_11__hash_nodeINS_12basic_stringIcNS_11char_traitsIcEENS_9allocatorIcEEEEPvEEEC2B8ne190107EPNS_16__hash_node_baseISA_EE, symObjAddr: 0x22720, symBinAddr: 0x1000265D4, symSize: 0xB8 }
  - { offset: 0x11EFA, size: 0x8, addend: 0x0, symName: __ZNSt3__14pairINS_15__hash_iteratorIPNS_11__hash_nodeINS_12basic_stringIcNS_11char_traitsIcEENS_9allocatorIcEEEEPvEEEEbEC2B8ne190107ISC_RbTnNS_9enable_ifIXclsr10_CheckArgsE23__is_pair_constructibleIT_T0_EEEiE4typeELi0EEEOSH_OSI_, symObjAddr: 0x227D8, symBinAddr: 0x10002668C, symSize: 0x194 }
  - { offset: 0x11F58, size: 0x8, addend: 0x0, symName: __ZNSt3__14pairINS_21__hash_const_iteratorIPNS_11__hash_nodeINS_12basic_stringIcNS_11char_traitsIcEENS_9allocatorIcEEEEPvEEEEbEC2B8ne190107INS_15__hash_iteratorISB_EEbTnNS_9enable_ifIXclsr10_CheckArgsE23__is_pair_constructibleIT_T0_EEEiE4typeELi0EEEONS0_ISI_SJ_EE, symObjAddr: 0x2296C, symBinAddr: 0x100026820, symSize: 0x1CC }
  - { offset: 0x11FA8, size: 0x8, addend: 0x0, symName: __ZNSt3__121__hash_const_iteratorIPNS_11__hash_nodeINS_12basic_stringIcNS_11char_traitsIcEENS_9allocatorIcEEEEPvEEEC1B8ne190107ERKNS_15__hash_iteratorISA_EE, symObjAddr: 0x22B38, symBinAddr: 0x1000269EC, symSize: 0x6C }
  - { offset: 0x11FE1, size: 0x8, addend: 0x0, symName: __ZNSt3__121__hash_const_iteratorIPNS_11__hash_nodeINS_12basic_stringIcNS_11char_traitsIcEENS_9allocatorIcEEEEPvEEEC2B8ne190107ERKNS_15__hash_iteratorISA_EE, symObjAddr: 0x22BA4, symBinAddr: 0x100026A58, symSize: 0x110 }
  - { offset: 0x1201A, size: 0x8, addend: 0x0, symName: __ZNSt3__112__hash_tableINS_12basic_stringIcNS_11char_traitsIcEENS_9allocatorIcEEEENS_4hashIS6_EENS_8equal_toIS6_EENS4_IS6_EEE5beginEv, symObjAddr: 0x22CB4, symBinAddr: 0x100026B68, symSize: 0x2D4 }
  - { offset: 0x12043, size: 0x8, addend: 0x0, symName: __ZNSt3__112__hash_tableINS_12basic_stringIcNS_11char_traitsIcEENS_9allocatorIcEEEENS_4hashIS6_EENS_8equal_toIS6_EENS4_IS6_EEE3endEv, symObjAddr: 0x22F88, symBinAddr: 0x100026E3C, symSize: 0x1E4 }
...
