---
triple:          'arm64-apple-darwin'
binary-path:     dedup
relocations:
  - { offset: 0x3B, size: 0x8, addend: 0x0, symName: _.str, symObjAddr: 0x17DC0, symBinAddr: 0x100018880, symSize: 0x0 }
  - { offset: 0x6B, size: 0x8, addend: 0x0, symName: _.str.1, symObjAddr: 0x17DE0, symBinAddr: 0x1000188A0, symSize: 0x0 }
  - { offset: 0x88, size: 0x8, addend: 0x0, symName: _.str.2, symObjAddr: 0x17E00, symBinAddr: 0x1000188C0, symSize: 0x0 }
  - { offset: 0xA6, size: 0x8, addend: 0x0, symName: _.str.6, symObjAddr: 0x17E20, symBinAddr: 0x1000188E0, symSize: 0x0 }
  - { offset: 0x4ECD, size: 0x8, addend: 0x0, symName: __ZNSt3__17advanceB8ne190107IPNS_12basic_stringIcNS_11char_traitsIcEENS_9allocatorIcEEEEllTnNS_9enable_ifIXsr11is_integralIT1_EE5valueEiE4typeELi0EEEvRT_T0_, symObjAddr: 0xCCF8, symBinAddr: 0x1000112A4, symSize: 0x0 }
  - { offset: 0x4F3D, size: 0x8, addend: 0x0, symName: __ZNSt3__124__put_character_sequenceB8ne190107IcNS_11char_traitsIcEEEERNS_13basic_ostreamIT_T0_EES7_PKS4_m, symObjAddr: 0xDDA8, symBinAddr: 0x100012354, symSize: 0x0 }
  - { offset: 0x6214, size: 0x8, addend: 0x0, symName: __ZNSt3__1eqB8ne190107INS_9allocatorIcEEEEbRKNS_12basic_stringIcNS_11char_traitsIcEET_EES9_, symObjAddr: 0x5F8, symBinAddr: 0x100004BA4, symSize: 0x0 }
  - { offset: 0x6269, size: 0x8, addend: 0x0, symName: __ZNSt3__1eqB8ne190107IPNS_12basic_stringIcNS_11char_traitsIcEENS_9allocatorIcEEEEEEbRKNS_11__wrap_iterIT_EESC_, symObjAddr: 0x1B04, symBinAddr: 0x1000060B0, symSize: 0x0 }
  - { offset: 0x62AC, size: 0x8, addend: 0x0, symName: __ZNSt3__1lsB8ne190107IcNS_11char_traitsIcEENS_9allocatorIcEEEERNS_13basic_ostreamIT_T0_EES9_RKNS_12basic_stringIS6_S7_T1_EE, symObjAddr: 0x1C70, symBinAddr: 0x10000621C, symSize: 0x0 }
  - { offset: 0x6304, size: 0x8, addend: 0x0, symName: __ZNSt3__14endlB8ne190107IcNS_11char_traitsIcEEEERNS_13basic_ostreamIT_T0_EES7_, symObjAddr: 0x1EA0, symBinAddr: 0x10000644C, symSize: 0x0 }
  - { offset: 0x6344, size: 0x8, addend: 0x0, symName: __ZNSt3__112__to_addressB8ne190107IKcEEPT_S3_, symObjAddr: 0x2AE4, symBinAddr: 0x100007090, symSize: 0x0 }
  - { offset: 0x63AC, size: 0x8, addend: 0x0, symName: __ZNSt3__120__throw_out_of_rangeB8ne190107EPKc, symObjAddr: 0x2EDC, symBinAddr: 0x100007488, symSize: 0x0 }
  - { offset: 0x63D4, size: 0x8, addend: 0x0, symName: __ZNSt3__1miB8ne190107IPKNS_12basic_stringIcNS_11char_traitsIcEENS_9allocatorIcEEEES8_EEDTmicldtfp_4baseEcldtfp0_4baseEERKNS_11__wrap_iterIT_EERKNSA_IT0_EE, symObjAddr: 0x30FC, symBinAddr: 0x1000076A8, symSize: 0x0 }
  - { offset: 0x6420, size: 0x8, addend: 0x0, symName: __ZNSt3__14moveB8ne190107IPNS_12basic_stringIcNS_11char_traitsIcEENS_9allocatorIcEEEES7_EET0_T_S9_S8_, symObjAddr: 0x327C, symBinAddr: 0x100007828, symSize: 0x0 }
  - { offset: 0x647D, size: 0x8, addend: 0x0, symName: __ZNSt3__112__to_addressB8ne190107INS_12basic_stringIcNS_11char_traitsIcEENS_9allocatorIcEEEEEEPT_S8_, symObjAddr: 0x3F90, symBinAddr: 0x10000853C, symSize: 0x0 }
  - { offset: 0x64B2, size: 0x8, addend: 0x0, symName: __ZNSt3__112__destroy_atB8ne190107INS_12basic_stringIcNS_11char_traitsIcEENS_9allocatorIcEEEETnNS_9enable_ifIXntsr8is_arrayIT_EE5valueEiE4typeELi0EEEvPS8_, symObjAddr: 0x3FBC, symBinAddr: 0x100008568, symSize: 0x0 }
  - { offset: 0x64E9, size: 0x8, addend: 0x0, symName: __ZNSt3__131__annotate_contiguous_containerB8ne190107INS_9allocatorINS_12basic_stringIcNS_11char_traitsIcEENS1_IcEEEEEEEEvPKvS9_S9_S9_, symObjAddr: 0x4334, symBinAddr: 0x1000088E0, symSize: 0x0 }
  - { offset: 0x6544, size: 0x8, addend: 0x0, symName: __ZNSt3__16__moveB8ne190107INS_17_ClassicAlgPolicyEPNS_12basic_stringIcNS_11char_traitsIcEENS_9allocatorIcEEEES8_S8_EENS_4pairIT0_T2_EESA_T1_SB_, symObjAddr: 0x46FC, symBinAddr: 0x100008CA8, symSize: 0x0 }
  - { offset: 0x65B0, size: 0x8, addend: 0x0, symName: __ZNSt3__124__copy_move_unwrap_itersB8ne190107INS_11__move_implINS_17_ClassicAlgPolicyEEEPNS_12basic_stringIcNS_11char_traitsIcEENS_9allocatorIcEEEESA_SA_TnNS_9enable_ifIXsr12__can_rewrapIT0_T2_EE5valueEiE4typeELi0EEENS_4pairISC_SD_EESC_T1_SD_, symObjAddr: 0x4748, symBinAddr: 0x100008CF4, symSize: 0x0 }
  - { offset: 0x6649, size: 0x8, addend: 0x0, symName: __ZNSt3__114__unwrap_rangeB8ne190107IPNS_12basic_stringIcNS_11char_traitsIcEENS_9allocatorIcEEEES7_EEDaT_T0_, symObjAddr: 0x4B08, symBinAddr: 0x1000090B4, symSize: 0x0 }
  - { offset: 0x67C4, size: 0x8, addend: 0x0, symName: __ZNSt3__113__unwrap_iterB8ne190107IPNS_12basic_stringIcNS_11char_traitsIcEENS_9allocatorIcEEEENS_18__unwrap_iter_implIS7_Lb1EEETnNS_9enable_ifIXsr21is_copy_constructibleIT_EE5valueEiE4typeELi0EEEDTclsrT0_8__unwrapclsr3stdE7declvalISB_EEEESB_, symObjAddr: 0x4F24, symBinAddr: 0x1000094D0, symSize: 0x0 }
  - { offset: 0x6808, size: 0x8, addend: 0x0, symName: __ZNSt3__19make_pairB8ne190107IPNS_12basic_stringIcNS_11char_traitsIcEENS_9allocatorIcEEEES7_EENS_4pairINS_18__unwrap_ref_decayIT_E4typeENS9_IT0_E4typeEEEOSA_OSD_, symObjAddr: 0x4F50, symBinAddr: 0x1000094FC, symSize: 0x0 }
  - { offset: 0x6859, size: 0x8, addend: 0x0, symName: __ZNSt3__114__rewrap_rangeB8ne190107IPNS_12basic_stringIcNS_11char_traitsIcEENS_9allocatorIcEEEES7_S7_EET0_S8_T1_, symObjAddr: 0x5188, symBinAddr: 0x100009734, symSize: 0x0 }
  - { offset: 0x68AE, size: 0x8, addend: 0x0, symName: __ZNSt3__113__rewrap_iterB8ne190107IPNS_12basic_stringIcNS_11char_traitsIcEENS_9allocatorIcEEEES7_NS_18__unwrap_iter_implIS7_Lb1EEEEET_SA_T0_, symObjAddr: 0x51BC, symBinAddr: 0x100009768, symSize: 0x0 }
  - { offset: 0x69B5, size: 0x8, addend: 0x0, symName: __ZNSt3__119__libcpp_deallocateB8ne190107EPvmm, symObjAddr: 0x6958, symBinAddr: 0x10000AF04, symSize: 0x0 }
  - { offset: 0x6A1A, size: 0x8, addend: 0x0, symName: __ZNSt3__124__is_overaligned_for_newB8ne190107Em, symObjAddr: 0x69C0, symBinAddr: 0x10000AF6C, symSize: 0x0 }
  - { offset: 0x6A46, size: 0x8, addend: 0x0, symName: __ZNSt3__127__do_deallocate_handle_sizeB8ne190107IJSt11align_val_tEEEvPvmDpT_, symObjAddr: 0x69E4, symBinAddr: 0x10000AF90, symSize: 0x0 }
  - { offset: 0x6A99, size: 0x8, addend: 0x0, symName: __ZNSt3__127__do_deallocate_handle_sizeB8ne190107IJEEEvPvmDpT_, symObjAddr: 0x6A20, symBinAddr: 0x10000AFCC, symSize: 0x0 }
  - { offset: 0x6AD7, size: 0x8, addend: 0x0, symName: __ZNSt3__124__libcpp_operator_deleteB8ne190107IJPvmSt11align_val_tEEEvDpT_, symObjAddr: 0x6A54, symBinAddr: 0x10000B000, symSize: 0x0 }
  - { offset: 0x6B34, size: 0x8, addend: 0x0, symName: __ZNSt3__124__libcpp_operator_deleteB8ne190107IJPvmEEEvDpT_, symObjAddr: 0x6A90, symBinAddr: 0x10000B03C, symSize: 0x0 }
  - { offset: 0x6BD0, size: 0x8, addend: 0x0, symName: __ZNSt3__118__constexpr_strlenB8ne190107IcEEmPKT_, symObjAddr: 0x7848, symBinAddr: 0x10000BDF4, symSize: 0x0 }
  - { offset: 0x6C05, size: 0x8, addend: 0x0, symName: __ZNSt3__122__make_exception_guardB8ne190107INS_6vectorINS_12basic_stringIcNS_11char_traitsIcEENS_9allocatorIcEEEENS5_IS7_EEE16__destroy_vectorEEENS_28__exception_guard_exceptionsIT_EESC_, symObjAddr: 0x7DAC, symBinAddr: 0x10000C358, symSize: 0x0 }
  - { offset: 0x6C3A, size: 0x8, addend: 0x0, symName: __ZNSt3__119__allocate_at_leastB8ne190107INS_9allocatorINS_12basic_stringIcNS_11char_traitsIcEENS1_IcEEEEEEEENS_19__allocation_resultINS_16allocator_traitsIT_E7pointerEEERSA_m, symObjAddr: 0x9358, symBinAddr: 0x10000D904, symSize: 0x0 }
  - { offset: 0x6C7D, size: 0x8, addend: 0x0, symName: __ZNSt3__13minB8ne190107ImEERKT_S3_S3_, symObjAddr: 0x9678, symBinAddr: 0x10000DC24, symSize: 0x0 }
  - { offset: 0x6EAA, size: 0x8, addend: 0x0, symName: __ZNSt3__13minB8ne190107ImNS_6__lessIvvEEEERKT_S5_S5_T0_, symObjAddr: 0x9890, symBinAddr: 0x10000DE3C, symSize: 0x0 }
  - { offset: 0x713B, size: 0x8, addend: 0x0, symName: __ZNSt3__120__throw_length_errorB8ne190107EPKc, symObjAddr: 0x9D3C, symBinAddr: 0x10000E2E8, symSize: 0x0 }
  - { offset: 0x7163, size: 0x8, addend: 0x0, symName: __ZNSt3__117__libcpp_allocateB8ne190107Emm, symObjAddr: 0xA08C, symBinAddr: 0x10000E638, symSize: 0x0 }
  - { offset: 0x71BD, size: 0x8, addend: 0x0, symName: __ZNSt3__121__libcpp_operator_newB8ne190107IJmSt11align_val_tEEEPvDpT_, symObjAddr: 0xA0F4, symBinAddr: 0x10000E6A0, symSize: 0x0 }
  - { offset: 0x720A, size: 0x8, addend: 0x0, symName: __ZNSt3__121__libcpp_operator_newB8ne190107IJmEEEPvDpT_, symObjAddr: 0xA164, symBinAddr: 0x10000E710, symSize: 0x0 }
  - { offset: 0x7243, size: 0x8, addend: 0x0, symName: __ZNSt3__130__uninitialized_allocator_copyB8ne190107INS_9allocatorINS_12basic_stringIcNS_11char_traitsIcEENS1_IcEEEEEEPKS6_S9_PS6_EET2_RT_T0_T1_SB_, symObjAddr: 0xA37C, symBinAddr: 0x10000E928, symSize: 0x0 }
  - { offset: 0x72E9, size: 0x8, addend: 0x0, symName: __ZNSt3__114__unwrap_rangeB8ne190107IPKNS_12basic_stringIcNS_11char_traitsIcEENS_9allocatorIcEEEES8_EEDaT_T0_, symObjAddr: 0xAC68, symBinAddr: 0x10000F214, symSize: 0x0 }
  - { offset: 0x7335, size: 0x8, addend: 0x0, symName: __ZNSt3__135__uninitialized_allocator_copy_implB8ne190107INS_9allocatorINS_12basic_stringIcNS_11char_traitsIcEENS1_IcEEEEEEPKS6_S9_PS6_EET2_RT_T0_T1_SB_, symObjAddr: 0xACAC, symBinAddr: 0x10000F258, symSize: 0x0 }
  - { offset: 0x74E3, size: 0x8, addend: 0x0, symName: __ZNSt3__113__unwrap_iterB8ne190107IPKNS_12basic_stringIcNS_11char_traitsIcEENS_9allocatorIcEEEENS_18__unwrap_iter_implIS8_Lb1EEETnNS_9enable_ifIXsr21is_copy_constructibleIT_EE5valueEiE4typeELi0EEEDTclsrT0_8__unwrapclsr3stdE7declvalISC_EEEESC_, symObjAddr: 0xB424, symBinAddr: 0x10000F9D0, symSize: 0x0 }
  - { offset: 0x757A, size: 0x8, addend: 0x0, symName: __ZNSt3__112__to_addressB8ne190107IKNS_12basic_stringIcNS_11char_traitsIcEENS_9allocatorIcEEEEEEPT_S9_, symObjAddr: 0xB4F0, symBinAddr: 0x10000FA9C, symSize: 0x0 }
  - { offset: 0x75AF, size: 0x8, addend: 0x0, symName: __ZNSt3__122__make_exception_guardB8ne190107INS_29_AllocatorDestroyRangeReverseINS_9allocatorINS_12basic_stringIcNS_11char_traitsIcEENS2_IcEEEEEEPS7_EEEENS_28__exception_guard_exceptionsIT_EESC_, symObjAddr: 0xB6E4, symBinAddr: 0x10000FC90, symSize: 0x0 }
  - { offset: 0x75E6, size: 0x8, addend: 0x0, symName: __ZNSt3__114__construct_atB8ne190107INS_12basic_stringIcNS_11char_traitsIcEENS_9allocatorIcEEEEJRKS6_EPS6_EEPT_SB_DpOT0_, symObjAddr: 0xBE24, symBinAddr: 0x1000103D0, symSize: 0x0 }
  - { offset: 0x765E, size: 0x8, addend: 0x0, symName: __ZNSt3__112construct_atB8ne190107INS_12basic_stringIcNS_11char_traitsIcEENS_9allocatorIcEEEEJRKS6_EPS6_EEPT_SB_DpOT0_, symObjAddr: 0xBE98, symBinAddr: 0x100010444, symSize: 0x0 }
  - { offset: 0x76CE, size: 0x8, addend: 0x0, symName: __ZNSt3__119__allocator_destroyB8ne190107INS_9allocatorINS_12basic_stringIcNS_11char_traitsIcEENS1_IcEEEEEENS_16reverse_iteratorIPS6_EESA_EEvRT_T0_T1_, symObjAddr: 0xC414, symBinAddr: 0x1000109C0, symSize: 0x0 }
  - { offset: 0x773A, size: 0x8, addend: 0x0, symName: __ZNSt3__1neB8ne190107IPNS_12basic_stringIcNS_11char_traitsIcEENS_9allocatorIcEEEES7_EEbRKNS_16reverse_iteratorIT_EERKNS8_IT0_EEQrqXnecldtfp_4baseEcldtfp0_4baseERNS_14convertible_toIbEEE, symObjAddr: 0xC6CC, symBinAddr: 0x100010C78, symSize: 0x0 }
  - { offset: 0x7786, size: 0x8, addend: 0x0, symName: __ZNSt3__112__to_addressB8ne190107INS_16reverse_iteratorIPNS_12basic_stringIcNS_11char_traitsIcEENS_9allocatorIcEEEEEETnNS_9enable_ifIXsr4_AndINS_8is_classIT_EENS_15_IsFancyPointerISC_EEEE5valueEiE4typeELi0EEEu7__decayIDTclsr19__to_address_helperISC_EE6__callclsr3stdE7declvalIRKSC_EEEEESJ_, symObjAddr: 0xC764, symBinAddr: 0x100010D10, symSize: 0x0 }
  - { offset: 0x77EA, size: 0x8, addend: 0x0, symName: __ZNSt3__14prevB8ne190107IPNS_12basic_stringIcNS_11char_traitsIcEENS_9allocatorIcEEEETnNS_9enable_ifIXsr29__has_input_iterator_categoryIT_EE5valueEiE4typeELi0EEES9_S9_NS_15iterator_traitsIS9_E15difference_typeE, symObjAddr: 0xCB04, symBinAddr: 0x1000110B0, symSize: 0x0 }
  - { offset: 0x7838, size: 0x8, addend: 0x0, symName: __ZNSt3__121__convert_to_integralB8ne190107El, symObjAddr: 0xCD70, symBinAddr: 0x10001131C, symSize: 0x0 }
  - { offset: 0x7864, size: 0x8, addend: 0x0, symName: __ZNSt3__19__advanceB8ne190107IPNS_12basic_stringIcNS_11char_traitsIcEENS_9allocatorIcEEEEEEvRT_NS_15iterator_traitsIS8_E15difference_typeENS_26random_access_iterator_tagE, symObjAddr: 0xCD8C, symBinAddr: 0x100011338, symSize: 0x0 }
  - { offset: 0x78AD, size: 0x8, addend: 0x0, symName: __ZNSt3__116__pad_and_outputB8ne190107IcNS_11char_traitsIcEEEENS_19ostreambuf_iteratorIT_T0_EES6_PKS4_S8_S8_RNS_8ios_baseES4_, symObjAddr: 0xEC5C, symBinAddr: 0x100013208, symSize: 0x0 }
  - { offset: 0x7987, size: 0x8, addend: 0x0, symName: __ZNSt3__112__to_addressB8ne190107IcEEPT_S2_, symObjAddr: 0x101B0, symBinAddr: 0x10001475C, symSize: 0x0 }
  - { offset: 0x79BC, size: 0x8, addend: 0x0, symName: __ZNSt3__19use_facetB8ne190107INS_5ctypeIcEEEERKT_RKNS_6localeE, symObjAddr: 0x10E14, symBinAddr: 0x1000153C0, symSize: 0x0 }
  - { offset: 0x8D81, size: 0x8, addend: 0x0, symName: __ZSt28__throw_bad_array_new_lengthB8ne190107v, symObjAddr: 0xA018, symBinAddr: 0x10000E5C4, symSize: 0x0 }
  - { offset: 0x93A7, size: 0x8, addend: 0x0, symName: __Z11deduplicateRNSt3__16vectorINS_12basic_stringIcNS_11char_traitsIcEENS_9allocatorIcEEEENS4_IS6_EEEE, symObjAddr: 0x8, symBinAddr: 0x1000045B4, symSize: 0x0 }
  - { offset: 0x93EE, size: 0x8, addend: 0x0, symName: __ZNKSt3__16vectorINS_12basic_stringIcNS_11char_traitsIcEENS_9allocatorIcEEEENS4_IS6_EEE4sizeB8ne190107Ev, symObjAddr: 0x510, symBinAddr: 0x100004ABC, symSize: 0xE0 }
  - { offset: 0x9414, size: 0x8, addend: 0x0, symName: __ZNSt3__16vectorINS_12basic_stringIcNS_11char_traitsIcEENS_9allocatorIcEEEENS4_IS6_EEE2atEm, symObjAddr: 0x748, symBinAddr: 0x100004CF4, symSize: 0x1D0 }
  - { offset: 0x9449, size: 0x8, addend: 0x0, symName: __ZNSt3__16vectorINS_12basic_stringIcNS_11char_traitsIcEENS_9allocatorIcEEEENS4_IS6_EEE5eraseB8ne190107ENS_11__wrap_iterIPKS6_EE, symObjAddr: 0x918, symBinAddr: 0x100004EC4, symSize: 0x438 }
  - { offset: 0x94A3, size: 0x8, addend: 0x0, symName: __ZNSt3__16vectorINS_12basic_stringIcNS_11char_traitsIcEENS_9allocatorIcEEEENS4_IS6_EEE5beginB8ne190107Ev, symObjAddr: 0xD50, symBinAddr: 0x1000052FC, symSize: 0xA8 }
  - { offset: 0x94C9, size: 0x8, addend: 0x0, symName: __ZNKSt3__111__wrap_iterIPNS_12basic_stringIcNS_11char_traitsIcEENS_9allocatorIcEEEEEplB8ne190107El, symObjAddr: 0xDF8, symBinAddr: 0x1000053A4, symSize: 0x1F8 }
  - { offset: 0x9516, size: 0x8, addend: 0x0, symName: __ZNSt3__111__wrap_iterIPKNS_12basic_stringIcNS_11char_traitsIcEENS_9allocatorIcEEEEEC1B8ne190107IPS6_TnNS_9enable_ifIXsr14is_convertibleIT_S8_EE5valueEiE4typeELi0EEERKNS0_ISD_EE, symObjAddr: 0xFF0, symBinAddr: 0x10000559C, symSize: 0x6C }
  - { offset: 0x955D, size: 0x8, addend: 0x0, symName: _main, symObjAddr: 0x1064, symBinAddr: 0x100005610, symSize: 0x0 }
  - { offset: 0x95DC, size: 0x8, addend: 0x0, symName: __ZNSt3__112basic_stringIcNS_11char_traitsIcEENS_9allocatorIcEEEC1B8ne190107ILi0EEEPKc, symObjAddr: 0x1970, symBinAddr: 0x100005F1C, symSize: 0x6C }
  - { offset: 0x961B, size: 0x8, addend: 0x0, symName: __ZNSt3__16vectorINS_12basic_stringIcNS_11char_traitsIcEENS_9allocatorIcEEEENS4_IS6_EEEC1B8ne190107ESt16initializer_listIS6_E, symObjAddr: 0x19DC, symBinAddr: 0x100005F88, symSize: 0x74 }
  - { offset: 0x9656, size: 0x8, addend: 0x0, symName: __ZNSt3__16vectorINS_12basic_stringIcNS_11char_traitsIcEENS_9allocatorIcEEEENS4_IS6_EEE3endB8ne190107Ev, symObjAddr: 0x1A50, symBinAddr: 0x100005FFC, symSize: 0xAC }
  - { offset: 0x967E, size: 0x8, addend: 0x0, symName: __ZNKSt3__111__wrap_iterIPNS_12basic_stringIcNS_11char_traitsIcEENS_9allocatorIcEEEEEdeB8ne190107Ev, symObjAddr: 0x1B94, symBinAddr: 0x100006140, symSize: 0xD4 }
  - { offset: 0x96A4, size: 0x8, addend: 0x0, symName: __ZNSt3__113basic_ostreamIcNS_11char_traitsIcEEElsB8ne190107EPFRS3_S4_E, symObjAddr: 0x1D74, symBinAddr: 0x100006320, symSize: 0x124 }
  - { offset: 0x96D8, size: 0x8, addend: 0x0, symName: __ZNSt3__111__wrap_iterIPNS_12basic_stringIcNS_11char_traitsIcEENS_9allocatorIcEEEEEppB8ne190107Ev, symObjAddr: 0x21E8, symBinAddr: 0x100006794, symSize: 0x178 }
  - { offset: 0x96FE, size: 0x8, addend: 0x0, symName: __ZNSt3__16vectorINS_12basic_stringIcNS_11char_traitsIcEENS_9allocatorIcEEEENS4_IS6_EEED1B8ne190107Ev, symObjAddr: 0x2360, symBinAddr: 0x10000690C, symSize: 0x64 }
  - { offset: 0x9728, size: 0x8, addend: 0x0, symName: __ZNKSt3__112basic_stringIcNS_11char_traitsIcEENS_9allocatorIcEEE4sizeB8ne190107Ev, symObjAddr: 0x23C4, symBinAddr: 0x100006970, symSize: 0x88 }
  - { offset: 0x974E, size: 0x8, addend: 0x0, symName: __ZNSt3__111char_traitsIcE7compareB8ne190107EPKcS3_m, symObjAddr: 0x2454, symBinAddr: 0x100006A00, symSize: 0x0 }
  - { offset: 0x978D, size: 0x8, addend: 0x0, symName: __ZNKSt3__112basic_stringIcNS_11char_traitsIcEENS_9allocatorIcEEE4dataB8ne190107Ev, symObjAddr: 0x2488, symBinAddr: 0x100006A34, symSize: 0x60 }
  - { offset: 0x97B3, size: 0x8, addend: 0x0, symName: __ZNKSt3__112basic_stringIcNS_11char_traitsIcEENS_9allocatorIcEEE9__is_longB8ne190107Ev, symObjAddr: 0x24E8, symBinAddr: 0x100006A94, symSize: 0x178 }
  - { offset: 0x97D9, size: 0x8, addend: 0x0, symName: __ZNKSt3__112basic_stringIcNS_11char_traitsIcEENS_9allocatorIcEEE15__get_long_sizeB8ne190107Ev, symObjAddr: 0x2660, symBinAddr: 0x100006C0C, symSize: 0x18C }
  - { offset: 0x97FF, size: 0x8, addend: 0x0, symName: __ZNKSt3__112basic_stringIcNS_11char_traitsIcEENS_9allocatorIcEEE16__get_short_sizeB8ne190107Ev, symObjAddr: 0x27EC, symBinAddr: 0x100006D98, symSize: 0x178 }
  - { offset: 0x9825, size: 0x8, addend: 0x0, symName: __ZNKSt3__117__compressed_pairINS_12basic_stringIcNS_11char_traitsIcEENS_9allocatorIcEEE5__repES5_E5firstB8ne190107Ev, symObjAddr: 0x2964, symBinAddr: 0x100006F10, symSize: 0xEC }
  - { offset: 0x984B, size: 0x8, addend: 0x0, symName: __ZNKSt3__122__compressed_pair_elemINS_12basic_stringIcNS_11char_traitsIcEENS_9allocatorIcEEE5__repELi0ELb0EE5__getB8ne190107Ev, symObjAddr: 0x2A50, symBinAddr: 0x100006FFC, symSize: 0x8C }
  - { offset: 0x9871, size: 0x8, addend: 0x0, symName: __ZNKSt3__112basic_stringIcNS_11char_traitsIcEENS_9allocatorIcEEE13__get_pointerB8ne190107Ev, symObjAddr: 0x2AF8, symBinAddr: 0x1000070A4, symSize: 0x88 }
  - { offset: 0x9897, size: 0x8, addend: 0x0, symName: __ZNKSt3__112basic_stringIcNS_11char_traitsIcEENS_9allocatorIcEEE18__get_long_pointerB8ne190107Ev, symObjAddr: 0x2B80, symBinAddr: 0x10000712C, symSize: 0x184 }
  - { offset: 0x98BD, size: 0x8, addend: 0x0, symName: __ZNKSt3__112basic_stringIcNS_11char_traitsIcEENS_9allocatorIcEEE19__get_short_pointerB8ne190107Ev, symObjAddr: 0x2D04, symBinAddr: 0x1000072B0, symSize: 0x140 }
  - { offset: 0x98E3, size: 0x8, addend: 0x0, symName: __ZNSt3__114pointer_traitsIPKcE10pointer_toB8ne190107ERS1_, symObjAddr: 0x2E4C, symBinAddr: 0x1000073F8, symSize: 0x0 }
  - { offset: 0x9906, size: 0x8, addend: 0x0, symName: __ZNKSt3__16vectorINS_12basic_stringIcNS_11char_traitsIcEENS_9allocatorIcEEEENS4_IS6_EEE20__throw_out_of_rangeB8ne190107Ev, symObjAddr: 0x2E60, symBinAddr: 0x10000740C, symSize: 0x74 }
  - { offset: 0x992C, size: 0x8, addend: 0x0, symName: __ZNSt12out_of_rangeC1B8ne190107EPKc, symObjAddr: 0x2F80, symBinAddr: 0x10000752C, symSize: 0x6C }
  - { offset: 0x9964, size: 0x8, addend: 0x0, symName: __ZNSt12out_of_rangeC2B8ne190107EPKc, symObjAddr: 0x2FEC, symBinAddr: 0x100007598, symSize: 0x108 }
  - { offset: 0x999C, size: 0x8, addend: 0x0, symName: __ZNKSt3__16vectorINS_12basic_stringIcNS_11char_traitsIcEENS_9allocatorIcEEEENS4_IS6_EEE6cbeginB8ne190107Ev, symObjAddr: 0x3190, symBinAddr: 0x10000773C, symSize: 0x64 }
  - { offset: 0x99C2, size: 0x8, addend: 0x0, symName: __ZNSt3__16vectorINS_12basic_stringIcNS_11char_traitsIcEENS_9allocatorIcEEEENS4_IS6_EEE17__destruct_at_endB8ne190107EPS6_, symObjAddr: 0x31F4, symBinAddr: 0x1000077A0, symSize: 0x80 }
  - { offset: 0x9A06, size: 0x8, addend: 0x0, symName: __ZNSt3__16vectorINS_12basic_stringIcNS_11char_traitsIcEENS_9allocatorIcEEEENS4_IS6_EEE11__make_iterB8ne190107EPS6_, symObjAddr: 0x3494, symBinAddr: 0x100007A40, symSize: 0x1E8 }
  - { offset: 0x9A3D, size: 0x8, addend: 0x0, symName: __ZNKSt3__111__wrap_iterIPKNS_12basic_stringIcNS_11char_traitsIcEENS_9allocatorIcEEEEE4baseB8ne190107Ev, symObjAddr: 0x367C, symBinAddr: 0x100007C28, symSize: 0x9C }
  - { offset: 0x9A63, size: 0x8, addend: 0x0, symName: __ZNKSt3__16vectorINS_12basic_stringIcNS_11char_traitsIcEENS_9allocatorIcEEEENS4_IS6_EEE5beginB8ne190107Ev, symObjAddr: 0x3718, symBinAddr: 0x100007CC4, symSize: 0xA8 }
  - { offset: 0x9A89, size: 0x8, addend: 0x0, symName: __ZNKSt3__16vectorINS_12basic_stringIcNS_11char_traitsIcEENS_9allocatorIcEEEENS4_IS6_EEE11__make_iterB8ne190107EPKS6_, symObjAddr: 0x37C0, symBinAddr: 0x100007D6C, symSize: 0x1E8 }
  - { offset: 0x9AC0, size: 0x8, addend: 0x0, symName: __ZNSt3__111__wrap_iterIPKNS_12basic_stringIcNS_11char_traitsIcEENS_9allocatorIcEEEEEC1B8ne190107ES8_, symObjAddr: 0x39A8, symBinAddr: 0x100007F54, symSize: 0x6C }
  - { offset: 0x9AF8, size: 0x8, addend: 0x0, symName: __ZNSt3__111__wrap_iterIPKNS_12basic_stringIcNS_11char_traitsIcEENS_9allocatorIcEEEEEC2B8ne190107ES8_, symObjAddr: 0x3A14, symBinAddr: 0x100007FC0, symSize: 0xB8 }
  - { offset: 0x9B30, size: 0x8, addend: 0x0, symName: __ZNSt3__16vectorINS_12basic_stringIcNS_11char_traitsIcEENS_9allocatorIcEEEENS4_IS6_EEE22__base_destruct_at_endB8ne190107EPS6_, symObjAddr: 0x3ACC, symBinAddr: 0x100008078, symSize: 0x1C8 }
  - { offset: 0x9B74, size: 0x8, addend: 0x0, symName: __ZNKSt3__16vectorINS_12basic_stringIcNS_11char_traitsIcEENS_9allocatorIcEEEENS4_IS6_EEE17__annotate_shrinkB8ne190107Em, symObjAddr: 0x3C94, symBinAddr: 0x100008240, symSize: 0x200 }
  - { offset: 0x9BA9, size: 0x8, addend: 0x0, symName: __ZNSt3__116allocator_traitsINS_9allocatorINS_12basic_stringIcNS_11char_traitsIcEENS1_IcEEEEEEE7destroyB8ne190107IS6_vTnNS_9enable_ifIXntsr13__has_destroyIS7_PT_EE5valueEiE4typeELi0EEEvRS7_SC_, symObjAddr: 0x3E9C, symBinAddr: 0x100008448, symSize: 0x0 }
  - { offset: 0x9BE9, size: 0x8, addend: 0x0, symName: __ZNSt3__16vectorINS_12basic_stringIcNS_11char_traitsIcEENS_9allocatorIcEEEENS4_IS6_EEE7__allocB8ne190107Ev, symObjAddr: 0x3EC4, symBinAddr: 0x100008470, symSize: 0xC4 }
  - { offset: 0x9C0F, size: 0x8, addend: 0x0, symName: __ZNSt3__117__compressed_pairIPNS_12basic_stringIcNS_11char_traitsIcEENS_9allocatorIcEEEENS4_IS6_EEE6secondB8ne190107Ev, symObjAddr: 0x4018, symBinAddr: 0x1000085C4, symSize: 0xC4 }
  - { offset: 0x9C35, size: 0x8, addend: 0x0, symName: __ZNSt3__122__compressed_pair_elemINS_9allocatorINS_12basic_stringIcNS_11char_traitsIcEENS1_IcEEEEEELi1ELb1EE5__getB8ne190107Ev, symObjAddr: 0x40DC, symBinAddr: 0x100008688, symSize: 0x64 }
  - { offset: 0x9C5B, size: 0x8, addend: 0x0, symName: __ZNKSt3__16vectorINS_12basic_stringIcNS_11char_traitsIcEENS_9allocatorIcEEEENS4_IS6_EEE31__annotate_contiguous_containerB8ne190107EPKvSA_, symObjAddr: 0x4140, symBinAddr: 0x1000086EC, symSize: 0x14C }
  - { offset: 0x9C9F, size: 0x8, addend: 0x0, symName: __ZNKSt3__16vectorINS_12basic_stringIcNS_11char_traitsIcEENS_9allocatorIcEEEENS4_IS6_EEE4dataB8ne190107Ev, symObjAddr: 0x428C, symBinAddr: 0x100008838, symSize: 0xA0 }
  - { offset: 0x9CC5, size: 0x8, addend: 0x0, symName: __ZNKSt3__16vectorINS_12basic_stringIcNS_11char_traitsIcEENS_9allocatorIcEEEENS4_IS6_EEE8capacityB8ne190107Ev, symObjAddr: 0x4380, symBinAddr: 0x10000892C, symSize: 0x124 }
  - { offset: 0x9CEB, size: 0x8, addend: 0x0, symName: __ZNKSt3__16vectorINS_12basic_stringIcNS_11char_traitsIcEENS_9allocatorIcEEEENS4_IS6_EEE9__end_capB8ne190107Ev, symObjAddr: 0x44A4, symBinAddr: 0x100008A50, symSize: 0xD8 }
  - { offset: 0x9D11, size: 0x8, addend: 0x0, symName: __ZNKSt3__117__compressed_pairIPNS_12basic_stringIcNS_11char_traitsIcEENS_9allocatorIcEEEENS4_IS6_EEE5firstB8ne190107Ev, symObjAddr: 0x457C, symBinAddr: 0x100008B28, symSize: 0xEC }
  - { offset: 0x9D37, size: 0x8, addend: 0x0, symName: __ZNKSt3__122__compressed_pair_elemIPNS_12basic_stringIcNS_11char_traitsIcEENS_9allocatorIcEEEELi0ELb0EE5__getB8ne190107Ev, symObjAddr: 0x4668, symBinAddr: 0x100008C14, symSize: 0x8C }
  - { offset: 0x9D80, size: 0x8, addend: 0x0, symName: __ZNKSt3__111__move_implINS_17_ClassicAlgPolicyEEclB8ne190107IPNS_12basic_stringIcNS_11char_traitsIcEENS_9allocatorIcEEEESA_SA_EENS_4pairIT_T1_EESC_T0_SD_, symObjAddr: 0x4B44, symBinAddr: 0x1000090F0, symSize: 0x3D8 }
  - { offset: 0x9DF5, size: 0x8, addend: 0x0, symName: __ZNSt3__119__unwrap_range_implIPNS_12basic_stringIcNS_11char_traitsIcEENS_9allocatorIcEEEES7_E8__unwrapB8ne190107ES7_S7_, symObjAddr: 0x520C, symBinAddr: 0x1000097B8, symSize: 0x0 }
  - { offset: 0x9E2D, size: 0x8, addend: 0x0, symName: __ZNSt3__14pairIPNS_12basic_stringIcNS_11char_traitsIcEENS_9allocatorIcEEEES7_EC1B8ne190107IS7_S7_TnNS_9enable_ifIXclsr10_CheckArgsE23__is_pair_constructibleIT_T0_EEEiE4typeELi0EEEOSB_OSC_, symObjAddr: 0x5454, symBinAddr: 0x100009A00, symSize: 0x74 }
  - { offset: 0x9E8B, size: 0x8, addend: 0x0, symName: __ZNSt3__14pairIPNS_12basic_stringIcNS_11char_traitsIcEENS_9allocatorIcEEEES7_EC2B8ne190107IS7_S7_TnNS_9enable_ifIXclsr10_CheckArgsE23__is_pair_constructibleIT_T0_EEEiE4typeELi0EEEOSB_OSC_, symObjAddr: 0x54C8, symBinAddr: 0x100009A74, symSize: 0x1D8 }
  - { offset: 0x9EEE, size: 0x8, addend: 0x0, symName: __ZNSt3__18_IterOpsINS_17_ClassicAlgPolicyEE11__iter_moveB8ne190107IRPNS_12basic_stringIcNS_11char_traitsIcEENS_9allocatorIcEEEETnNS_9enable_ifIXsr12is_referenceIDTdeclsr3stdE7declvalIRT_EEEEE5valueEiE4typeELi0EEEDTclsr3stdE4movedeclsr3stdE7declvalISE_EEEEOSD_, symObjAddr: 0x56A8, symBinAddr: 0x100009C54, symSize: 0x0 }
  - { offset: 0x9F20, size: 0x8, addend: 0x0, symName: __ZNSt3__112basic_stringIcNS_11char_traitsIcEENS_9allocatorIcEEEaSB8ne190107EOS5_, symObjAddr: 0x5780, symBinAddr: 0x100009D2C, symSize: 0xD4 }
  - { offset: 0x9F55, size: 0x8, addend: 0x0, symName: __ZNSt3__18_IterOpsINS_17_ClassicAlgPolicyEE25__validate_iter_referenceB8ne190107IRPNS_12basic_stringIcNS_11char_traitsIcEENS_9allocatorIcEEEEEEvv, symObjAddr: 0x585C, symBinAddr: 0x100009E08, symSize: 0x0 }
  - { offset: 0x9F73, size: 0x8, addend: 0x0, symName: __ZNSt3__112basic_stringIcNS_11char_traitsIcEENS_9allocatorIcEEE13__move_assignB8ne190107ERS5_NS_17integral_constantIbLb1EEE, symObjAddr: 0x5860, symBinAddr: 0x100009E0C, symSize: 0x564 }
  - { offset: 0x9FD7, size: 0x8, addend: 0x0, symName: __ZNKSt3__112basic_stringIcNS_11char_traitsIcEENS_9allocatorIcEEE17__annotate_deleteB8ne190107Ev, symObjAddr: 0x5DC4, symBinAddr: 0x10000A370, symSize: 0x54 }
  - { offset: 0x9FFD, size: 0x8, addend: 0x0, symName: __ZNSt3__116allocator_traitsINS_9allocatorIcEEE10deallocateB8ne190107ERS2_Pcm, symObjAddr: 0x5E20, symBinAddr: 0x10000A3CC, symSize: 0x0 }
  - { offset: 0xA03F, size: 0x8, addend: 0x0, symName: __ZNSt3__112basic_stringIcNS_11char_traitsIcEENS_9allocatorIcEEE7__allocB8ne190107Ev, symObjAddr: 0x5E54, symBinAddr: 0x10000A400, symSize: 0xB4 }
  - { offset: 0xA065, size: 0x8, addend: 0x0, symName: __ZNSt3__112basic_stringIcNS_11char_traitsIcEENS_9allocatorIcEEE18__get_long_pointerB8ne190107Ev, symObjAddr: 0x5F08, symBinAddr: 0x10000A4B4, symSize: 0x184 }
  - { offset: 0xA08B, size: 0x8, addend: 0x0, symName: __ZNKSt3__112basic_stringIcNS_11char_traitsIcEENS_9allocatorIcEEE14__get_long_capB8ne190107Ev, symObjAddr: 0x608C, symBinAddr: 0x10000A638, symSize: 0x154 }
  - { offset: 0xA0B1, size: 0x8, addend: 0x0, symName: __ZNSt3__112basic_stringIcNS_11char_traitsIcEENS_9allocatorIcEEE19__move_assign_allocB8ne190107ERS5_, symObjAddr: 0x61E0, symBinAddr: 0x10000A78C, symSize: 0x9C }
  - { offset: 0xA0E6, size: 0x8, addend: 0x0, symName: __ZNSt3__117__compressed_pairINS_12basic_stringIcNS_11char_traitsIcEENS_9allocatorIcEEE5__repES5_E5firstB8ne190107Ev, symObjAddr: 0x627C, symBinAddr: 0x10000A828, symSize: 0xEC }
  - { offset: 0xA10C, size: 0x8, addend: 0x0, symName: __ZNSt3__112basic_stringIcNS_11char_traitsIcEENS_9allocatorIcEEE16__set_short_sizeB8ne190107Em, symObjAddr: 0x6368, symBinAddr: 0x10000A914, symSize: 0x2A4 }
  - { offset: 0xA141, size: 0x8, addend: 0x0, symName: __ZNSt3__111char_traitsIcE6assignB8ne190107ERcRKc, symObjAddr: 0x6614, symBinAddr: 0x10000ABC0, symSize: 0x0 }
  - { offset: 0xA172, size: 0x8, addend: 0x0, symName: __ZNSt3__112basic_stringIcNS_11char_traitsIcEENS_9allocatorIcEEE19__get_short_pointerB8ne190107Ev, symObjAddr: 0x66F0, symBinAddr: 0x10000AC9C, symSize: 0x140 }
  - { offset: 0xA198, size: 0x8, addend: 0x0, symName: __ZNKSt3__112basic_stringIcNS_11char_traitsIcEENS_9allocatorIcEEE17__annotate_shrinkB8ne190107Em, symObjAddr: 0x6830, symBinAddr: 0x10000ADDC, symSize: 0x58 }
  - { offset: 0xA1CD, size: 0x8, addend: 0x0, symName: __ZNKSt3__112basic_stringIcNS_11char_traitsIcEENS_9allocatorIcEEE14__annotate_newB8ne190107Em, symObjAddr: 0x6888, symBinAddr: 0x10000AE34, symSize: 0x58 }
  - { offset: 0xA202, size: 0x8, addend: 0x0, symName: __ZNSt3__19allocatorIcE10deallocateB8ne190107EPcm, symObjAddr: 0x68E0, symBinAddr: 0x10000AE8C, symSize: 0x70 }
  - { offset: 0xA244, size: 0x8, addend: 0x0, symName: __ZNSt3__117__compressed_pairINS_12basic_stringIcNS_11char_traitsIcEENS_9allocatorIcEEE5__repES5_E6secondB8ne190107Ev, symObjAddr: 0x6ABC, symBinAddr: 0x10000B068, symSize: 0xC4 }
  - { offset: 0xA26A, size: 0x8, addend: 0x0, symName: __ZNSt3__122__compressed_pair_elemINS_9allocatorIcEELi1ELb1EE5__getB8ne190107Ev, symObjAddr: 0x6B80, symBinAddr: 0x10000B12C, symSize: 0x64 }
  - { offset: 0xA290, size: 0x8, addend: 0x0, symName: __ZNSt3__112basic_stringIcNS_11char_traitsIcEENS_9allocatorIcEEE19__move_assign_allocB8ne190107ERS5_NS_17integral_constantIbLb1EEE, symObjAddr: 0x6BE4, symBinAddr: 0x10000B190, symSize: 0x90 }
  - { offset: 0xA2D1, size: 0x8, addend: 0x0, symName: __ZNSt3__122__compressed_pair_elemINS_12basic_stringIcNS_11char_traitsIcEENS_9allocatorIcEEE5__repELi0ELb0EE5__getB8ne190107Ev, symObjAddr: 0x6C74, symBinAddr: 0x10000B220, symSize: 0x8C }
  - { offset: 0xA2F7, size: 0x8, addend: 0x0, symName: __ZNSt3__114pointer_traitsIPcE10pointer_toB8ne190107ERc, symObjAddr: 0x6D08, symBinAddr: 0x10000B2B4, symSize: 0x0 }
  - { offset: 0xA31A, size: 0x8, addend: 0x0, symName: __ZNSt3__118__unwrap_iter_implIPNS_12basic_stringIcNS_11char_traitsIcEENS_9allocatorIcEEEELb1EE8__unwrapB8ne190107ES7_, symObjAddr: 0x6D24, symBinAddr: 0x10000B2D0, symSize: 0x0 }
  - { offset: 0xA33D, size: 0x8, addend: 0x0, symName: __ZNSt3__119__unwrap_range_implIPNS_12basic_stringIcNS_11char_traitsIcEENS_9allocatorIcEEEES7_E8__rewrapB8ne190107ES7_S7_, symObjAddr: 0x6D50, symBinAddr: 0x10000B2FC, symSize: 0x0 }
  - { offset: 0xA36E, size: 0x8, addend: 0x0, symName: __ZNSt3__118__unwrap_iter_implIPNS_12basic_stringIcNS_11char_traitsIcEENS_9allocatorIcEEEELb1EE8__rewrapB8ne190107ES7_S7_, symObjAddr: 0x6D84, symBinAddr: 0x10000B330, symSize: 0x0 }
  - { offset: 0xA39F, size: 0x8, addend: 0x0, symName: __ZNSt3__111__wrap_iterIPNS_12basic_stringIcNS_11char_traitsIcEENS_9allocatorIcEEEEEC1B8ne190107ES7_, symObjAddr: 0x6E90, symBinAddr: 0x10000B43C, symSize: 0x6C }
  - { offset: 0xA3D7, size: 0x8, addend: 0x0, symName: __ZNSt3__111__wrap_iterIPNS_12basic_stringIcNS_11char_traitsIcEENS_9allocatorIcEEEEEC2B8ne190107ES7_, symObjAddr: 0x6EFC, symBinAddr: 0x10000B4A8, symSize: 0xB8 }
  - { offset: 0xA40F, size: 0x8, addend: 0x0, symName: __ZNSt3__111__wrap_iterIPNS_12basic_stringIcNS_11char_traitsIcEENS_9allocatorIcEEEEEpLB8ne190107El, symObjAddr: 0x6FB4, symBinAddr: 0x10000B560, symSize: 0x1DC }
  - { offset: 0xA443, size: 0x8, addend: 0x0, symName: __ZNSt3__111__wrap_iterIPKNS_12basic_stringIcNS_11char_traitsIcEENS_9allocatorIcEEEEEC2B8ne190107IPS6_TnNS_9enable_ifIXsr14is_convertibleIT_S8_EE5valueEiE4typeELi0EEERKNS0_ISD_EE, symObjAddr: 0x7190, symBinAddr: 0x10000B73C, symSize: 0xE4 }
  - { offset: 0xA48A, size: 0x8, addend: 0x0, symName: __ZNKSt3__111__wrap_iterIPNS_12basic_stringIcNS_11char_traitsIcEENS_9allocatorIcEEEEE4baseB8ne190107Ev, symObjAddr: 0x7274, symBinAddr: 0x10000B820, symSize: 0x9C }
  - { offset: 0xA4B0, size: 0x8, addend: 0x0, symName: __ZNSt3__112basic_stringIcNS_11char_traitsIcEENS_9allocatorIcEEEC2B8ne190107ILi0EEEPKc, symObjAddr: 0x7310, symBinAddr: 0x10000B8BC, symSize: 0x244 }
  - { offset: 0xA4F6, size: 0x8, addend: 0x0, symName: __ZNSt3__117__compressed_pairINS_12basic_stringIcNS_11char_traitsIcEENS_9allocatorIcEEE5__repES5_EC1B8ne190107INS_18__default_init_tagESA_EEOT_OT0_, symObjAddr: 0x7554, symBinAddr: 0x10000BB00, symSize: 0x74 }
  - { offset: 0xA54E, size: 0x8, addend: 0x0, symName: __ZNSt3__111char_traitsIcE6lengthB8ne190107EPKc, symObjAddr: 0x75D0, symBinAddr: 0x10000BB7C, symSize: 0x0 }
  - { offset: 0xA571, size: 0x8, addend: 0x0, symName: __ZNSt3__117__compressed_pairINS_12basic_stringIcNS_11char_traitsIcEENS_9allocatorIcEEE5__repES5_EC2B8ne190107INS_18__default_init_tagESA_EEOT_OT0_, symObjAddr: 0x75F4, symBinAddr: 0x10000BBA0, symSize: 0xC8 }
  - { offset: 0xA5C9, size: 0x8, addend: 0x0, symName: __ZNSt3__122__compressed_pair_elemINS_12basic_stringIcNS_11char_traitsIcEENS_9allocatorIcEEE5__repELi0ELb0EEC2B8ne190107ENS_18__default_init_tagE, symObjAddr: 0x76BC, symBinAddr: 0x10000BC68, symSize: 0x5C }
  - { offset: 0xA5FD, size: 0x8, addend: 0x0, symName: __ZNSt3__122__compressed_pair_elemINS_9allocatorIcEELi1ELb1EEC2B8ne190107ENS_18__default_init_tagE, symObjAddr: 0x7718, symBinAddr: 0x10000BCC4, symSize: 0x70 }
  - { offset: 0xA631, size: 0x8, addend: 0x0, symName: __ZNSt3__19allocatorIcEC2B8ne190107Ev, symObjAddr: 0x7788, symBinAddr: 0x10000BD34, symSize: 0x70 }
  - { offset: 0xA65B, size: 0x8, addend: 0x0, symName: __ZNSt3__116__non_trivial_ifILb1ENS_9allocatorIcEEEC2B8ne190107Ev, symObjAddr: 0x77F8, symBinAddr: 0x10000BDA4, symSize: 0x48 }
  - { offset: 0xA685, size: 0x8, addend: 0x0, symName: __ZNSt3__16vectorINS_12basic_stringIcNS_11char_traitsIcEENS_9allocatorIcEEEENS4_IS6_EEEC2B8ne190107ESt16initializer_listIS6_E, symObjAddr: 0x786C, symBinAddr: 0x10000BE18, symSize: 0x4C4 }
  - { offset: 0xA6E3, size: 0x8, addend: 0x0, symName: __ZNSt3__117__compressed_pairIPNS_12basic_stringIcNS_11char_traitsIcEENS_9allocatorIcEEEENS4_IS6_EEEC1B8ne190107IDnNS_18__default_init_tagEEEOT_OT0_, symObjAddr: 0x7D30, symBinAddr: 0x10000C2DC, symSize: 0x74 }
  - { offset: 0xA73B, size: 0x8, addend: 0x0, symName: __ZNSt3__16vectorINS_12basic_stringIcNS_11char_traitsIcEENS_9allocatorIcEEEENS4_IS6_EEE16__destroy_vectorC1B8ne190107ERS8_, symObjAddr: 0x7E20, symBinAddr: 0x10000C3CC, symSize: 0x6C }
  - { offset: 0xA774, size: 0x8, addend: 0x0, symName: __ZNKSt16initializer_listINSt3__112basic_stringIcNS0_11char_traitsIcEENS0_9allocatorIcEEEEE4sizeB8ne190107Ev, symObjAddr: 0x7E8C, symBinAddr: 0x10000C438, symSize: 0xA0 }
  - { offset: 0xA79A, size: 0x8, addend: 0x0, symName: __ZNSt3__16vectorINS_12basic_stringIcNS_11char_traitsIcEENS_9allocatorIcEEEENS4_IS6_EEE11__vallocateB8ne190107Em, symObjAddr: 0x7F2C, symBinAddr: 0x10000C4D8, symSize: 0x48C }
  - { offset: 0xA7E4, size: 0x8, addend: 0x0, symName: __ZNSt3__16vectorINS_12basic_stringIcNS_11char_traitsIcEENS_9allocatorIcEEEENS4_IS6_EEE18__construct_at_endIPKS6_SB_EEvT_T0_m, symObjAddr: 0x83B8, symBinAddr: 0x10000C964, symSize: 0x3D4 }
  - { offset: 0xA860, size: 0x8, addend: 0x0, symName: __ZNKSt16initializer_listINSt3__112basic_stringIcNS0_11char_traitsIcEENS0_9allocatorIcEEEEE5beginB8ne190107Ev, symObjAddr: 0x878C, symBinAddr: 0x10000CD38, symSize: 0x9C }
  - { offset: 0xA886, size: 0x8, addend: 0x0, symName: __ZNKSt16initializer_listINSt3__112basic_stringIcNS0_11char_traitsIcEENS0_9allocatorIcEEEEE3endB8ne190107Ev, symObjAddr: 0x8828, symBinAddr: 0x10000CDD4, symSize: 0x184 }
  - { offset: 0xA8AC, size: 0x8, addend: 0x0, symName: __ZNSt3__128__exception_guard_exceptionsINS_6vectorINS_12basic_stringIcNS_11char_traitsIcEENS_9allocatorIcEEEENS5_IS7_EEE16__destroy_vectorEE10__completeB8ne190107Ev, symObjAddr: 0x89AC, symBinAddr: 0x10000CF58, symSize: 0xC4 }
  - { offset: 0xA8D2, size: 0x8, addend: 0x0, symName: __ZNSt3__128__exception_guard_exceptionsINS_6vectorINS_12basic_stringIcNS_11char_traitsIcEENS_9allocatorIcEEEENS5_IS7_EEE16__destroy_vectorEED1B8ne190107Ev, symObjAddr: 0x8A70, symBinAddr: 0x10000D01C, symSize: 0x64 }
  - { offset: 0xA8FC, size: 0x8, addend: 0x0, symName: __ZNSt3__117__compressed_pairIPNS_12basic_stringIcNS_11char_traitsIcEENS_9allocatorIcEEEENS4_IS6_EEEC2B8ne190107IDnNS_18__default_init_tagEEEOT_OT0_, symObjAddr: 0x8AD4, symBinAddr: 0x10000D080, symSize: 0x104 }
  - { offset: 0xA954, size: 0x8, addend: 0x0, symName: __ZNSt3__122__compressed_pair_elemIPNS_12basic_stringIcNS_11char_traitsIcEENS_9allocatorIcEEEELi0ELb0EEC2B8ne190107IDnTnNS_9enable_ifIXntsr7is_sameIS8_u7__decayIT_EEE5valueEiE4typeELi0EEEOSB_, symObjAddr: 0x8BD8, symBinAddr: 0x10000D184, symSize: 0xAC }
  - { offset: 0xA99B, size: 0x8, addend: 0x0, symName: __ZNSt3__122__compressed_pair_elemINS_9allocatorINS_12basic_stringIcNS_11char_traitsIcEENS1_IcEEEEEELi1ELb1EEC2B8ne190107ENS_18__default_init_tagE, symObjAddr: 0x8C84, symBinAddr: 0x10000D230, symSize: 0x70 }
  - { offset: 0xA9CF, size: 0x8, addend: 0x0, symName: __ZNSt3__19allocatorINS_12basic_stringIcNS_11char_traitsIcEENS0_IcEEEEEC2B8ne190107Ev, symObjAddr: 0x8CF4, symBinAddr: 0x10000D2A0, symSize: 0x70 }
  - { offset: 0xA9F9, size: 0x8, addend: 0x0, symName: __ZNSt3__116__non_trivial_ifILb1ENS_9allocatorINS_12basic_stringIcNS_11char_traitsIcEENS1_IcEEEEEEEC2B8ne190107Ev, symObjAddr: 0x8D64, symBinAddr: 0x10000D310, symSize: 0x48 }
  - { offset: 0xAA23, size: 0x8, addend: 0x0, symName: __ZNSt3__128__exception_guard_exceptionsINS_6vectorINS_12basic_stringIcNS_11char_traitsIcEENS_9allocatorIcEEEENS5_IS7_EEE16__destroy_vectorEEC1B8ne190107ESA_, symObjAddr: 0x8DAC, symBinAddr: 0x10000D358, symSize: 0x6C }
  - { offset: 0xAA5B, size: 0x8, addend: 0x0, symName: __ZNSt3__128__exception_guard_exceptionsINS_6vectorINS_12basic_stringIcNS_11char_traitsIcEENS_9allocatorIcEEEENS5_IS7_EEE16__destroy_vectorEEC2B8ne190107ESA_, symObjAddr: 0x8E18, symBinAddr: 0x10000D3C4, symSize: 0xE0 }
  - { offset: 0xAA93, size: 0x8, addend: 0x0, symName: __ZNSt3__16vectorINS_12basic_stringIcNS_11char_traitsIcEENS_9allocatorIcEEEENS4_IS6_EEE16__destroy_vectorC2B8ne190107ERS8_, symObjAddr: 0x8EF8, symBinAddr: 0x10000D4A4, symSize: 0xE8 }
  - { offset: 0xAACC, size: 0x8, addend: 0x0, symName: __ZNKSt3__16vectorINS_12basic_stringIcNS_11char_traitsIcEENS_9allocatorIcEEEENS4_IS6_EEE8max_sizeEv, symObjAddr: 0x8FE0, symBinAddr: 0x10000D58C, symSize: 0x2FC }
  - { offset: 0xAAF5, size: 0x8, addend: 0x0, symName: __ZNKSt3__16vectorINS_12basic_stringIcNS_11char_traitsIcEENS_9allocatorIcEEEENS4_IS6_EEE20__throw_length_errorB8ne190107Ev, symObjAddr: 0x92DC, symBinAddr: 0x10000D888, symSize: 0x74 }
  - { offset: 0xAB1B, size: 0x8, addend: 0x0, symName: __ZNSt3__16vectorINS_12basic_stringIcNS_11char_traitsIcEENS_9allocatorIcEEEENS4_IS6_EEE9__end_capB8ne190107Ev, symObjAddr: 0x9398, symBinAddr: 0x10000D944, symSize: 0xD8 }
  - { offset: 0xAB41, size: 0x8, addend: 0x0, symName: __ZNKSt3__16vectorINS_12basic_stringIcNS_11char_traitsIcEENS_9allocatorIcEEEENS4_IS6_EEE14__annotate_newB8ne190107Em, symObjAddr: 0x9470, symBinAddr: 0x10000DA1C, symSize: 0x200 }
  - { offset: 0xAB80, size: 0x8, addend: 0x0, symName: __ZNSt3__116allocator_traitsINS_9allocatorINS_12basic_stringIcNS_11char_traitsIcEENS1_IcEEEEEEE8max_sizeB8ne190107IS7_vTnNS_9enable_ifIXntsr14__has_max_sizeIKT_EE5valueEiE4typeELi0EEEmRKS7_, symObjAddr: 0x9754, symBinAddr: 0x10000DD00, symSize: 0x0 }
  - { offset: 0xABB1, size: 0x8, addend: 0x0, symName: __ZNKSt3__16vectorINS_12basic_stringIcNS_11char_traitsIcEENS_9allocatorIcEEEENS4_IS6_EEE7__allocB8ne190107Ev, symObjAddr: 0x97A8, symBinAddr: 0x10000DD54, symSize: 0xC4 }
  - { offset: 0xABD7, size: 0x8, addend: 0x0, symName: __ZNSt3__114numeric_limitsIlE3maxB8ne190107Ev, symObjAddr: 0x9874, symBinAddr: 0x10000DE20, symSize: 0x0 }
  - { offset: 0xABFF, size: 0x8, addend: 0x0, symName: __ZNKSt3__16__lessIvvEclB8ne190107ImmEEbRKT_RKT0_, symObjAddr: 0x9B00, symBinAddr: 0x10000E0AC, symSize: 0xD0 }
  - { offset: 0xAC53, size: 0x8, addend: 0x0, symName: __ZNSt3__114numeric_limitsImE3maxB8ne190107Ev, symObjAddr: 0x9BD8, symBinAddr: 0x10000E184, symSize: 0x0 }
  - { offset: 0xAC67, size: 0x8, addend: 0x0, symName: __ZNSt3__123__libcpp_numeric_limitsImLb1EE3maxB8ne190107Ev, symObjAddr: 0x9BF4, symBinAddr: 0x10000E1A0, symSize: 0x0 }
  - { offset: 0xAC7B, size: 0x8, addend: 0x0, symName: __ZNKSt3__117__compressed_pairIPNS_12basic_stringIcNS_11char_traitsIcEENS_9allocatorIcEEEENS4_IS6_EEE6secondB8ne190107Ev, symObjAddr: 0x9BFC, symBinAddr: 0x10000E1A8, symSize: 0xC4 }
  - { offset: 0xACA1, size: 0x8, addend: 0x0, symName: __ZNKSt3__122__compressed_pair_elemINS_9allocatorINS_12basic_stringIcNS_11char_traitsIcEENS1_IcEEEEEELi1ELb1EE5__getB8ne190107Ev, symObjAddr: 0x9CC0, symBinAddr: 0x10000E26C, symSize: 0x64 }
  - { offset: 0xACC7, size: 0x8, addend: 0x0, symName: __ZNSt3__123__libcpp_numeric_limitsIlLb1EE3maxB8ne190107Ev, symObjAddr: 0x9D2C, symBinAddr: 0x10000E2D8, symSize: 0x0 }
  - { offset: 0xACDB, size: 0x8, addend: 0x0, symName: __ZNSt12length_errorC1B8ne190107EPKc, symObjAddr: 0x9DE0, symBinAddr: 0x10000E38C, symSize: 0x6C }
  - { offset: 0xAD13, size: 0x8, addend: 0x0, symName: __ZNSt12length_errorC2B8ne190107EPKc, symObjAddr: 0x9E4C, symBinAddr: 0x10000E3F8, symSize: 0x108 }
  - { offset: 0xAD4B, size: 0x8, addend: 0x0, symName: __ZNSt3__19allocatorINS_12basic_stringIcNS_11char_traitsIcEENS0_IcEEEEE8allocateB8ne190107Em, symObjAddr: 0x9F54, symBinAddr: 0x10000E500, symSize: 0xBC }
  - { offset: 0xAD7F, size: 0x8, addend: 0x0, symName: __ZNSt3__117__compressed_pairIPNS_12basic_stringIcNS_11char_traitsIcEENS_9allocatorIcEEEENS4_IS6_EEE5firstB8ne190107Ev, symObjAddr: 0xA188, symBinAddr: 0x10000E734, symSize: 0xEC }
  - { offset: 0xADA5, size: 0x8, addend: 0x0, symName: __ZNSt3__122__compressed_pair_elemIPNS_12basic_stringIcNS_11char_traitsIcEENS_9allocatorIcEEEELi0ELb0EE5__getB8ne190107Ev, symObjAddr: 0xA274, symBinAddr: 0x10000E820, symSize: 0x8C }
  - { offset: 0xADE4, size: 0x8, addend: 0x0, symName: __ZNSt3__16vectorINS_12basic_stringIcNS_11char_traitsIcEENS_9allocatorIcEEEENS4_IS6_EEE21_ConstructTransactionC1B8ne190107ERS8_m, symObjAddr: 0xA300, symBinAddr: 0x10000E8AC, symSize: 0x74 }
  - { offset: 0xAE2C, size: 0x8, addend: 0x0, symName: __ZNSt3__16vectorINS_12basic_stringIcNS_11char_traitsIcEENS_9allocatorIcEEEENS4_IS6_EEE21_ConstructTransactionD1B8ne190107Ev, symObjAddr: 0xA5E0, symBinAddr: 0x10000EB8C, symSize: 0x64 }
  - { offset: 0xAE56, size: 0x8, addend: 0x0, symName: __ZNSt3__16vectorINS_12basic_stringIcNS_11char_traitsIcEENS_9allocatorIcEEEENS4_IS6_EEE21_ConstructTransactionC2B8ne190107ERS8_m, symObjAddr: 0xA644, symBinAddr: 0x10000EBF0, symSize: 0x354 }
  - { offset: 0xAE9E, size: 0x8, addend: 0x0, symName: __ZNKSt3__16vectorINS_12basic_stringIcNS_11char_traitsIcEENS_9allocatorIcEEEENS4_IS6_EEE19__annotate_increaseB8ne190107Em, symObjAddr: 0xA998, symBinAddr: 0x10000EF44, symSize: 0x2C8 }
  - { offset: 0xAEEC, size: 0x8, addend: 0x0, symName: __ZNSt3__119__unwrap_range_implIPKNS_12basic_stringIcNS_11char_traitsIcEENS_9allocatorIcEEEES8_E8__unwrapB8ne190107ES8_S8_, symObjAddr: 0xB1D4, symBinAddr: 0x10000F780, symSize: 0x0 }
  - { offset: 0xAF24, size: 0x8, addend: 0x0, symName: __ZNSt3__14pairIPKNS_12basic_stringIcNS_11char_traitsIcEENS_9allocatorIcEEEES8_EC1B8ne190107IS8_S8_TnNS_9enable_ifIXclsr10_CheckArgsE23__is_pair_constructibleIT_T0_EEEiE4typeELi0EEEOSC_OSD_, symObjAddr: 0xB448, symBinAddr: 0x10000F9F4, symSize: 0x74 }
  - { offset: 0xAF82, size: 0x8, addend: 0x0, symName: __ZNSt3__118__unwrap_iter_implIPKNS_12basic_stringIcNS_11char_traitsIcEENS_9allocatorIcEEEELb1EE8__unwrapB8ne190107ES8_, symObjAddr: 0xB4C4, symBinAddr: 0x10000FA70, symSize: 0x0 }
  - { offset: 0xAFA5, size: 0x8, addend: 0x0, symName: __ZNSt3__14pairIPKNS_12basic_stringIcNS_11char_traitsIcEENS_9allocatorIcEEEES8_EC2B8ne190107IS8_S8_TnNS_9enable_ifIXclsr10_CheckArgsE23__is_pair_constructibleIT_T0_EEEiE4typeELi0EEEOSC_OSD_, symObjAddr: 0xB504, symBinAddr: 0x10000FAB0, symSize: 0x1D8 }
  - { offset: 0xB003, size: 0x8, addend: 0x0, symName: __ZNSt3__129_AllocatorDestroyRangeReverseINS_9allocatorINS_12basic_stringIcNS_11char_traitsIcEENS1_IcEEEEEEPS6_EC1B8ne190107ERS7_RS8_SB_, symObjAddr: 0xB8E8, symBinAddr: 0x10000FE94, symSize: 0x7C }
  - { offset: 0xB05A, size: 0x8, addend: 0x0, symName: __ZNSt3__116allocator_traitsINS_9allocatorINS_12basic_stringIcNS_11char_traitsIcEENS1_IcEEEEEEE9constructB8ne190107IS6_JRKS6_EvTnNS_9enable_ifIXntsr15__has_constructIS7_PT_DpT0_EE5valueEiE4typeELi0EEEvRS7_SE_DpOSF_, symObjAddr: 0xB96C, symBinAddr: 0x10000FF18, symSize: 0x0 }
  - { offset: 0xB0B4, size: 0x8, addend: 0x0, symName: __ZNSt3__128__exception_guard_exceptionsINS_29_AllocatorDestroyRangeReverseINS_9allocatorINS_12basic_stringIcNS_11char_traitsIcEENS2_IcEEEEEEPS7_EEE10__completeB8ne190107Ev, symObjAddr: 0xB9DC, symBinAddr: 0x10000FF88, symSize: 0xC4 }
  - { offset: 0xB0DA, size: 0x8, addend: 0x0, symName: __ZNSt3__128__exception_guard_exceptionsINS_29_AllocatorDestroyRangeReverseINS_9allocatorINS_12basic_stringIcNS_11char_traitsIcEENS2_IcEEEEEEPS7_EEED1B8ne190107Ev, symObjAddr: 0xBAA0, symBinAddr: 0x10001004C, symSize: 0x64 }
  - { offset: 0xB104, size: 0x8, addend: 0x0, symName: __ZNSt3__128__exception_guard_exceptionsINS_29_AllocatorDestroyRangeReverseINS_9allocatorINS_12basic_stringIcNS_11char_traitsIcEENS2_IcEEEEEEPS7_EEEC1B8ne190107ESA_, symObjAddr: 0xBB04, symBinAddr: 0x1000100B0, symSize: 0x70 }
  - { offset: 0xB13D, size: 0x8, addend: 0x0, symName: __ZNSt3__128__exception_guard_exceptionsINS_29_AllocatorDestroyRangeReverseINS_9allocatorINS_12basic_stringIcNS_11char_traitsIcEENS2_IcEEEEEEPS7_EEEC2B8ne190107ESA_, symObjAddr: 0xBB74, symBinAddr: 0x100010120, symSize: 0xE4 }
  - { offset: 0xB176, size: 0x8, addend: 0x0, symName: __ZNSt3__129_AllocatorDestroyRangeReverseINS_9allocatorINS_12basic_stringIcNS_11char_traitsIcEENS1_IcEEEEEEPS6_EC2B8ne190107ERS7_RS8_SB_, symObjAddr: 0xBC58, symBinAddr: 0x100010204, symSize: 0x1C4 }
  - { offset: 0xB1CD, size: 0x8, addend: 0x0, symName: __ZNSt3__128__exception_guard_exceptionsINS_29_AllocatorDestroyRangeReverseINS_9allocatorINS_12basic_stringIcNS_11char_traitsIcEENS2_IcEEEEEEPS7_EEED2B8ne190107Ev, symObjAddr: 0xBF78, symBinAddr: 0x100010524, symSize: 0x158 }
  - { offset: 0xB1F7, size: 0x8, addend: 0x0, symName: __ZNKSt3__129_AllocatorDestroyRangeReverseINS_9allocatorINS_12basic_stringIcNS_11char_traitsIcEENS1_IcEEEEEEPS6_EclB8ne190107Ev, symObjAddr: 0xC0D0, symBinAddr: 0x10001067C, symSize: 0x33C }
  - { offset: 0xB21E, size: 0x8, addend: 0x0, symName: __ZNSt3__116reverse_iteratorIPNS_12basic_stringIcNS_11char_traitsIcEENS_9allocatorIcEEEEEC1B8ne190107ES7_, symObjAddr: 0xC658, symBinAddr: 0x100010C04, symSize: 0x6C }
  - { offset: 0xB256, size: 0x8, addend: 0x0, symName: __ZNSt3__116reverse_iteratorIPNS_12basic_stringIcNS_11char_traitsIcEENS_9allocatorIcEEEEEppB8ne190107Ev, symObjAddr: 0xC7C0, symBinAddr: 0x100010D6C, symSize: 0x180 }
  - { offset: 0xB27C, size: 0x8, addend: 0x0, symName: __ZNKSt3__116reverse_iteratorIPNS_12basic_stringIcNS_11char_traitsIcEENS_9allocatorIcEEEEE4baseB8ne190107Ev, symObjAddr: 0xC940, symBinAddr: 0x100010EEC, symSize: 0xA0 }
  - { offset: 0xB2A7, size: 0x8, addend: 0x0, symName: __ZNSt3__119__to_address_helperINS_16reverse_iteratorIPNS_12basic_stringIcNS_11char_traitsIcEENS_9allocatorIcEEEEEEvE6__callB8ne190107ERKS9_, symObjAddr: 0xC9E8, symBinAddr: 0x100010F94, symSize: 0x0 }
  - { offset: 0xB2CA, size: 0x8, addend: 0x0, symName: __ZNKSt3__116reverse_iteratorIPNS_12basic_stringIcNS_11char_traitsIcEENS_9allocatorIcEEEEEptB8ne190107EvQoo12is_pointer_vIT_ErQS9__XcldtfpK_onptEE, symObjAddr: 0xCA54, symBinAddr: 0x100011000, symSize: 0xA8 }
  - { offset: 0xB2F0, size: 0x8, addend: 0x0, symName: __ZNSt3__116reverse_iteratorIPNS_12basic_stringIcNS_11char_traitsIcEENS_9allocatorIcEEEEEC2B8ne190107ES7_, symObjAddr: 0xCEEC, symBinAddr: 0x100011498, symSize: 0xF4 }
  - { offset: 0xB328, size: 0x8, addend: 0x0, symName: __ZNSt3__16vectorINS_12basic_stringIcNS_11char_traitsIcEENS_9allocatorIcEEEENS4_IS6_EEE21_ConstructTransactionD2B8ne190107Ev, symObjAddr: 0xCFE0, symBinAddr: 0x10001158C, symSize: 0x31C }
  - { offset: 0xB352, size: 0x8, addend: 0x0, symName: __ZNSt3__128__exception_guard_exceptionsINS_6vectorINS_12basic_stringIcNS_11char_traitsIcEENS_9allocatorIcEEEENS5_IS7_EEE16__destroy_vectorEED2B8ne190107Ev, symObjAddr: 0xD2FC, symBinAddr: 0x1000118A8, symSize: 0x158 }
  - { offset: 0xB37C, size: 0x8, addend: 0x0, symName: __ZNSt3__16vectorINS_12basic_stringIcNS_11char_traitsIcEENS_9allocatorIcEEEENS4_IS6_EEE16__destroy_vectorclB8ne190107Ev, symObjAddr: 0xD454, symBinAddr: 0x100011A00, symSize: 0x39C }
  - { offset: 0xB3A2, size: 0x8, addend: 0x0, symName: __ZNSt3__16vectorINS_12basic_stringIcNS_11char_traitsIcEENS_9allocatorIcEEEENS4_IS6_EEE7__clearB8ne190107Ev, symObjAddr: 0xD7F0, symBinAddr: 0x100011D9C, symSize: 0xA0 }
  - { offset: 0xB3C8, size: 0x8, addend: 0x0, symName: __ZNKSt3__16vectorINS_12basic_stringIcNS_11char_traitsIcEENS_9allocatorIcEEEENS4_IS6_EEE17__annotate_deleteB8ne190107Ev, symObjAddr: 0xD890, symBinAddr: 0x100011E3C, symSize: 0x210 }
  - { offset: 0xB3EE, size: 0x8, addend: 0x0, symName: __ZNSt3__116allocator_traitsINS_9allocatorINS_12basic_stringIcNS_11char_traitsIcEENS1_IcEEEEEEE10deallocateB8ne190107ERS7_PS6_m, symObjAddr: 0xDAA8, symBinAddr: 0x100012054, symSize: 0x0 }
  - { offset: 0xB430, size: 0x8, addend: 0x0, symName: __ZNSt3__19allocatorINS_12basic_stringIcNS_11char_traitsIcEENS0_IcEEEEE10deallocateB8ne190107EPS5_m, symObjAddr: 0xDADC, symBinAddr: 0x100012088, symSize: 0x74 }
  - { offset: 0xB472, size: 0x8, addend: 0x0, symName: __ZNSt3__16vectorINS_12basic_stringIcNS_11char_traitsIcEENS_9allocatorIcEEEENS4_IS6_EEED2B8ne190107Ev, symObjAddr: 0xDB50, symBinAddr: 0x1000120FC, symSize: 0x250 }
  - { offset: 0xB4BB, size: 0x8, addend: 0x0, symName: __ZNKSt3__113basic_ostreamIcNS_11char_traitsIcEEE6sentrycvbB8ne190107Ev, symObjAddr: 0xEB6C, symBinAddr: 0x100013118, symSize: 0xE8 }
  - { offset: 0xB4E1, size: 0x8, addend: 0x0, symName: __ZNSt3__119ostreambuf_iteratorIcNS_11char_traitsIcEEEC1B8ne190107ERNS_13basic_ostreamIcS2_EE, symObjAddr: 0xF4AC, symBinAddr: 0x100013A58, symSize: 0x6C }
  - { offset: 0xB519, size: 0x8, addend: 0x0, symName: __ZNKSt3__18ios_base5flagsB8ne190107Ev, symObjAddr: 0xF518, symBinAddr: 0x100013AC4, symSize: 0x130 }
  - { offset: 0xB541, size: 0x8, addend: 0x0, symName: __ZNKSt3__19basic_iosIcNS_11char_traitsIcEEE4fillB8ne190107Ev, symObjAddr: 0xF648, symBinAddr: 0x100013BF4, symSize: 0x288 }
  - { offset: 0xB567, size: 0x8, addend: 0x0, symName: __ZNKSt3__119ostreambuf_iteratorIcNS_11char_traitsIcEEE6failedB8ne190107Ev, symObjAddr: 0xF8D0, symBinAddr: 0x100013E7C, symSize: 0xA4 }
  - { offset: 0xB58D, size: 0x8, addend: 0x0, symName: __ZNSt3__19basic_iosIcNS_11char_traitsIcEEE8setstateB8ne190107Ej, symObjAddr: 0xF974, symBinAddr: 0x100013F20, symSize: 0x100 }
  - { offset: 0xB5C2, size: 0x8, addend: 0x0, symName: __ZNKSt3__18ios_base5widthB8ne190107Ev, symObjAddr: 0xFA74, symBinAddr: 0x100014020, symSize: 0x10C }
  - { offset: 0xB5EA, size: 0x8, addend: 0x0, symName: __ZNSt3__115basic_streambufIcNS_11char_traitsIcEEE5sputnB8ne190107EPKcl, symObjAddr: 0xFB80, symBinAddr: 0x10001412C, symSize: 0x164 }
  - { offset: 0xB62C, size: 0x8, addend: 0x0, symName: __ZNSt3__112basic_stringIcNS_11char_traitsIcEENS_9allocatorIcEEEC1B8ne190107Emc, symObjAddr: 0xFCE4, symBinAddr: 0x100014290, symSize: 0x74 }
  - { offset: 0xB674, size: 0x8, addend: 0x0, symName: __ZNSt3__112basic_stringIcNS_11char_traitsIcEENS_9allocatorIcEEE4dataB8ne190107Ev, symObjAddr: 0xFD58, symBinAddr: 0x100014304, symSize: 0x60 }
  - { offset: 0xB69A, size: 0x8, addend: 0x0, symName: __ZNSt3__18ios_base5widthB8ne190107El, symObjAddr: 0xFDB8, symBinAddr: 0x100014364, symSize: 0x1B8 }
  - { offset: 0xB6E0, size: 0x8, addend: 0x0, symName: __ZNSt3__112basic_stringIcNS_11char_traitsIcEENS_9allocatorIcEEEC2B8ne190107Emc, symObjAddr: 0xFF70, symBinAddr: 0x10001451C, symSize: 0x238 }
  - { offset: 0xB72B, size: 0x8, addend: 0x0, symName: __ZNSt3__112basic_stringIcNS_11char_traitsIcEENS_9allocatorIcEEE13__get_pointerB8ne190107Ev, symObjAddr: 0x101C4, symBinAddr: 0x100014770, symSize: 0x88 }
  - { offset: 0xB751, size: 0x8, addend: 0x0, symName: __ZNSt3__119ostreambuf_iteratorIcNS_11char_traitsIcEEEC2B8ne190107ERNS_13basic_ostreamIcS2_EE, symObjAddr: 0x1024C, symBinAddr: 0x1000147F8, symSize: 0x288 }
  - { offset: 0xB789, size: 0x8, addend: 0x0, symName: __ZNKSt3__19basic_iosIcNS_11char_traitsIcEEE5rdbufB8ne190107Ev, symObjAddr: 0x104D4, symBinAddr: 0x100014A80, symSize: 0xF8 }
  - { offset: 0xB7AF, size: 0x8, addend: 0x0, symName: __ZNKSt3__18ios_base5rdbufB8ne190107Ev, symObjAddr: 0x105CC, symBinAddr: 0x100014B78, symSize: 0x10C }
  - { offset: 0xB7D5, size: 0x8, addend: 0x0, symName: __ZNKSt3__118_SentinelValueFillINS_11char_traitsIcEEE8__is_setB8ne190107Ev, symObjAddr: 0x106D8, symBinAddr: 0x100014C84, symSize: 0x108 }
  - { offset: 0xB7FB, size: 0x8, addend: 0x0, symName: __ZNKSt3__19basic_iosIcNS_11char_traitsIcEEE5widenB8ne190107Ec, symObjAddr: 0x107E0, symBinAddr: 0x100014D8C, symSize: 0x404 }
  - { offset: 0xB832, size: 0x8, addend: 0x0, symName: __ZNSt3__118_SentinelValueFillINS_11char_traitsIcEEEaSB8ne190107Ei, symObjAddr: 0x10BE4, symBinAddr: 0x100015190, symSize: 0x124 }
  - { offset: 0xB867, size: 0x8, addend: 0x0, symName: __ZNKSt3__118_SentinelValueFillINS_11char_traitsIcEEE5__getB8ne190107Ev, symObjAddr: 0x10D08, symBinAddr: 0x1000152B4, symSize: 0xF4 }
  - { offset: 0xB88D, size: 0x8, addend: 0x0, symName: __ZNSt3__111char_traitsIcE3eofB8ne190107Ev, symObjAddr: 0x10E04, symBinAddr: 0x1000153B0, symSize: 0x0 }
  - { offset: 0xB8E3, size: 0x8, addend: 0x0, symName: __ZNKSt3__15ctypeIcE5widenB8ne190107Ec, symObjAddr: 0x10F60, symBinAddr: 0x10001550C, symSize: 0x154 }
  - { offset: 0xB918, size: 0x8, addend: 0x0, symName: __ZNSt3__18ios_base8setstateB8ne190107Ej, symObjAddr: 0x110B4, symBinAddr: 0x100015660, symSize: 0x1A4 }
...
