---
triple:          'arm64-apple-darwin'
binary-path:     lab1_tests
relocations:
  - { offset: 0x3B, size: 0x8, addend: 0x0, symName: _.str, symObjAddr: 0xBFE0, symBinAddr: 0x100075720, symSize: 0x0 }
  - { offset: 0x6B, size: 0x8, addend: 0x0, symName: _.str.1, symObjAddr: 0xC020, symBinAddr: 0x100075760, symSize: 0x0 }
  - { offset: 0x88, size: 0x8, addend: 0x0, symName: _.str.2, symObjAddr: 0xC060, symBinAddr: 0x1000757A0, symSize: 0x0 }
  - { offset: 0x378D, size: 0x8, addend: 0x0, symName: __ZNSt3__124__put_character_sequenceB8ne190107IcNS_11char_traitsIcEEEERNS_13basic_ostreamIT_T0_EES7_PKS4_m, symObjAddr: 0x2E40, symBinAddr: 0x1000070C0, symSize: 0x0 }
  - { offset: 0x4B53, size: 0x8, addend: 0x0, symName: __ZNSt3__1lsB8ne190107INS_11char_traitsIcEEEERNS_13basic_ostreamIcT_EES6_PKc, symObjAddr: 0x854, symBinAddr: 0x100004AD4, symSize: 0x0 }
  - { offset: 0x4B99, size: 0x8, addend: 0x0, symName: __ZNSt3__1rsB8ne190107IcNS_11char_traitsIcEENS_9allocatorIcEEEERNS_13basic_istreamIT_T0_EES9_RNS_12basic_stringIS6_S7_T1_EE, symObjAddr: 0x90C, symBinAddr: 0x100004B8C, symSize: 0x0 }
  - { offset: 0x4C72, size: 0x8, addend: 0x0, symName: __ZNSt3__14endlB8ne190107IcNS_11char_traitsIcEEEERNS_13basic_ostreamIT_T0_EES7_, symObjAddr: 0x1F84, symBinAddr: 0x100006204, symSize: 0x0 }
  - { offset: 0x4CB2, size: 0x8, addend: 0x0, symName: __ZNSt3__116__pad_and_outputB8ne190107IcNS_11char_traitsIcEEEENS_19ostreambuf_iteratorIT_T0_EES6_PKS4_S8_S8_RNS_8ios_baseES4_, symObjAddr: 0x3D20, symBinAddr: 0x100007FA0, symSize: 0x0 }
  - { offset: 0x4D8C, size: 0x8, addend: 0x0, symName: __ZNSt3__112__to_addressB8ne190107IcEEPT_S2_, symObjAddr: 0x540C, symBinAddr: 0x10000968C, symSize: 0x0 }
  - { offset: 0x4DC1, size: 0x8, addend: 0x0, symName: __ZNSt3__19use_facetB8ne190107INS_5ctypeIcEEEERKT_RKNS_6localeE, symObjAddr: 0x64C8, symBinAddr: 0x10000A748, symSize: 0x0 }
  - { offset: 0x519F, size: 0x8, addend: 0x0, symName: __ZNSt3__118__constexpr_strlenB8ne190107IcEEmPKT_, symObjAddr: 0x6914, symBinAddr: 0x10000AB94, symSize: 0x0 }
  - { offset: 0x6B82, size: 0x8, addend: 0x0, symName: __Z10numWordsInRKNSt3__112basic_stringIcNS_11char_traitsIcEENS_9allocatorIcEEEE, symObjAddr: 0x8, symBinAddr: 0x100004288, symSize: 0x0 }
  - { offset: 0x6BD8, size: 0x8, addend: 0x0, symName: __ZNKSt3__112basic_stringIcNS_11char_traitsIcEENS_9allocatorIcEEE4sizeB8ne190107Ev, symObjAddr: 0x278, symBinAddr: 0x1000044F8, symSize: 0x88 }
  - { offset: 0x6BFC, size: 0x8, addend: 0x0, symName: __Z13original_mainv, symObjAddr: 0x308, symBinAddr: 0x100004588, symSize: 0x0 }
  - { offset: 0x6C3B, size: 0x8, addend: 0x0, symName: __ZNSt3__112basic_stringIcNS_11char_traitsIcEENS_9allocatorIcEEEC1B8ne190107Ev, symObjAddr: 0x7E8, symBinAddr: 0x100004A68, symSize: 0x64 }
  - { offset: 0x6C63, size: 0x8, addend: 0x0, symName: __ZNSt3__113basic_ostreamIcNS_11char_traitsIcEEElsB8ne190107EPFRS3_S4_E, symObjAddr: 0x1E58, symBinAddr: 0x1000060D8, symSize: 0x124 }
  - { offset: 0x6C95, size: 0x8, addend: 0x0, symName: __ZNKSt3__112basic_stringIcNS_11char_traitsIcEENS_9allocatorIcEEE9__is_longB8ne190107Ev, symObjAddr: 0x22CC, symBinAddr: 0x10000654C, symSize: 0x178 }
  - { offset: 0x6CB9, size: 0x8, addend: 0x0, symName: __ZNKSt3__112basic_stringIcNS_11char_traitsIcEENS_9allocatorIcEEE15__get_long_sizeB8ne190107Ev, symObjAddr: 0x2444, symBinAddr: 0x1000066C4, symSize: 0x18C }
  - { offset: 0x6CDD, size: 0x8, addend: 0x0, symName: __ZNKSt3__112basic_stringIcNS_11char_traitsIcEENS_9allocatorIcEEE16__get_short_sizeB8ne190107Ev, symObjAddr: 0x25D0, symBinAddr: 0x100006850, symSize: 0x178 }
  - { offset: 0x6D01, size: 0x8, addend: 0x0, symName: __ZNKSt3__117__compressed_pairINS_12basic_stringIcNS_11char_traitsIcEENS_9allocatorIcEEE5__repES5_E5firstB8ne190107Ev, symObjAddr: 0x2748, symBinAddr: 0x1000069C8, symSize: 0xEC }
  - { offset: 0x6D25, size: 0x8, addend: 0x0, symName: __ZNKSt3__122__compressed_pair_elemINS_12basic_stringIcNS_11char_traitsIcEENS_9allocatorIcEEE5__repELi0ELb0EE5__getB8ne190107Ev, symObjAddr: 0x2834, symBinAddr: 0x100006AB4, symSize: 0x8C }
  - { offset: 0x6D49, size: 0x8, addend: 0x0, symName: __ZNSt3__112basic_stringIcNS_11char_traitsIcEENS_9allocatorIcEEEC2B8ne190107Ev, symObjAddr: 0x28C0, symBinAddr: 0x100006B40, symSize: 0x240 }
  - { offset: 0x6D7C, size: 0x8, addend: 0x0, symName: __ZNSt3__117__compressed_pairINS_12basic_stringIcNS_11char_traitsIcEENS_9allocatorIcEEE5__repES5_EC1B8ne190107INS_16__value_init_tagENS_18__default_init_tagEEEOT_OT0_, symObjAddr: 0x2B00, symBinAddr: 0x100006D80, symSize: 0x74 }
  - { offset: 0x6DD2, size: 0x8, addend: 0x0, symName: __ZNKSt3__112basic_stringIcNS_11char_traitsIcEENS_9allocatorIcEEE14__annotate_newB8ne190107Em, symObjAddr: 0x2B84, symBinAddr: 0x100006E04, symSize: 0x58 }
  - { offset: 0x6E05, size: 0x8, addend: 0x0, symName: __ZNSt3__117__compressed_pairINS_12basic_stringIcNS_11char_traitsIcEENS_9allocatorIcEEE5__repES5_EC2B8ne190107INS_16__value_init_tagENS_18__default_init_tagEEEOT_OT0_, symObjAddr: 0x2BDC, symBinAddr: 0x100006E5C, symSize: 0xC8 }
  - { offset: 0x6E5B, size: 0x8, addend: 0x0, symName: __ZNSt3__122__compressed_pair_elemINS_12basic_stringIcNS_11char_traitsIcEENS_9allocatorIcEEE5__repELi0ELb0EEC2B8ne190107ENS_16__value_init_tagE, symObjAddr: 0x2CA4, symBinAddr: 0x100006F24, symSize: 0x6C }
  - { offset: 0x6E8D, size: 0x8, addend: 0x0, symName: __ZNSt3__122__compressed_pair_elemINS_9allocatorIcEELi1ELb1EEC2B8ne190107ENS_18__default_init_tagE, symObjAddr: 0x2D10, symBinAddr: 0x100006F90, symSize: 0x70 }
  - { offset: 0x6EBF, size: 0x8, addend: 0x0, symName: __ZNSt3__19allocatorIcEC2B8ne190107Ev, symObjAddr: 0x2D80, symBinAddr: 0x100007000, symSize: 0x70 }
  - { offset: 0x6EE7, size: 0x8, addend: 0x0, symName: __ZNSt3__116__non_trivial_ifILb1ENS_9allocatorIcEEEC2B8ne190107Ev, symObjAddr: 0x2DF0, symBinAddr: 0x100007070, symSize: 0x48 }
  - { offset: 0x6F0F, size: 0x8, addend: 0x0, symName: __ZNSt3__111char_traitsIcE6lengthB8ne190107EPKc, symObjAddr: 0x3C0C, symBinAddr: 0x100007E8C, symSize: 0x0 }
  - { offset: 0x6F4F, size: 0x8, addend: 0x0, symName: __ZNKSt3__113basic_ostreamIcNS_11char_traitsIcEEE6sentrycvbB8ne190107Ev, symObjAddr: 0x3C30, symBinAddr: 0x100007EB0, symSize: 0xE8 }
  - { offset: 0x6F73, size: 0x8, addend: 0x0, symName: __ZNSt3__119ostreambuf_iteratorIcNS_11char_traitsIcEEEC1B8ne190107ERNS_13basic_ostreamIcS2_EE, symObjAddr: 0x4570, symBinAddr: 0x1000087F0, symSize: 0x6C }
  - { offset: 0x6FA9, size: 0x8, addend: 0x0, symName: __ZNKSt3__18ios_base5flagsB8ne190107Ev, symObjAddr: 0x45DC, symBinAddr: 0x10000885C, symSize: 0x130 }
  - { offset: 0x6FCF, size: 0x8, addend: 0x0, symName: __ZNKSt3__19basic_iosIcNS_11char_traitsIcEEE4fillB8ne190107Ev, symObjAddr: 0x470C, symBinAddr: 0x10000898C, symSize: 0x288 }
  - { offset: 0x6FF3, size: 0x8, addend: 0x0, symName: __ZNKSt3__119ostreambuf_iteratorIcNS_11char_traitsIcEEE6failedB8ne190107Ev, symObjAddr: 0x4994, symBinAddr: 0x100008C14, symSize: 0xA4 }
  - { offset: 0x7017, size: 0x8, addend: 0x0, symName: __ZNSt3__19basic_iosIcNS_11char_traitsIcEEE8setstateB8ne190107Ej, symObjAddr: 0x4A38, symBinAddr: 0x100008CB8, symSize: 0x100 }
  - { offset: 0x704A, size: 0x8, addend: 0x0, symName: __ZNKSt3__18ios_base5widthB8ne190107Ev, symObjAddr: 0x4B38, symBinAddr: 0x100008DB8, symSize: 0x10C }
  - { offset: 0x7070, size: 0x8, addend: 0x0, symName: __ZNSt3__115basic_streambufIcNS_11char_traitsIcEEE5sputnB8ne190107EPKcl, symObjAddr: 0x4C44, symBinAddr: 0x100008EC4, symSize: 0x164 }
  - { offset: 0x70B0, size: 0x8, addend: 0x0, symName: __ZNSt3__112basic_stringIcNS_11char_traitsIcEENS_9allocatorIcEEEC1B8ne190107Emc, symObjAddr: 0x4DA8, symBinAddr: 0x100009028, symSize: 0x74 }
  - { offset: 0x70F6, size: 0x8, addend: 0x0, symName: __ZNSt3__112basic_stringIcNS_11char_traitsIcEENS_9allocatorIcEEE4dataB8ne190107Ev, symObjAddr: 0x4E1C, symBinAddr: 0x10000909C, symSize: 0x60 }
  - { offset: 0x711A, size: 0x8, addend: 0x0, symName: __ZNSt3__18ios_base5widthB8ne190107El, symObjAddr: 0x4E7C, symBinAddr: 0x1000090FC, symSize: 0x1B8 }
  - { offset: 0x715E, size: 0x8, addend: 0x0, symName: __ZNSt3__112basic_stringIcNS_11char_traitsIcEENS_9allocatorIcEEEC2B8ne190107Emc, symObjAddr: 0x5034, symBinAddr: 0x1000092B4, symSize: 0x238 }
  - { offset: 0x71A7, size: 0x8, addend: 0x0, symName: __ZNSt3__117__compressed_pairINS_12basic_stringIcNS_11char_traitsIcEENS_9allocatorIcEEE5__repES5_EC1B8ne190107INS_18__default_init_tagESA_EEOT_OT0_, symObjAddr: 0x526C, symBinAddr: 0x1000094EC, symSize: 0x74 }
  - { offset: 0x71FD, size: 0x8, addend: 0x0, symName: __ZNSt3__117__compressed_pairINS_12basic_stringIcNS_11char_traitsIcEENS_9allocatorIcEEE5__repES5_EC2B8ne190107INS_18__default_init_tagESA_EEOT_OT0_, symObjAddr: 0x52E0, symBinAddr: 0x100009560, symSize: 0xC8 }
  - { offset: 0x7253, size: 0x8, addend: 0x0, symName: __ZNSt3__122__compressed_pair_elemINS_12basic_stringIcNS_11char_traitsIcEENS_9allocatorIcEEE5__repELi0ELb0EEC2B8ne190107ENS_18__default_init_tagE, symObjAddr: 0x53A8, symBinAddr: 0x100009628, symSize: 0x5C }
  - { offset: 0x7285, size: 0x8, addend: 0x0, symName: __ZNSt3__112basic_stringIcNS_11char_traitsIcEENS_9allocatorIcEEE13__get_pointerB8ne190107Ev, symObjAddr: 0x5420, symBinAddr: 0x1000096A0, symSize: 0x88 }
  - { offset: 0x72A9, size: 0x8, addend: 0x0, symName: __ZNSt3__112basic_stringIcNS_11char_traitsIcEENS_9allocatorIcEEE18__get_long_pointerB8ne190107Ev, symObjAddr: 0x54A8, symBinAddr: 0x100009728, symSize: 0x184 }
  - { offset: 0x72CD, size: 0x8, addend: 0x0, symName: __ZNSt3__112basic_stringIcNS_11char_traitsIcEENS_9allocatorIcEEE19__get_short_pointerB8ne190107Ev, symObjAddr: 0x562C, symBinAddr: 0x1000098AC, symSize: 0x140 }
  - { offset: 0x72F1, size: 0x8, addend: 0x0, symName: __ZNSt3__117__compressed_pairINS_12basic_stringIcNS_11char_traitsIcEENS_9allocatorIcEEE5__repES5_E5firstB8ne190107Ev, symObjAddr: 0x576C, symBinAddr: 0x1000099EC, symSize: 0xEC }
  - { offset: 0x7315, size: 0x8, addend: 0x0, symName: __ZNSt3__122__compressed_pair_elemINS_12basic_stringIcNS_11char_traitsIcEENS_9allocatorIcEEE5__repELi0ELb0EE5__getB8ne190107Ev, symObjAddr: 0x5858, symBinAddr: 0x100009AD8, symSize: 0x8C }
  - { offset: 0x7339, size: 0x8, addend: 0x0, symName: __ZNSt3__114pointer_traitsIPcE10pointer_toB8ne190107ERc, symObjAddr: 0x58EC, symBinAddr: 0x100009B6C, symSize: 0x0 }
  - { offset: 0x735B, size: 0x8, addend: 0x0, symName: __ZNSt3__119ostreambuf_iteratorIcNS_11char_traitsIcEEEC2B8ne190107ERNS_13basic_ostreamIcS2_EE, symObjAddr: 0x5900, symBinAddr: 0x100009B80, symSize: 0x288 }
  - { offset: 0x7391, size: 0x8, addend: 0x0, symName: __ZNKSt3__19basic_iosIcNS_11char_traitsIcEEE5rdbufB8ne190107Ev, symObjAddr: 0x5B88, symBinAddr: 0x100009E08, symSize: 0xF8 }
  - { offset: 0x73B5, size: 0x8, addend: 0x0, symName: __ZNKSt3__18ios_base5rdbufB8ne190107Ev, symObjAddr: 0x5C80, symBinAddr: 0x100009F00, symSize: 0x10C }
  - { offset: 0x73D9, size: 0x8, addend: 0x0, symName: __ZNKSt3__118_SentinelValueFillINS_11char_traitsIcEEE8__is_setB8ne190107Ev, symObjAddr: 0x5D8C, symBinAddr: 0x10000A00C, symSize: 0x108 }
  - { offset: 0x73FD, size: 0x8, addend: 0x0, symName: __ZNKSt3__19basic_iosIcNS_11char_traitsIcEEE5widenB8ne190107Ec, symObjAddr: 0x5E94, symBinAddr: 0x10000A114, symSize: 0x404 }
  - { offset: 0x7432, size: 0x8, addend: 0x0, symName: __ZNSt3__118_SentinelValueFillINS_11char_traitsIcEEEaSB8ne190107Ei, symObjAddr: 0x6298, symBinAddr: 0x10000A518, symSize: 0x124 }
  - { offset: 0x7465, size: 0x8, addend: 0x0, symName: __ZNKSt3__118_SentinelValueFillINS_11char_traitsIcEEE5__getB8ne190107Ev, symObjAddr: 0x63BC, symBinAddr: 0x10000A63C, symSize: 0xF4 }
  - { offset: 0x7489, size: 0x8, addend: 0x0, symName: __ZNSt3__111char_traitsIcE3eofB8ne190107Ev, symObjAddr: 0x64B8, symBinAddr: 0x10000A738, symSize: 0x0 }
  - { offset: 0x74C9, size: 0x8, addend: 0x0, symName: __ZNKSt3__15ctypeIcE5widenB8ne190107Ec, symObjAddr: 0x6614, symBinAddr: 0x10000A894, symSize: 0x154 }
  - { offset: 0x74FC, size: 0x8, addend: 0x0, symName: __ZNSt3__18ios_base8setstateB8ne190107Ej, symObjAddr: 0x6768, symBinAddr: 0x10000A9E8, symSize: 0x1A4 }
  - { offset: 0x75C3, size: 0x8, addend: 0x0, symName: __ZNKSt3__113basic_istreamIcNS_11char_traitsIcEEE6sentrycvbB8ne190107Ev, symObjAddr: 0x6938, symBinAddr: 0x10000ABB8, symSize: 0xCC }
  - { offset: 0x75E7, size: 0x8, addend: 0x0, symName: __ZNSt3__112basic_stringIcNS_11char_traitsIcEENS_9allocatorIcEEE5clearB8ne190107Ev, symObjAddr: 0x6A04, symBinAddr: 0x10000AC84, symSize: 0x2CC }
  - { offset: 0x761C, size: 0x8, addend: 0x0, symName: __ZNKSt3__112basic_stringIcNS_11char_traitsIcEENS_9allocatorIcEEE8max_sizeB8ne190107Ev, symObjAddr: 0x6CD0, symBinAddr: 0x10000AF50, symSize: 0x194 }
  - { offset: 0x766C, size: 0x8, addend: 0x0, symName: __ZNSt3__114numeric_limitsIlE3maxB8ne190107Ev, symObjAddr: 0x6E6C, symBinAddr: 0x10000B0EC, symSize: 0x0 }
  - { offset: 0x767F, size: 0x8, addend: 0x0, symName: __ZNSt3__115basic_streambufIcNS_11char_traitsIcEEE5sgetcB8ne190107Ev, symObjAddr: 0x6E80, symBinAddr: 0x10000B100, symSize: 0x384 }
  - { offset: 0x76A3, size: 0x8, addend: 0x0, symName: __ZNSt3__111char_traitsIcE11eq_int_typeB8ne190107Eii, symObjAddr: 0x720C, symBinAddr: 0x10000B48C, symSize: 0x0 }
  - { offset: 0x76D3, size: 0x8, addend: 0x0, symName: __ZNSt3__111char_traitsIcE12to_char_typeB8ne190107Ei, symObjAddr: 0x7238, symBinAddr: 0x10000B4B8, symSize: 0x0 }
  - { offset: 0x76F5, size: 0x8, addend: 0x0, symName: __ZNKSt3__15ctypeIcE2isB8ne190107Ejc, symObjAddr: 0x7250, symBinAddr: 0x10000B4D0, symSize: 0x298 }
  - { offset: 0x7737, size: 0x8, addend: 0x0, symName: __ZNSt3__115basic_streambufIcNS_11char_traitsIcEEE6sbumpcB8ne190107Ev, symObjAddr: 0x74E8, symBinAddr: 0x10000B768, symSize: 0x42C }
  - { offset: 0x775B, size: 0x8, addend: 0x0, symName: __ZNSt3__18ios_base18__setstate_nothrowB8ne190107Ej, symObjAddr: 0x7914, symBinAddr: 0x10000BB94, symSize: 0x2B4 }
  - { offset: 0x778E, size: 0x8, addend: 0x0, symName: __ZNKSt3__19basic_iosIcNS_11char_traitsIcEEE10exceptionsB8ne190107Ev, symObjAddr: 0x7BC8, symBinAddr: 0x10000BE48, symSize: 0xF8 }
  - { offset: 0x77B2, size: 0x8, addend: 0x0, symName: __ZNSt3__111char_traitsIcE6assignB8ne190107ERcRKc, symObjAddr: 0x7CC8, symBinAddr: 0x10000BF48, symSize: 0x0 }
  - { offset: 0x77E2, size: 0x8, addend: 0x0, symName: __ZNSt3__112basic_stringIcNS_11char_traitsIcEENS_9allocatorIcEEE15__set_long_sizeB8ne190107Em, symObjAddr: 0x7DA4, symBinAddr: 0x10000C024, symSize: 0x19C }
  - { offset: 0x7815, size: 0x8, addend: 0x0, symName: __ZNSt3__112basic_stringIcNS_11char_traitsIcEENS_9allocatorIcEEE16__set_short_sizeB8ne190107Em, symObjAddr: 0x7F40, symBinAddr: 0x10000C1C0, symSize: 0x2A4 }
  - { offset: 0x7848, size: 0x8, addend: 0x0, symName: __ZNKSt3__112basic_stringIcNS_11char_traitsIcEENS_9allocatorIcEEE17__annotate_shrinkB8ne190107Em, symObjAddr: 0x81E4, symBinAddr: 0x10000C464, symSize: 0x58 }
  - { offset: 0x7885, size: 0x8, addend: 0x0, symName: __ZNSt3__116allocator_traitsINS_9allocatorIcEEE8max_sizeB8ne190107IS2_vTnNS_9enable_ifIXntsr14__has_max_sizeIKT_EE5valueEiE4typeELi0EEEmRKS2_, symObjAddr: 0x8244, symBinAddr: 0x10000C4C4, symSize: 0x0 }
  - { offset: 0x78B4, size: 0x8, addend: 0x0, symName: __ZNKSt3__112basic_stringIcNS_11char_traitsIcEENS_9allocatorIcEEE7__allocB8ne190107Ev, symObjAddr: 0x8298, symBinAddr: 0x10000C518, symSize: 0xB4 }
  - { offset: 0x78D8, size: 0x8, addend: 0x0, symName: __ZNSt3__114numeric_limitsImE3maxB8ne190107Ev, symObjAddr: 0x8354, symBinAddr: 0x10000C5D4, symSize: 0x0 }
  - { offset: 0x78EB, size: 0x8, addend: 0x0, symName: __ZNKSt3__117__compressed_pairINS_12basic_stringIcNS_11char_traitsIcEENS_9allocatorIcEEE5__repES5_E6secondB8ne190107Ev, symObjAddr: 0x8368, symBinAddr: 0x10000C5E8, symSize: 0xC4 }
  - { offset: 0x790F, size: 0x8, addend: 0x0, symName: __ZNKSt3__122__compressed_pair_elemINS_9allocatorIcEELi1ELb1EE5__getB8ne190107Ev, symObjAddr: 0x842C, symBinAddr: 0x10000C6AC, symSize: 0x64 }
  - { offset: 0x7933, size: 0x8, addend: 0x0, symName: __ZNSt3__123__libcpp_numeric_limitsImLb1EE3maxB8ne190107Ev, symObjAddr: 0x8498, symBinAddr: 0x10000C718, symSize: 0x0 }
  - { offset: 0x7946, size: 0x8, addend: 0x0, symName: __ZNSt3__123__libcpp_numeric_limitsIlLb1EE3maxB8ne190107Ev, symObjAddr: 0x84A8, symBinAddr: 0x10000C728, symSize: 0x0 }
  - { offset: 0x7959, size: 0x8, addend: 0x0, symName: __ZNSt3__111char_traitsIcE11to_int_typeB8ne190107Ec, symObjAddr: 0x84B8, symBinAddr: 0x10000C738, symSize: 0x0 }
  - { offset: 0x797B, size: 0x8, addend: 0x0, symName: __Z7isasciii, symObjAddr: 0x84D4, symBinAddr: 0x10000C754, symSize: 0x0 }
  - { offset: 0x79A7, size: 0x8, addend: 0x0, symName: __ZNKSt3__18ios_base10exceptionsB8ne190107Ev, symObjAddr: 0x84F4, symBinAddr: 0x10000C774, symSize: 0x130 }
  - { offset: 0x9D0F, size: 0x8, addend: 0x0, symName: _.str, symObjAddr: 0x2C160, symBinAddr: 0x1000757C0, symSize: 0x0 }
  - { offset: 0x9D3F, size: 0x8, addend: 0x0, symName: _.str.1, symObjAddr: 0x2C180, symBinAddr: 0x1000757E0, symSize: 0x0 }
  - { offset: 0x9D69, size: 0x8, addend: 0x0, symName: __ZN12_GLOBAL__N_123NumWordsIn_OneWord_Test10test_info_E, symObjAddr: 0xACB00, symBinAddr: 0x100093300, symSize: 0x0 }
  - { offset: 0x9E3D, size: 0x8, addend: 0x0, symName: __ZN12_GLOBAL__N_129NumWordsIn_MultipleWords_Test10test_info_E, symObjAddr: 0xACB20, symBinAddr: 0x100093320, symSize: 0x0 }
  - { offset: 0x9F11, size: 0x8, addend: 0x0, symName: __ZN12_GLOBAL__N_127NumWordsIn_EmptyString_Test10test_info_E, symObjAddr: 0xACB40, symBinAddr: 0x100093340, symSize: 0x0 }
  - { offset: 0x9FE5, size: 0x8, addend: 0x0, symName: __ZN12_GLOBAL__N_121Lab1Main_OneWord_Test10test_info_E, symObjAddr: 0xACB60, symBinAddr: 0x100093360, symSize: 0x0 }
  - { offset: 0xA0F4, size: 0x8, addend: 0x0, symName: __ZN12_GLOBAL__N_127Lab1Main_MultipleWords_Test10test_info_E, symObjAddr: 0xACB80, symBinAddr: 0x100093380, symSize: 0x0 }
  - { offset: 0xA1CA, size: 0x8, addend: 0x0, symName: __ZN12_GLOBAL__N_125Lab1Main_EmptyString_Test10test_info_E, symObjAddr: 0xACBA0, symBinAddr: 0x1000933A0, symSize: 0x0 }
  - { offset: 0xA2A0, size: 0x8, addend: 0x0, symName: __ZN12_GLOBAL__N_130NumWordsIn_MultipleSpaces_Test10test_info_E, symObjAddr: 0xACBC0, symBinAddr: 0x1000933C0, symSize: 0x0 }
  - { offset: 0xA374, size: 0x8, addend: 0x0, symName: __ZN12_GLOBAL__N_140NumWordsIn_LeadingAndTrailingSpaces_Test10test_info_E, symObjAddr: 0xACBE0, symBinAddr: 0x1000933E0, symSize: 0x0 }
  - { offset: 0xA448, size: 0x8, addend: 0x0, symName: __ZN12_GLOBAL__N_141NumWordsIn_EmptyStringWithOnlySpaces_Test10test_info_E, symObjAddr: 0xACC00, symBinAddr: 0x100093400, symSize: 0x0 }
  - { offset: 0xAD24, size: 0x8, addend: 0x0, symName: __ZN7testing8internal31CanonicalizeForStdLibVersioningENSt3__112basic_stringIcNS1_11char_traitsIcEENS1_9allocatorIcEEEE, symObjAddr: 0x10DD4, symBinAddr: 0x10001A7C8, symSize: 0x0 }
  - { offset: 0xAD4E, size: 0x8, addend: 0x0, symName: __ZZN7testing8internal31CanonicalizeForStdLibVersioningENSt3__112basic_stringIcNS1_11char_traitsIcEENS1_9allocatorIcEEEEE6prefix, symObjAddr: 0x3262C, symBinAddr: 0x10007052C, symSize: 0x0 }
  - { offset: 0xAD64, size: 0x8, addend: 0x0, symName: __ZZN7testing8internal31CanonicalizeForStdLibVersioningENSt3__112basic_stringIcNS1_11char_traitsIcEENS1_9allocatorIcEEEEE9to_search, symObjAddr: 0x32634, symBinAddr: 0x100070534, symSize: 0x0 }
  - { offset: 0xB102, size: 0x8, addend: 0x0, symName: __ZN7testing8internal12TypeIdHelperIN12_GLOBAL__N_18Lab1MainEE6dummy_E, symObjAddr: 0xACC20, symBinAddr: 0x100093420, symSize: 0x0 }
  - { offset: 0xB4F9, size: 0x8, addend: 0x0, symName: __ZN7testing8internal9GetTypeIdIN12_GLOBAL__N_18Lab1MainEEEPKvv, symObjAddr: 0xC84, symBinAddr: 0x10000D5B8, symSize: 0x0 }
  - { offset: 0xB7BF, size: 0x8, addend: 0x0, symName: __ZN7testing8internal33MakePredicateFormatterFromMatcherINS0_9EqMatcherIiEEEENS0_29PredicateFormatterFromMatcherIT_EES5_, symObjAddr: 0x3A0C, symBinAddr: 0x10000F824, symSize: 0x0 }
  - { offset: 0xB7F7, size: 0x8, addend: 0x0, symName: __ZN7testing8internal20MatchPrintAndExplainIKiRS2_EEbRT_RKNS_7MatcherIT0_EEPNS_19MatchResultListenerE, symObjAddr: 0x5DC8, symBinAddr: 0x100011BE0, symSize: 0x0 }
  - { offset: 0xB92A, size: 0x8, addend: 0x0, symName: __ZN7testing8internal14UniversalPrintIiEEvRKT_PNSt3__113basic_ostreamIcNS5_11char_traitsIcEEEE, symObjAddr: 0x94D0, symBinAddr: 0x1000152E8, symSize: 0x0 }
  - { offset: 0xB999, size: 0x8, addend: 0x0, symName: __ZN7testing8internal7PrintToIiEEvRKT_PNSt3__113basic_ostreamIcNS5_11char_traitsIcEEEE, symObjAddr: 0x95A8, symBinAddr: 0x1000153C0, symSize: 0x0 }
  - { offset: 0xB9DC, size: 0x8, addend: 0x0, symName: __ZN7testing8internal17PrintWithFallbackIiEEvRKT_PNSt3__113basic_ostreamIcNS5_11char_traitsIcEEEE, symObjAddr: 0x9614, symBinAddr: 0x10001542C, symSize: 0x0 }
  - { offset: 0xBB3D, size: 0x8, addend: 0x0, symName: __ZN7testing8internal11GetTypeNameIKiEENSt3__112basic_stringIcNS3_11char_traitsIcEENS3_9allocatorIcEEEEv, symObjAddr: 0x10604, symBinAddr: 0x100019FF8, symSize: 0x0 }
  - { offset: 0xBB64, size: 0x8, addend: 0x0, symName: __ZN7testing8internal18IsReadableTypeNameERKNSt3__112basic_stringIcNS1_11char_traitsIcEENS1_9allocatorIcEEEE, symObjAddr: 0x10638, symBinAddr: 0x10001A02C, symSize: 0x0 }
  - { offset: 0xBB93, size: 0x8, addend: 0x0, symName: __ZN7testing8internal15PrintIfNotEmptyERKNSt3__112basic_stringIcNS1_11char_traitsIcEENS1_9allocatorIcEEEEPNS1_13basic_ostreamIcS4_EE, symObjAddr: 0x106F4, symBinAddr: 0x10001A0E8, symSize: 0x0 }
  - { offset: 0xBBCC, size: 0x8, addend: 0x0, symName: __ZN7testing8internal11GetTypeNameERKSt9type_info, symObjAddr: 0x10824, symBinAddr: 0x10001A218, symSize: 0x0 }
  - { offset: 0xBC42, size: 0x8, addend: 0x0, symName: __ZN7testing8internal33MakePredicateFormatterFromMatcherINS_18PolymorphicMatcherINS0_16HasSubstrMatcherINSt3__112basic_stringIcNS4_11char_traitsIcEENS4_9allocatorIcEEEEEEEEEENS0_29PredicateFormatterFromMatcherIT_EESE_, symObjAddr: 0x1B23C, symBinAddr: 0x100024930, symSize: 0x0 }
  - { offset: 0xBC7B, size: 0x8, addend: 0x0, symName: __ZN7testing8internal20MatchPrintAndExplainIKNSt3__112basic_stringIcNS2_11char_traitsIcEENS2_9allocatorIcEEEERS9_EEbRT_RKNS_7MatcherIT0_EEPNS_19MatchResultListenerE, symObjAddr: 0x1D7AC, symBinAddr: 0x100026EA0, symSize: 0x0 }
  - { offset: 0xBDAE, size: 0x8, addend: 0x0, symName: __ZN7testing8internal14UniversalPrintINSt3__112basic_stringIcNS2_11char_traitsIcEENS2_9allocatorIcEEEEEEvRKT_PNS2_13basic_ostreamIcS5_EE, symObjAddr: 0x1F14C, symBinAddr: 0x100028840, symSize: 0x0 }
  - { offset: 0xBE1B, size: 0x8, addend: 0x0, symName: __ZN7testing8internal7PrintToERKNSt3__112basic_stringIcNS1_11char_traitsIcEENS1_9allocatorIcEEEEPNS1_13basic_ostreamIcS4_EE, symObjAddr: 0x1F224, symBinAddr: 0x100028918, symSize: 0x0 }
  - { offset: 0xBE54, size: 0x8, addend: 0x0, symName: __ZN7testing8internal11GetTypeNameIKNSt3__112basic_stringIcNS2_11char_traitsIcEENS2_9allocatorIcEEEEEES8_v, symObjAddr: 0x249F8, symBinAddr: 0x10002E0EC, symSize: 0x0 }
  - { offset: 0xBE7C, size: 0x8, addend: 0x0, symName: __ZN7testing8internal19GetNotDefaultOrNullEPFvvES2_, symObjAddr: 0x28A1C, symBinAddr: 0x100032110, symSize: 0x0 }
  - { offset: 0xCA3E, size: 0x8, addend: 0x0, symName: __ZN7testing2EqIiEENS_8internal9EqMatcherIT_EES3_, symObjAddr: 0x3BDC, symBinAddr: 0x10000F9F4, symSize: 0x0 }
  - { offset: 0xCCD2, size: 0x8, addend: 0x0, symName: __ZN7testing15SafeMatcherCastIRKiNS_8internal9EqMatcherIiEEEENS_7MatcherIT_EERKT0_, symObjAddr: 0x4FC4, symBinAddr: 0x100010DDC, symSize: 0x0 }
  - { offset: 0xCE3E, size: 0x8, addend: 0x0, symName: __ZN7testing11MatcherCastIRKiNS_8internal9EqMatcherIiEEEENS_7MatcherIT_EERKT0_, symObjAddr: 0x72D8, symBinAddr: 0x1000130F0, symSize: 0x0 }
  - { offset: 0xCE7E, size: 0x8, addend: 0x0, symName: __ZN7testing9HasSubstrIA2_cEENS_18PolymorphicMatcherINS_8internal16HasSubstrMatcherINSt3__112basic_stringIcNS5_11char_traitsIcEENS5_9allocatorIcEEEEEEEERKT_, symObjAddr: 0x1B51C, symBinAddr: 0x100024C10, symSize: 0x0 }
  - { offset: 0xCEB6, size: 0x8, addend: 0x0, symName: __ZN7testing22MakePolymorphicMatcherINS_8internal16HasSubstrMatcherINSt3__112basic_stringIcNS3_11char_traitsIcEENS3_9allocatorIcEEEEEEEENS_18PolymorphicMatcherIT_EERKSC_, symObjAddr: 0x1C9B4, symBinAddr: 0x1000260A8, symSize: 0x0 }
  - { offset: 0xCEED, size: 0x8, addend: 0x0, symName: __ZN7testing15SafeMatcherCastIRKNSt3__112basic_stringIcNS1_11char_traitsIcEENS1_9allocatorIcEEEENS_18PolymorphicMatcherINS_8internal16HasSubstrMatcherIS7_EEEEEENS_7MatcherIT_EERKT0_, symObjAddr: 0x1CE50, symBinAddr: 0x100026544, symSize: 0x0 }
  - { offset: 0xCF2D, size: 0x8, addend: 0x0, symName: __ZN7testing11MatcherCastIRKNSt3__112basic_stringIcNS1_11char_traitsIcEENS1_9allocatorIcEEEENS_18PolymorphicMatcherINS_8internal16HasSubstrMatcherIS7_EEEEEENS_7MatcherIT_EERKT0_, symObjAddr: 0x1E448, symBinAddr: 0x100027B3C, symSize: 0x0 }
  - { offset: 0x16BC3, size: 0x8, addend: 0x0, symName: __ZNSt3__1lsB8ne190107IcNS_11char_traitsIcEENS_9allocatorIcEEEERNS_13basic_ostreamIT_T0_EES9_RKNS_12basic_stringIS6_S7_T1_EE, symObjAddr: 0x6A0C, symBinAddr: 0x100012824, symSize: 0x0 }
  - { offset: 0x16C1B, size: 0x8, addend: 0x0, symName: __ZNSt3__13getB8ne190107ILm0EJPKN7testing8internal11MatcherBaseIRKiEEPKNS2_9EqMatcherIiEEEEEONS_13tuple_elementIXT_ENS_5tupleIJDpT0_EEEE4typeEOSH_, symObjAddr: 0x97E8, symBinAddr: 0x100015600, symSize: 0x0 }
  - { offset: 0x16C64, size: 0x8, addend: 0x0, symName: __ZNSt3__110make_tupleB8ne190107IJPKN7testing8internal11MatcherBaseIRKiEEPKNS2_9EqMatcherIiEEEEENS_5tupleIJDpNS_18__unwrap_ref_decayIT_E4typeEEEEDpOSF_, symObjAddr: 0x98A8, symBinAddr: 0x1000156C0, symSize: 0x0 }
  - { offset: 0x17102, size: 0x8, addend: 0x0, symName: __ZNSt3__122__cxx_atomic_fetch_subB8ne190107IiEET_PNS_22__cxx_atomic_base_implIS1_EES1_NS_12memory_orderE, symObjAddr: 0xAA94, symBinAddr: 0x1000168AC, symSize: 0x0 }
  - { offset: 0x17157, size: 0x8, addend: 0x0, symName: __ZNSt3__110__str_findB8ne190107IcmNS_11char_traitsIcEETnT0_Lm18446744073709551615EEES3_PKT_S3_S6_S3_S3_, symObjAddr: 0x110CC, symBinAddr: 0x10001AAC0, symSize: 0x0 }
  - { offset: 0x171FE, size: 0x8, addend: 0x0, symName: __ZNSt3__118__search_substringB8ne190107IcNS_11char_traitsIcEEEEPKT_S5_S5_S5_S5_, symObjAddr: 0x114BC, symBinAddr: 0x10001AEB0, symSize: 0x0 }
  - { offset: 0x172A2, size: 0x8, addend: 0x0, symName: __ZNSt3__118__constexpr_memchrB8ne190107IKccEEPT_S3_T0_m, symObjAddr: 0x11A24, symBinAddr: 0x10001B418, symSize: 0x0 }
  - { offset: 0x17318, size: 0x8, addend: 0x0, symName: __ZNSt3__112__to_addressB8ne190107IKcEEPT_S3_, symObjAddr: 0x11A78, symBinAddr: 0x10001B46C, symSize: 0x0 }
  - { offset: 0x17380, size: 0x8, addend: 0x0, symName: __ZNSt3__119__str_find_first_ofB8ne190107IcmNS_11char_traitsIcEETnT0_Lm18446744073709551615EEES3_PKT_S3_S6_S3_S3_, symObjAddr: 0x11F00, symBinAddr: 0x10001B8F4, symSize: 0x0 }
  - { offset: 0x17427, size: 0x8, addend: 0x0, symName: __ZNSt3__118__find_first_of_ceB8ne190107IPKcS2_RDoFbccEEET_S5_S5_T0_S6_OT1_, symObjAddr: 0x122A8, symBinAddr: 0x10001BC9C, symSize: 0x0 }
  - { offset: 0x174C2, size: 0x8, addend: 0x0, symName: __ZNSt3__1eqB8ne190107INS_12basic_stringIcNS_11char_traitsIcEENS_9allocatorIcEEEENS_14default_deleteIS6_EEEEbRKNS_10unique_ptrIT_T0_EEDn, symObjAddr: 0x12C44, symBinAddr: 0x10001C638, symSize: 0x0 }
  - { offset: 0x1750D, size: 0x8, addend: 0x0, symName: __ZNSt3__111make_uniqueB8ne190107INS_12basic_stringIcNS_11char_traitsIcEENS_9allocatorIcEEEEJEEENS_11__unique_ifIT_E15__unique_singleEDpOT0_, symObjAddr: 0x12CA0, symBinAddr: 0x10001C694, symSize: 0x0 }
  - { offset: 0x1753B, size: 0x8, addend: 0x0, symName: __ZNSt3__110to_addressB8ne190107IcEEDaPT_, symObjAddr: 0x158BC, symBinAddr: 0x10001F2B0, symSize: 0x0 }
  - { offset: 0x17570, size: 0x8, addend: 0x0, symName: __ZNSt3__13getB8ne190107ILm1EJPKN7testing8internal11MatcherBaseIRKNS_12basic_stringIcNS_11char_traitsIcEENS_9allocatorIcEEEEEEPKNS1_16MatcherInterfaceISB_EEEEEONS_13tuple_elementIXT_ENS_5tupleIJDpT0_EEEE4typeEOSN_, symObjAddr: 0x216E4, symBinAddr: 0x10002ADD8, symSize: 0x0 }
  - { offset: 0x175B9, size: 0x8, addend: 0x0, symName: __ZNSt3__110make_tupleB8ne190107IJPKN7testing8internal11MatcherBaseIRKNS_12basic_stringIcNS_11char_traitsIcEENS_9allocatorIcEEEEEEPKNS1_16MatcherInterfaceISB_EEEEENS_5tupleIJDpNS_18__unwrap_ref_decayIT_E4typeEEEEDpOSL_, symObjAddr: 0x217B4, symBinAddr: 0x10002AEA8, symSize: 0x0 }
  - { offset: 0x18DE7, size: 0x8, addend: 0x0, symName: _.str.4, symObjAddr: 0x2C1A0, symBinAddr: 0x100075800, symSize: 0x0 }
  - { offset: 0x18E1D, size: 0x8, addend: 0x0, symName: _.str.6, symObjAddr: 0x2C1C0, symBinAddr: 0x100075820, symSize: 0x0 }
  - { offset: 0x18E53, size: 0x8, addend: 0x0, symName: _.str.8, symObjAddr: 0x2C1E0, symBinAddr: 0x100075840, symSize: 0x0 }
  - { offset: 0x191FA, size: 0x8, addend: 0x0, symName: _.str.12, symObjAddr: 0x2C200, symBinAddr: 0x100075860, symSize: 0x0 }
  - { offset: 0x19224, size: 0x8, addend: 0x0, symName: _.str.14, symObjAddr: 0x2C220, symBinAddr: 0x100075880, symSize: 0x0 }
  - { offset: 0x1925A, size: 0x8, addend: 0x0, symName: _.str.16, symObjAddr: 0x2C260, symBinAddr: 0x1000758C0, symSize: 0x0 }
  - { offset: 0x19290, size: 0x8, addend: 0x0, symName: _.str.20, symObjAddr: 0x2C380, symBinAddr: 0x1000759E0, symSize: 0x0 }
  - { offset: 0x192AD, size: 0x8, addend: 0x0, symName: _.str.21, symObjAddr: 0x2C3C0, symBinAddr: 0x100075A20, symSize: 0x0 }
  - { offset: 0x192CC, size: 0x8, addend: 0x0, symName: _.str.24, symObjAddr: 0x2C3E0, symBinAddr: 0x100075A40, symSize: 0x0 }
  - { offset: 0x192DF, size: 0x8, addend: 0x0, symName: _.str.25, symObjAddr: 0x2C400, symBinAddr: 0x100075A60, symSize: 0x0 }
  - { offset: 0x192FE, size: 0x8, addend: 0x0, symName: _.str.26, symObjAddr: 0x2C420, symBinAddr: 0x100075A80, symSize: 0x0 }
  - { offset: 0x19311, size: 0x8, addend: 0x0, symName: _.str.27, symObjAddr: 0x2C440, symBinAddr: 0x100075AA0, symSize: 0x0 }
  - { offset: 0x19330, size: 0x8, addend: 0x0, symName: _.str.28, symObjAddr: 0x2C4E0, symBinAddr: 0x100075B40, symSize: 0x0 }
  - { offset: 0x19341, size: 0x8, addend: 0x0, symName: _.str.29, symObjAddr: 0x2C500, symBinAddr: 0x100075B60, symSize: 0x0 }
  - { offset: 0x1935E, size: 0x8, addend: 0x0, symName: _.str.30, symObjAddr: 0x2C520, symBinAddr: 0x100075B80, symSize: 0x0 }
  - { offset: 0x1944E, size: 0x8, addend: 0x0, symName: __ZN7testing8internal11MatcherBaseIRKiE9GetVTableINS4_11ValuePolicyINS0_9EqMatcherIiEELb1EEEEEPKNS4_6VTableEv, symObjAddr: 0x8458, symBinAddr: 0x100014270, symSize: 0x5C }
  - { offset: 0x19473, size: 0x8, addend: 0x0, symName: __ZZN7testing8internal11MatcherBaseIRKiE9GetVTableINS4_11ValuePolicyINS0_9EqMatcherIiEELb1EEEEEPKNS4_6VTableEvE7kVTable, symObjAddr: 0x40A88, symBinAddr: 0x100080CC8, symSize: 0x0 }
  - { offset: 0x1949C, size: 0x8, addend: 0x0, symName: _.str.32, symObjAddr: 0x2C540, symBinAddr: 0x100075BA0, symSize: 0x0 }
  - { offset: 0x194AF, size: 0x8, addend: 0x0, symName: _.str.33, symObjAddr: 0x2C560, symBinAddr: 0x100075BC0, symSize: 0x0 }
  - { offset: 0x194C2, size: 0x8, addend: 0x0, symName: _.str.35, symObjAddr: 0x2C580, symBinAddr: 0x100075BE0, symSize: 0x0 }
  - { offset: 0x194D8, size: 0x8, addend: 0x0, symName: _.str.40, symObjAddr: 0x2C5A0, symBinAddr: 0x100075C00, symSize: 0x0 }
  - { offset: 0x194F7, size: 0x8, addend: 0x0, symName: _.str.50, symObjAddr: 0x2C600, symBinAddr: 0x100075C60, symSize: 0x0 }
  - { offset: 0x19508, size: 0x8, addend: 0x0, symName: _.str.53, symObjAddr: 0x2C620, symBinAddr: 0x100075C80, symSize: 0x0 }
  - { offset: 0x19527, size: 0x8, addend: 0x0, symName: _.str.55, symObjAddr: 0x2C640, symBinAddr: 0x100075CA0, symSize: 0x0 }
  - { offset: 0x1953A, size: 0x8, addend: 0x0, symName: _.str.57, symObjAddr: 0x2C660, symBinAddr: 0x100075CC0, symSize: 0x0 }
  - { offset: 0x1954B, size: 0x8, addend: 0x0, symName: _.str.62, symObjAddr: 0x33200, symBinAddr: 0x100071100, symSize: 0x0 }
  - { offset: 0x19568, size: 0x8, addend: 0x0, symName: _.str.64, symObjAddr: 0x2C760, symBinAddr: 0x100075DC0, symSize: 0x0 }
  - { offset: 0x19585, size: 0x8, addend: 0x0, symName: _.str.65, symObjAddr: 0x2C7C0, symBinAddr: 0x100075E20, symSize: 0x0 }
  - { offset: 0x195A2, size: 0x8, addend: 0x0, symName: _.str.66, symObjAddr: 0x2C8E0, symBinAddr: 0x100075F40, symSize: 0x0 }
  - { offset: 0x195B3, size: 0x8, addend: 0x0, symName: _.str.68, symObjAddr: 0x2CA20, symBinAddr: 0x100076080, symSize: 0x0 }
  - { offset: 0x195C4, size: 0x8, addend: 0x0, symName: _.str.69, symObjAddr: 0x2CA40, symBinAddr: 0x1000760A0, symSize: 0x0 }
  - { offset: 0x195D7, size: 0x8, addend: 0x0, symName: _.str.70, symObjAddr: 0x2CA60, symBinAddr: 0x1000760C0, symSize: 0x0 }
  - { offset: 0x195EA, size: 0x8, addend: 0x0, symName: _.str.71, symObjAddr: 0x2CA80, symBinAddr: 0x1000760E0, symSize: 0x0 }
  - { offset: 0x1968A, size: 0x8, addend: 0x0, symName: __ZN7testing8internal11MatcherBaseIRKNSt3__112basic_stringIcNS2_11char_traitsIcEENS2_9allocatorIcEEEEE9GetVTableINSB_11ValuePolicyIPKNS_16MatcherInterfaceISA_EELb1EEEEEPKNSB_6VTableEv, symObjAddr: 0x204DC, symBinAddr: 0x100029BD0, symSize: 0x5C }
  - { offset: 0x196AF, size: 0x8, addend: 0x0, symName: __ZZN7testing8internal11MatcherBaseIRKNSt3__112basic_stringIcNS2_11char_traitsIcEENS2_9allocatorIcEEEEE9GetVTableINSB_11ValuePolicyIPKNS_16MatcherInterfaceISA_EELb1EEEEEPKNSB_6VTableEvE7kVTable, symObjAddr: 0x41120, symBinAddr: 0x100081360, symSize: 0x0 }
  - { offset: 0x196D6, size: 0x8, addend: 0x0, symName: _.str.73, symObjAddr: 0x2CBA0, symBinAddr: 0x100076200, symSize: 0x0 }
  - { offset: 0x196E7, size: 0x8, addend: 0x0, symName: _.str.74, symObjAddr: 0x2CBE0, symBinAddr: 0x100076240, symSize: 0x0 }
  - { offset: 0x196F8, size: 0x8, addend: 0x0, symName: _.str.75, symObjAddr: 0x2CCE0, symBinAddr: 0x100076340, symSize: 0x0 }
  - { offset: 0x19709, size: 0x8, addend: 0x0, symName: _.str.76, symObjAddr: 0x2CDE0, symBinAddr: 0x100076440, symSize: 0x0 }
  - { offset: 0x19726, size: 0x8, addend: 0x0, symName: _.str.77, symObjAddr: 0x2CE60, symBinAddr: 0x1000764C0, symSize: 0x0 }
  - { offset: 0x19743, size: 0x8, addend: 0x0, symName: _.str.78, symObjAddr: 0x2CFC0, symBinAddr: 0x100076620, symSize: 0x0 }
  - { offset: 0x19760, size: 0x8, addend: 0x0, symName: _.str.79, symObjAddr: 0x2D020, symBinAddr: 0x100076680, symSize: 0x0 }
  - { offset: 0x1977D, size: 0x8, addend: 0x0, symName: _.str.80, symObjAddr: 0x2D180, symBinAddr: 0x1000767E0, symSize: 0x0 }
  - { offset: 0x1978E, size: 0x8, addend: 0x0, symName: _.str.81, symObjAddr: 0x2D1C0, symBinAddr: 0x100076820, symSize: 0x0 }
  - { offset: 0x197A1, size: 0x8, addend: 0x0, symName: _.str.82, symObjAddr: 0x2D1E0, symBinAddr: 0x100076840, symSize: 0x0 }
  - { offset: 0x197C0, size: 0x8, addend: 0x0, symName: _.str.83, symObjAddr: 0x2D240, symBinAddr: 0x1000768A0, symSize: 0x0 }
  - { offset: 0x197DF, size: 0x8, addend: 0x0, symName: _.str.84, symObjAddr: 0x2D2E0, symBinAddr: 0x100076940, symSize: 0x0 }
  - { offset: 0x197F2, size: 0x8, addend: 0x0, symName: _.str.85, symObjAddr: 0x2D300, symBinAddr: 0x100076960, symSize: 0x0 }
  - { offset: 0x19992, size: 0x8, addend: 0x0, symName: __ZNSt3__112basic_stringIcNS_11char_traitsIcEENS_9allocatorIcEEEC1B8ne190107ILi0EEEPKc, symObjAddr: 0x0, symBinAddr: 0x10000C934, symSize: 0x6C }
  - { offset: 0x199CF, size: 0x8, addend: 0x0, symName: __ZN7testing8internal12CodeLocationC1ENSt3__112basic_stringIcNS2_11char_traitsIcEENS2_9allocatorIcEEEEi, symObjAddr: 0x6C, symBinAddr: 0x10000C9A0, symSize: 0x78 }
  - { offset: 0x19A1C, size: 0x8, addend: 0x0, symName: __ZN7testing8internal16SuiteApiResolverINS_4TestEE19GetSetUpCaseOrSuiteEPKci, symObjAddr: 0xEC, symBinAddr: 0x10000CA20, symSize: 0x0 }
  - { offset: 0x19A70, size: 0x8, addend: 0x0, symName: __ZN7testing8internal16SuiteApiResolverINS_4TestEE22GetTearDownCaseOrSuiteEPKci, symObjAddr: 0x5F0, symBinAddr: 0x10000CF24, symSize: 0x0 }
  - { offset: 0x19ACA, size: 0x8, addend: 0x0, symName: __ZN7testing8internal15TestFactoryImplIN12_GLOBAL__N_123NumWordsIn_OneWord_TestEEC1Ev, symObjAddr: 0xAEC, symBinAddr: 0x10000D420, symSize: 0x64 }
  - { offset: 0x19AF6, size: 0x8, addend: 0x0, symName: __ZN7testing8internal12CodeLocationD1Ev, symObjAddr: 0xB50, symBinAddr: 0x10000D484, symSize: 0x64 }
  - { offset: 0x19B27, size: 0x8, addend: 0x0, symName: __ZN7testing8internal15TestFactoryImplIN12_GLOBAL__N_129NumWordsIn_MultipleWords_TestEEC1Ev, symObjAddr: 0xBB4, symBinAddr: 0x10000D4E8, symSize: 0x64 }
  - { offset: 0x19B58, size: 0x8, addend: 0x0, symName: __ZN7testing8internal15TestFactoryImplIN12_GLOBAL__N_127NumWordsIn_EmptyString_TestEEC1Ev, symObjAddr: 0xC18, symBinAddr: 0x10000D54C, symSize: 0x64 }
  - { offset: 0x19B83, size: 0x8, addend: 0x0, symName: __ZN7testing8internal16SuiteApiResolverIN12_GLOBAL__N_18Lab1MainEE19GetSetUpCaseOrSuiteEPKci, symObjAddr: 0xC98, symBinAddr: 0x10000D5CC, symSize: 0x0 }
  - { offset: 0x19BD7, size: 0x8, addend: 0x0, symName: __ZN7testing8internal16SuiteApiResolverIN12_GLOBAL__N_18Lab1MainEE22GetTearDownCaseOrSuiteEPKci, symObjAddr: 0x119C, symBinAddr: 0x10000DAD0, symSize: 0x0 }
  - { offset: 0x19C31, size: 0x8, addend: 0x0, symName: __ZN7testing8internal15TestFactoryImplIN12_GLOBAL__N_121Lab1Main_OneWord_TestEEC1Ev, symObjAddr: 0x1698, symBinAddr: 0x10000DFCC, symSize: 0x64 }
  - { offset: 0x19C62, size: 0x8, addend: 0x0, symName: __ZN7testing8internal15TestFactoryImplIN12_GLOBAL__N_127Lab1Main_MultipleWords_TestEEC1Ev, symObjAddr: 0x16FC, symBinAddr: 0x10000E030, symSize: 0x64 }
  - { offset: 0x19C93, size: 0x8, addend: 0x0, symName: __ZN7testing8internal15TestFactoryImplIN12_GLOBAL__N_125Lab1Main_EmptyString_TestEEC1Ev, symObjAddr: 0x1760, symBinAddr: 0x10000E094, symSize: 0x64 }
  - { offset: 0x19CC4, size: 0x8, addend: 0x0, symName: __ZN7testing8internal15TestFactoryImplIN12_GLOBAL__N_130NumWordsIn_MultipleSpaces_TestEEC1Ev, symObjAddr: 0x17C4, symBinAddr: 0x10000E0F8, symSize: 0x64 }
  - { offset: 0x19CF5, size: 0x8, addend: 0x0, symName: __ZN7testing8internal15TestFactoryImplIN12_GLOBAL__N_140NumWordsIn_LeadingAndTrailingSpaces_TestEEC1Ev, symObjAddr: 0x1828, symBinAddr: 0x10000E15C, symSize: 0x64 }
  - { offset: 0x19D26, size: 0x8, addend: 0x0, symName: __ZN7testing8internal15TestFactoryImplIN12_GLOBAL__N_141NumWordsIn_EmptyStringWithOnlySpaces_TestEEC1Ev, symObjAddr: 0x188C, symBinAddr: 0x10000E1C0, symSize: 0x64 }
  - { offset: 0x19D51, size: 0x8, addend: 0x0, symName: __ZNSt3__112basic_stringIcNS_11char_traitsIcEENS_9allocatorIcEEEC2B8ne190107ILi0EEEPKc, symObjAddr: 0x18F0, symBinAddr: 0x10000E224, symSize: 0x244 }
  - { offset: 0x19D95, size: 0x8, addend: 0x0, symName: __ZN7testing8internal12CodeLocationC2ENSt3__112basic_stringIcNS2_11char_traitsIcEENS2_9allocatorIcEEEEi, symObjAddr: 0x1E4C, symBinAddr: 0x10000E4C0, symSize: 0x128 }
  - { offset: 0x19DDC, size: 0x8, addend: 0x0, symName: __ZNSt3__112basic_stringIcNS_11char_traitsIcEENS_9allocatorIcEEEC1B8ne190107EOS5_, symObjAddr: 0x1F74, symBinAddr: 0x10000E5E8, symSize: 0x6C }
  - { offset: 0x19E13, size: 0x8, addend: 0x0, symName: __ZNSt3__112basic_stringIcNS_11char_traitsIcEENS_9allocatorIcEEEC2B8ne190107EOS5_, symObjAddr: 0x1FE0, symBinAddr: 0x10000E654, symSize: 0x334 }
  - { offset: 0x19E7C, size: 0x8, addend: 0x0, symName: __ZZNSt3__112basic_stringIcNS_11char_traitsIcEENS_9allocatorIcEEEC1B8ne190107EOS5_ENKUlRS5_E_clES7_, symObjAddr: 0x2314, symBinAddr: 0x10000E988, symSize: 0xE8 }
  - { offset: 0x19EB3, size: 0x8, addend: 0x0, symName: __ZNKSt3__112basic_stringIcNS_11char_traitsIcEENS_9allocatorIcEEE17__annotate_deleteB8ne190107Ev, symObjAddr: 0x2750, symBinAddr: 0x10000EA70, symSize: 0x54 }
  - { offset: 0x19ED8, size: 0x8, addend: 0x0, symName: __ZN7testing8internal15TestFactoryImplIN12_GLOBAL__N_123NumWordsIn_OneWord_TestEEC2Ev, symObjAddr: 0x2CAC, symBinAddr: 0x10000EAC4, symSize: 0xF8 }
  - { offset: 0x19F03, size: 0x8, addend: 0x0, symName: __ZN7testing8internal15TestFactoryBaseC2Ev, symObjAddr: 0x2DA4, symBinAddr: 0x10000EBBC, symSize: 0xB4 }
  - { offset: 0x19F2C, size: 0x8, addend: 0x0, symName: __ZN7testing8internal15TestFactoryImplIN12_GLOBAL__N_123NumWordsIn_OneWord_TestEED1Ev, symObjAddr: 0x2E58, symBinAddr: 0x10000EC70, symSize: 0x64 }
  - { offset: 0x19F58, size: 0x8, addend: 0x0, symName: __ZN7testing8internal15TestFactoryImplIN12_GLOBAL__N_123NumWordsIn_OneWord_TestEED0Ev, symObjAddr: 0x2EBC, symBinAddr: 0x10000ECD4, symSize: 0x68 }
  - { offset: 0x19F83, size: 0x8, addend: 0x0, symName: __ZN7testing8internal15TestFactoryImplIN12_GLOBAL__N_123NumWordsIn_OneWord_TestEE10CreateTestEv, symObjAddr: 0x2F24, symBinAddr: 0x10000ED3C, symSize: 0xFC }
  - { offset: 0x19FA7, size: 0x8, addend: 0x0, symName: __ZN7testing8internal15TestFactoryBaseD1Ev, symObjAddr: 0x3020, symBinAddr: 0x10000EE38, symSize: 0x54 }
  - { offset: 0x19FCF, size: 0x8, addend: 0x0, symName: __ZN7testing8internal15TestFactoryBaseD0Ev, symObjAddr: 0x3074, symBinAddr: 0x10000EE8C, symSize: 0x50 }
  - { offset: 0x19FF8, size: 0x8, addend: 0x0, symName: __ZN7testing8internal15TestFactoryImplIN12_GLOBAL__N_123NumWordsIn_OneWord_TestEED2Ev, symObjAddr: 0x30C4, symBinAddr: 0x10000EEDC, symSize: 0x64 }
  - { offset: 0x1A023, size: 0x8, addend: 0x0, symName: __ZN7testing8internal15TestFactoryBaseD2Ev, symObjAddr: 0x3128, symBinAddr: 0x10000EF40, symSize: 0x5C }
  - { offset: 0x1A04B, size: 0x8, addend: 0x0, symName: __ZN12_GLOBAL__N_123NumWordsIn_OneWord_TestC1Ev, symObjAddr: 0x3184, symBinAddr: 0x10000EF9C, symSize: 0x64 }
  - { offset: 0x1A073, size: 0x8, addend: 0x0, symName: __ZN12_GLOBAL__N_123NumWordsIn_OneWord_TestC2Ev, symObjAddr: 0x31E8, symBinAddr: 0x10000F000, symSize: 0xF8 }
  - { offset: 0x1A09B, size: 0x8, addend: 0x0, symName: __ZN12_GLOBAL__N_123NumWordsIn_OneWord_TestD1Ev, symObjAddr: 0x32E0, symBinAddr: 0x10000F0F8, symSize: 0x64 }
  - { offset: 0x1A0C3, size: 0x8, addend: 0x0, symName: __ZN12_GLOBAL__N_123NumWordsIn_OneWord_TestD0Ev, symObjAddr: 0x3344, symBinAddr: 0x10000F15C, symSize: 0x68 }
  - { offset: 0x1A0EB, size: 0x8, addend: 0x0, symName: __ZN12_GLOBAL__N_123NumWordsIn_OneWord_Test8TestBodyEv, symObjAddr: 0x33AC, symBinAddr: 0x10000F1C4, symSize: 0x59C }
  - { offset: 0x1A128, size: 0x8, addend: 0x0, symName: __ZN7testing4Test5SetupEv, symObjAddr: 0x3948, symBinAddr: 0x10000F760, symSize: 0x58 }
  - { offset: 0x1A14C, size: 0x8, addend: 0x0, symName: __ZN12_GLOBAL__N_123NumWordsIn_OneWord_TestD2Ev, symObjAddr: 0x39A0, symBinAddr: 0x10000F7B8, symSize: 0x64 }
  - { offset: 0x1A3AB, size: 0x8, addend: 0x0, symName: __ZNK7testing8internal29PredicateFormatterFromMatcherINS0_9EqMatcherIiEEEclIiEENS_15AssertionResultEPKcRKT_, symObjAddr: 0x3D8C, symBinAddr: 0x10000FBA4, symSize: 0xCC8 }
  - { offset: 0x1A433, size: 0x8, addend: 0x0, symName: __ZNK7testing15AssertionResultcvbEv, symObjAddr: 0x4A54, symBinAddr: 0x10001086C, symSize: 0xE8 }
  - { offset: 0x1A457, size: 0x8, addend: 0x0, symName: __ZNK7testing15AssertionResult15failure_messageEv, symObjAddr: 0x4B3C, symBinAddr: 0x100010954, symSize: 0x5C }
  - { offset: 0x1A47C, size: 0x8, addend: 0x0, symName: __ZN7testing7MessageD1Ev, symObjAddr: 0x4B98, symBinAddr: 0x1000109B0, symSize: 0x64 }
  - { offset: 0x1A4A7, size: 0x8, addend: 0x0, symName: __ZN7testing15AssertionResultD1Ev, symObjAddr: 0x4BFC, symBinAddr: 0x100010A14, symSize: 0x64 }
  - { offset: 0x1A4D1, size: 0x8, addend: 0x0, symName: __ZN7testing8internal29PredicateFormatterFromMatcherINS0_9EqMatcherIiEEEC1ES3_, symObjAddr: 0x4C60, symBinAddr: 0x100010A78, symSize: 0x74 }
  - { offset: 0x1A508, size: 0x8, addend: 0x0, symName: __ZN7testing8internal29PredicateFormatterFromMatcherINS0_9EqMatcherIiEEEC2ES3_, symObjAddr: 0x4CD4, symBinAddr: 0x100010AEC, symSize: 0x74 }
  - { offset: 0x1A53F, size: 0x8, addend: 0x0, symName: __ZN7testing8internal9EqMatcherIiEC1ERKi, symObjAddr: 0x4D48, symBinAddr: 0x100010B60, symSize: 0x6C }
  - { offset: 0x1A576, size: 0x8, addend: 0x0, symName: __ZN7testing8internal9EqMatcherIiEC2ERKi, symObjAddr: 0x4DB4, symBinAddr: 0x100010BCC, symSize: 0xD8 }
  - { offset: 0x1A5AD, size: 0x8, addend: 0x0, symName: __ZN7testing8internal14ComparisonBaseINS0_9EqMatcherIiEEiNSt3__18equal_toIvEEEC2ERKi, symObjAddr: 0x4E8C, symBinAddr: 0x100010CA4, symSize: 0x130 }
  - { offset: 0x1A5E4, size: 0x8, addend: 0x0, symName: __ZNK7testing8internal11MatcherBaseIRKiE7MatchesES3_, symObjAddr: 0x502C, symBinAddr: 0x100010E44, symSize: 0x350 }
  - { offset: 0x1A62A, size: 0x8, addend: 0x0, symName: __ZNSt3__118basic_stringstreamIcNS_11char_traitsIcEENS_9allocatorIcEEEC1B8ne190107Ev, symObjAddr: 0x537C, symBinAddr: 0x100011194, symSize: 0x38C }
  - { offset: 0x1A652, size: 0x8, addend: 0x0, symName: __ZNK7testing8internal11MatcherBaseIRKiE10DescribeToEPNSt3__113basic_ostreamIcNS5_11char_traitsIcEEEE, symObjAddr: 0x57C0, symBinAddr: 0x1000115D8, symSize: 0x59C }
  - { offset: 0x1A69F, size: 0x8, addend: 0x0, symName: __ZN7testing25StringMatchResultListenerC1Ev, symObjAddr: 0x5D5C, symBinAddr: 0x100011B74, symSize: 0x64 }
  - { offset: 0x1A6C7, size: 0x8, addend: 0x0, symName: __ZNK7testing25StringMatchResultListener3strEv, symObjAddr: 0x6B10, symBinAddr: 0x100012928, symSize: 0x198 }
  - { offset: 0x1A6EB, size: 0x8, addend: 0x0, symName: __ZN7testing15AssertionResultlsINSt3__112basic_stringIcNS2_11char_traitsIcEENS2_9allocatorIcEEEEEERS0_RKT_, symObjAddr: 0x6CA8, symBinAddr: 0x100012AC0, symSize: 0x350 }
  - { offset: 0x1A728, size: 0x8, addend: 0x0, symName: __ZNKRSt3__118basic_stringstreamIcNS_11char_traitsIcEENS_9allocatorIcEEE3strB8ne190107Ev, symObjAddr: 0x6FF8, symBinAddr: 0x100012E10, symSize: 0x198 }
  - { offset: 0x1A74D, size: 0x8, addend: 0x0, symName: __ZN7testing25StringMatchResultListenerD1Ev, symObjAddr: 0x7190, symBinAddr: 0x100012FA8, symSize: 0x64 }
  - { offset: 0x1A77E, size: 0x8, addend: 0x0, symName: __ZNSt3__118basic_stringstreamIcNS_11char_traitsIcEENS_9allocatorIcEEED1Ev, symObjAddr: 0x71F4, symBinAddr: 0x10001300C, symSize: 0x78 }
  - { offset: 0x1A7B9, size: 0x8, addend: 0x0, symName: __ZN7testing7MatcherIRKiED1Ev, symObjAddr: 0x726C, symBinAddr: 0x100013084, symSize: 0x64 }
  - { offset: 0x1A7E3, size: 0x8, addend: 0x0, symName: __ZN7testing8internal15MatcherCastImplIRKiNS0_9EqMatcherIiEEE4CastERKS5_, symObjAddr: 0x7348, symBinAddr: 0x100013160, symSize: 0x0 }
  - { offset: 0x1A806, size: 0x8, addend: 0x0, symName: __ZN7testing8internal15MatcherCastImplIRKiNS0_9EqMatcherIiEEE8CastImplILb0EEENS_7MatcherIS3_EERKS5_NSt3__117integral_constantIbLb1EEENSD_IbXT_EEE, symObjAddr: 0x73B8, symBinAddr: 0x1000131D0, symSize: 0x0 }
  - { offset: 0x1A849, size: 0x8, addend: 0x0, symName: __ZN7testing7MatcherIRKiEC1IRKNS_8internal9EqMatcherIiEEvEEOT_, symObjAddr: 0x7454, symBinAddr: 0x10001326C, symSize: 0x6C }
  - { offset: 0x1A88A, size: 0x8, addend: 0x0, symName: __ZN7testing7MatcherIRKiEC2IRKNS_8internal9EqMatcherIiEEvEEOT_, symObjAddr: 0x74C0, symBinAddr: 0x1000132D8, symSize: 0x138 }
  - { offset: 0x1A8CB, size: 0x8, addend: 0x0, symName: __ZN7testing8internal11MatcherBaseIRKiEC2IRKNS0_9EqMatcherIiEEvEEOT_, symObjAddr: 0x75F8, symBinAddr: 0x100013410, symSize: 0x214 }
  - { offset: 0x1A90D, size: 0x8, addend: 0x0, symName: __ZN7testing7MatcherIRKiED0Ev, symObjAddr: 0x780C, symBinAddr: 0x100013624, symSize: 0x68 }
  - { offset: 0x1A937, size: 0x8, addend: 0x0, symName: __ZNK7testing8internal11MatcherBaseIRKiE18DescribeNegationToEPNSt3__113basic_ostreamIcNS5_11char_traitsIcEEEE, symObjAddr: 0x7874, symBinAddr: 0x10001368C, symSize: 0x5A4 }
  - { offset: 0x1A96C, size: 0x8, addend: 0x0, symName: __ZN7testing25MatcherDescriberInterfaceC2Ev, symObjAddr: 0x7E18, symBinAddr: 0x100013C30, symSize: 0xB4 }
  - { offset: 0x1A996, size: 0x8, addend: 0x0, symName: __ZN7testing8internal11MatcherBaseIRKiE4InitIRKNS0_9EqMatcherIiEEEEvOT_, symObjAddr: 0x7ECC, symBinAddr: 0x100013CE4, symSize: 0x1DC }
  - { offset: 0x1A9D2, size: 0x8, addend: 0x0, symName: __ZN7testing25MatcherDescriberInterfaceD2Ev, symObjAddr: 0x80A8, symBinAddr: 0x100013EC0, symSize: 0x5C }
  - { offset: 0x1A9FA, size: 0x8, addend: 0x0, symName: __ZN7testing8internal11MatcherBaseIRKiED1Ev, symObjAddr: 0x8104, symBinAddr: 0x100013F1C, symSize: 0x64 }
  - { offset: 0x1AA22, size: 0x8, addend: 0x0, symName: __ZN7testing8internal11MatcherBaseIRKiED0Ev, symObjAddr: 0x8168, symBinAddr: 0x100013F80, symSize: 0x68 }
  - { offset: 0x1AA4A, size: 0x8, addend: 0x0, symName: __ZN7testing25MatcherDescriberInterfaceD1Ev, symObjAddr: 0x81D0, symBinAddr: 0x100013FE8, symSize: 0x54 }
  - { offset: 0x1AA72, size: 0x8, addend: 0x0, symName: __ZN7testing25MatcherDescriberInterfaceD0Ev, symObjAddr: 0x8224, symBinAddr: 0x10001403C, symSize: 0x50 }
  - { offset: 0x1AA9A, size: 0x8, addend: 0x0, symName: __ZNK7testing25MatcherDescriberInterface18DescribeNegationToEPNSt3__113basic_ostreamIcNS1_11char_traitsIcEEEE, symObjAddr: 0x8274, symBinAddr: 0x10001408C, symSize: 0x1E4 }
  - { offset: 0x1AACC, size: 0x8, addend: 0x0, symName: __ZN7testing8internal11MatcherBaseIRKiE11ValuePolicyINS0_9EqMatcherIiEELb1EE4InitERS4_S7_, symObjAddr: 0x84BC, symBinAddr: 0x1000142D4, symSize: 0x0 }
  - { offset: 0x1AAFE, size: 0x8, addend: 0x0, symName: __ZN7testing8internal11MatcherBaseIRKiE19MatchAndExplainImplINS4_11ValuePolicyINS0_9EqMatcherIiEELb1EEEEEDTcldtclsrT_3Getfp_E15MatchAndExplainfp0_clptfp1_6streamEEERKS4_S3_PNS_19MatchResultListenerE, symObjAddr: 0x8540, symBinAddr: 0x100014358, symSize: 0x0 }
  - { offset: 0x1AB48, size: 0x8, addend: 0x0, symName: __ZN7testing8internal11MatcherBaseIRKiE12DescribeImplINS4_11ValuePolicyINS0_9EqMatcherIiEELb1EEEEEvRKS4_PNSt3__113basic_ostreamIcNSC_11char_traitsIcEEEEb, symObjAddr: 0x8710, symBinAddr: 0x100014528, symSize: 0x0 }
  - { offset: 0x1AB92, size: 0x8, addend: 0x0, symName: __ZN7testing8internal11MatcherBaseIRKiE16GetDescriberImplINS4_11ValuePolicyINS0_9EqMatcherIiEELb1EEEEEPKNS_25MatcherDescriberInterfaceERKS4_, symObjAddr: 0x88C0, symBinAddr: 0x1000146D8, symSize: 0x0 }
  - { offset: 0x1ABBF, size: 0x8, addend: 0x0, symName: __ZN7testing8internal11MatcherBaseIRKiE11ValuePolicyINS0_9EqMatcherIiEELb1EE3GetERKS4_, symObjAddr: 0x8BE4, symBinAddr: 0x1000149FC, symSize: 0x0 }
  - { offset: 0x1ABF1, size: 0x8, addend: 0x0, symName: __ZNK7testing8internal14ComparisonBaseINS0_9EqMatcherIiEEiNSt3__18equal_toIvEEE15MatchAndExplainIiEEbRKT_PNS4_13basic_ostreamIcNS4_11char_traitsIcEEEE, symObjAddr: 0x8C48, symBinAddr: 0x100014A60, symSize: 0x2B0 }
  - { offset: 0x1AC3B, size: 0x8, addend: 0x0, symName: __ZN7testing19MatchResultListener6streamEv, symObjAddr: 0x8EF8, symBinAddr: 0x100014D10, symSize: 0x10C }
  - { offset: 0x1AC69, size: 0x8, addend: 0x0, symName: __ZNKSt3__18equal_toIvEclB8ne190107IRKiS4_EEDTeqclsr3stdE7forwardIT_Efp_Eclsr3stdE7forwardIT0_Efp0_EEOS5_OS6_, symObjAddr: 0x9004, symBinAddr: 0x100014E1C, symSize: 0x190 }
  - { offset: 0x1ACBD, size: 0x8, addend: 0x0, symName: __ZN7testing8internal14ComparisonBaseINS0_9EqMatcherIiEEiNSt3__18equal_toIvEEE6UnwrapIiEERKT_SB_, symObjAddr: 0x919C, symBinAddr: 0x100014FB4, symSize: 0x0 }
  - { offset: 0x1ACE9, size: 0x8, addend: 0x0, symName: __ZNK7testing8internal14ComparisonBaseINS0_9EqMatcherIiEEiNSt3__18equal_toIvEEE18DescribeNegationToEPNS4_13basic_ostreamIcNS4_11char_traitsIcEEEE, symObjAddr: 0x91F4, symBinAddr: 0x10001500C, symSize: 0x160 }
  - { offset: 0x1AD1C, size: 0x8, addend: 0x0, symName: __ZNK7testing8internal14ComparisonBaseINS0_9EqMatcherIiEEiNSt3__18equal_toIvEEE10DescribeToEPNS4_13basic_ostreamIcNS4_11char_traitsIcEEEE, symObjAddr: 0x9354, symBinAddr: 0x10001516C, symSize: 0x160 }
  - { offset: 0x1AD4F, size: 0x8, addend: 0x0, symName: __ZN7testing8internal9EqMatcherIiE11NegatedDescEv, symObjAddr: 0x94BC, symBinAddr: 0x1000152D4, symSize: 0x0 }
  - { offset: 0x1AD62, size: 0x8, addend: 0x0, symName: __ZN7testing8internal16UniversalPrinterIiE5PrintERKiPNSt3__113basic_ostreamIcNS5_11char_traitsIcEEEE, symObjAddr: 0x953C, symBinAddr: 0x100015354, symSize: 0x0 }
  - { offset: 0x1AD94, size: 0x8, addend: 0x0, symName: __ZN7testing8internal52internal_stream_operator_without_lexical_name_lookup13StreamPrinter10PrintValueIivEEDTcvvlsdefp0_fp_ERKT_PNSt3__113basic_ostreamIcNS8_11char_traitsIcEEEE, symObjAddr: 0x9680, symBinAddr: 0x100015498, symSize: 0x0 }
  - { offset: 0x1ADCE, size: 0x8, addend: 0x0, symName: __ZN7testing8internal9EqMatcherIiE4DescEv, symObjAddr: 0x97D4, symBinAddr: 0x1000155EC, symSize: 0x0 }
  - { offset: 0x1AE13, size: 0x8, addend: 0x0, symName: __ZNSt3__112__tuple_leafILm0EPKN7testing8internal11MatcherBaseIRKiEELb0EE3getB8ne190107Ev, symObjAddr: 0x9AD8, symBinAddr: 0x1000158F0, symSize: 0x8C }
  - { offset: 0x1AEA5, size: 0x8, addend: 0x0, symName: __ZNSt3__15tupleIJPKN7testing8internal11MatcherBaseIRKiEEPKNS2_9EqMatcherIiEEEEC1B8ne190107IJS8_SC_ETnNS_9enable_ifIXsr4_AndINS_17integral_constantIbXeqsZT_sZT_EEENSD_17_EnableUTypesCtorIJDpT_EEEEE5valueEiE4typeELi0EEEDpOSJ_, symObjAddr: 0x9B64, symBinAddr: 0x10001597C, symSize: 0x74 }
  - { offset: 0x1AF02, size: 0x8, addend: 0x0, symName: __ZNSt3__15tupleIJPKN7testing8internal11MatcherBaseIRKiEEPKNS2_9EqMatcherIiEEEEC2B8ne190107IJS8_SC_ETnNS_9enable_ifIXsr4_AndINS_17integral_constantIbXeqsZT_sZT_EEENSD_17_EnableUTypesCtorIJDpT_EEEEE5valueEiE4typeELi0EEEDpOSJ_, symObjAddr: 0x9BD8, symBinAddr: 0x1000159F0, symSize: 0xE4 }
  - { offset: 0x1AF5F, size: 0x8, addend: 0x0, symName: __ZNSt3__112__tuple_implINS_15__tuple_indicesIJLm0ELm1EEEEJPKN7testing8internal11MatcherBaseIRKiEEPKNS4_9EqMatcherIiEEEEC1B8ne190107IJLm0ELm1EEJSA_SE_ETpTnmJEJEJSA_SE_EEENS1_IJXspT_EEEENS_13__tuple_typesIJDpT0_EEENS1_IJXspT1_EEEENSI_IJDpT2_EEEDpOT3_, symObjAddr: 0x9CBC, symBinAddr: 0x100015AD4, symSize: 0x74 }
  - { offset: 0x1B014, size: 0x8, addend: 0x0, symName: __ZNSt3__112__tuple_implINS_15__tuple_indicesIJLm0ELm1EEEEJPKN7testing8internal11MatcherBaseIRKiEEPKNS4_9EqMatcherIiEEEEC2B8ne190107IJLm0ELm1EEJSA_SE_ETpTnmJEJEJSA_SE_EEENS1_IJXspT_EEEENS_13__tuple_typesIJDpT0_EEENS1_IJXspT1_EEEENSI_IJDpT2_EEEDpOT3_, symObjAddr: 0x9D30, symBinAddr: 0x100015B48, symSize: 0x168 }
  - { offset: 0x1B0C9, size: 0x8, addend: 0x0, symName: __ZNSt3__112__tuple_leafILm0EPKN7testing8internal11MatcherBaseIRKiEELb0EEC2B8ne190107IS8_TnNS_9enable_ifIXsr4_AndINS_17integral_constantIbXntu9__is_sameu14__remove_cvrefIT_ES9_EEEENS_16is_constructibleIS8_JSD_EEEEE5valueEiE4typeELi0EEEOSD_, symObjAddr: 0x9E98, symBinAddr: 0x100015CB0, symSize: 0x124 }
  - { offset: 0x1B10F, size: 0x8, addend: 0x0, symName: __ZNSt3__112__tuple_leafILm1EPKN7testing8internal9EqMatcherIiEELb0EEC2B8ne190107IS6_TnNS_9enable_ifIXsr4_AndINS_17integral_constantIbXntu9__is_sameu14__remove_cvrefIT_ES7_EEEENS_16is_constructibleIS6_JSB_EEEEE5valueEiE4typeELi0EEEOSB_, symObjAddr: 0x9FBC, symBinAddr: 0x100015DD4, symSize: 0x124 }
  - { offset: 0x1B155, size: 0x8, addend: 0x0, symName: __ZN7testing8internal11MatcherBaseIRKiED2Ev, symObjAddr: 0xA0E0, symBinAddr: 0x100015EF8, symSize: 0x140 }
  - { offset: 0x1B17D, size: 0x8, addend: 0x0, symName: __ZN7testing8internal11MatcherBaseIRKiE7DestroyEv, symObjAddr: 0xA220, symBinAddr: 0x100016038, symSize: 0x468 }
  - { offset: 0x1B1A1, size: 0x8, addend: 0x0, symName: __ZNK7testing8internal11MatcherBaseIRKiE8IsSharedEv, symObjAddr: 0xA688, symBinAddr: 0x1000164A0, symSize: 0x27C }
  - { offset: 0x1B1C5, size: 0x8, addend: 0x0, symName: __ZN7testing8internal17SharedPayloadBase5UnrefEv, symObjAddr: 0xA904, symBinAddr: 0x10001671C, symSize: 0xC4 }
  - { offset: 0x1B1E9, size: 0x8, addend: 0x0, symName: __ZNSt3__113__atomic_baseIiLb1EE9fetch_subB8ne190107EiNS_12memory_orderE, symObjAddr: 0xA9C8, symBinAddr: 0x1000167E0, symSize: 0xC4 }
  - { offset: 0x1B242, size: 0x8, addend: 0x0, symName: __ZN7testing8internal8GTestLog9GetStreamEv, symObjAddr: 0xAD78, symBinAddr: 0x100016B90, symSize: 0x5C }
  - { offset: 0x1B27A, size: 0x8, addend: 0x0, symName: __ZN7testing8internal24DummyMatchResultListenerC1Ev, symObjAddr: 0xADD4, symBinAddr: 0x100016BEC, symSize: 0x64 }
  - { offset: 0x1B2A2, size: 0x8, addend: 0x0, symName: __ZNK7testing8internal11MatcherBaseIRKiE15MatchAndExplainES3_PNS_19MatchResultListenerE, symObjAddr: 0xAE38, symBinAddr: 0x100016C50, symSize: 0x5D4 }
  - { offset: 0x1B2E6, size: 0x8, addend: 0x0, symName: __ZN7testing8internal24DummyMatchResultListenerD1Ev, symObjAddr: 0xB40C, symBinAddr: 0x100017224, symSize: 0x64 }
  - { offset: 0x1B310, size: 0x8, addend: 0x0, symName: __ZN7testing8internal24DummyMatchResultListenerC2Ev, symObjAddr: 0xB470, symBinAddr: 0x100017288, symSize: 0xFC }
  - { offset: 0x1B338, size: 0x8, addend: 0x0, symName: __ZN7testing19MatchResultListenerC2EPNSt3__113basic_ostreamIcNS1_11char_traitsIcEEEE, symObjAddr: 0xB56C, symBinAddr: 0x100017384, symSize: 0xF4 }
  - { offset: 0x1B36F, size: 0x8, addend: 0x0, symName: __ZN7testing8internal24DummyMatchResultListenerD0Ev, symObjAddr: 0xB660, symBinAddr: 0x100017478, symSize: 0x68 }
  - { offset: 0x1B39A, size: 0x8, addend: 0x0, symName: __ZN7testing8internal24DummyMatchResultListenerD2Ev, symObjAddr: 0xB6C8, symBinAddr: 0x1000174E0, symSize: 0x64 }
  - { offset: 0x1B3C5, size: 0x8, addend: 0x0, symName: __ZN7testing19MatchResultListenerD2Ev, symObjAddr: 0xB72C, symBinAddr: 0x100017544, symSize: 0x5C }
  - { offset: 0x1B3EE, size: 0x8, addend: 0x0, symName: __ZNSt3__19basic_iosIcNS_11char_traitsIcEEEC2B8ne190107Ev, symObjAddr: 0xB788, symBinAddr: 0x1000175A0, symSize: 0xF8 }
  - { offset: 0x1B416, size: 0x8, addend: 0x0, symName: __ZNSt3__114basic_iostreamIcNS_11char_traitsIcEEEC2B8ne190107EPNS_15basic_streambufIcS2_EE, symObjAddr: 0xB880, symBinAddr: 0x100017698, symSize: 0x2F4 }
  - { offset: 0x1B459, size: 0x8, addend: 0x0, symName: __ZNSt3__115basic_stringbufIcNS_11char_traitsIcEENS_9allocatorIcEEEC1B8ne190107Ej, symObjAddr: 0xBB74, symBinAddr: 0x10001798C, symSize: 0x6C }
  - { offset: 0x1B490, size: 0x8, addend: 0x0, symName: __ZNSt3__18ios_baseC2B8ne190107Ev, symObjAddr: 0xBBE0, symBinAddr: 0x1000179F8, symSize: 0xE4 }
  - { offset: 0x1B4B8, size: 0x8, addend: 0x0, symName: __ZNSt3__113basic_istreamIcNS_11char_traitsIcEEEC2B8ne190107EPNS_15basic_streambufIcS2_EE, symObjAddr: 0xBCC4, symBinAddr: 0x100017ADC, symSize: 0x344 }
  - { offset: 0x1B4FA, size: 0x8, addend: 0x0, symName: __ZNSt3__113basic_ostreamIcNS_11char_traitsIcEEEC2B8ne190107Ev, symObjAddr: 0xC008, symBinAddr: 0x100017E20, symSize: 0x19C }
  - { offset: 0x1B52E, size: 0x8, addend: 0x0, symName: __ZNSt3__19basic_iosIcNS_11char_traitsIcEEE4initB8ne190107EPNS_15basic_streambufIcS2_EE, symObjAddr: 0xC1A4, symBinAddr: 0x100017FBC, symSize: 0x234 }
  - { offset: 0x1B563, size: 0x8, addend: 0x0, symName: __ZNSt3__118_SentinelValueFillINS_11char_traitsIcEEE6__initB8ne190107Ev, symObjAddr: 0xC3D8, symBinAddr: 0x1000181F0, symSize: 0x100 }
  - { offset: 0x1B587, size: 0x8, addend: 0x0, symName: __ZNSt3__115basic_stringbufIcNS_11char_traitsIcEENS_9allocatorIcEEEC2B8ne190107Ej, symObjAddr: 0xC4E8, symBinAddr: 0x100018300, symSize: 0x198 }
  - { offset: 0x1B5E1, size: 0x8, addend: 0x0, symName: __ZN7testing25StringMatchResultListenerC2Ev, symObjAddr: 0x10254, symBinAddr: 0x100019C48, symSize: 0x22C }
  - { offset: 0x1B60A, size: 0x8, addend: 0x0, symName: __ZN7testing25StringMatchResultListenerD0Ev, symObjAddr: 0x10480, symBinAddr: 0x100019E74, symSize: 0x68 }
  - { offset: 0x1B635, size: 0x8, addend: 0x0, symName: __ZNK7testing19MatchResultListener12IsInterestedEv, symObjAddr: 0x104E8, symBinAddr: 0x100019EDC, symSize: 0x114 }
  - { offset: 0x1B686, size: 0x8, addend: 0x0, symName: __ZNKSt9type_info4nameB8ne190107Ev, symObjAddr: 0x10CB4, symBinAddr: 0x10001A6A8, symSize: 0x118 }
  - { offset: 0x1B6CA, size: 0x8, addend: 0x0, symName: __ZNKSt3__112basic_stringIcNS_11char_traitsIcEENS_9allocatorIcEEE4findB8ne190107EPKcm, symObjAddr: 0x1101C, symBinAddr: 0x10001AA10, symSize: 0xA8 }
  - { offset: 0x1B70C, size: 0x8, addend: 0x0, symName: __ZNKSt3__112basic_stringIcNS_11char_traitsIcEENS_9allocatorIcEEE4dataB8ne190107Ev, symObjAddr: 0x11454, symBinAddr: 0x10001AE48, symSize: 0x60 }
  - { offset: 0x1B730, size: 0x8, addend: 0x0, symName: __ZNSt3__111char_traitsIcE4findB8ne190107EPKcmRS2_, symObjAddr: 0x11908, symBinAddr: 0x10001B2FC, symSize: 0x0 }
  - { offset: 0x1B76E, size: 0x8, addend: 0x0, symName: __ZNSt3__111char_traitsIcE7compareB8ne190107EPKcS3_m, symObjAddr: 0x119E8, symBinAddr: 0x10001B3DC, symSize: 0x0 }
  - { offset: 0x1B7AC, size: 0x8, addend: 0x0, symName: __ZNKSt3__112basic_stringIcNS_11char_traitsIcEENS_9allocatorIcEEE13__get_pointerB8ne190107Ev, symObjAddr: 0x11A8C, symBinAddr: 0x10001B480, symSize: 0x88 }
  - { offset: 0x1B7D0, size: 0x8, addend: 0x0, symName: __ZNKSt3__112basic_stringIcNS_11char_traitsIcEENS_9allocatorIcEEE18__get_long_pointerB8ne190107Ev, symObjAddr: 0x11B14, symBinAddr: 0x10001B508, symSize: 0x184 }
  - { offset: 0x1B7F4, size: 0x8, addend: 0x0, symName: __ZNKSt3__112basic_stringIcNS_11char_traitsIcEENS_9allocatorIcEEE19__get_short_pointerB8ne190107Ev, symObjAddr: 0x11C98, symBinAddr: 0x10001B68C, symSize: 0x140 }
  - { offset: 0x1B818, size: 0x8, addend: 0x0, symName: __ZNSt3__114pointer_traitsIPKcE10pointer_toB8ne190107ERS1_, symObjAddr: 0x11DE0, symBinAddr: 0x10001B7D4, symSize: 0x0 }
  - { offset: 0x1B83A, size: 0x8, addend: 0x0, symName: __ZNKSt3__112basic_stringIcNS_11char_traitsIcEENS_9allocatorIcEEE6lengthB8ne190107Ev, symObjAddr: 0x11DF4, symBinAddr: 0x10001B7E8, symSize: 0x5C }
  - { offset: 0x1B85E, size: 0x8, addend: 0x0, symName: __ZNKSt3__112basic_stringIcNS_11char_traitsIcEENS_9allocatorIcEEE13find_first_ofB8ne190107EPKcm, symObjAddr: 0x11E50, symBinAddr: 0x10001B844, symSize: 0xA8 }
  - { offset: 0x1B8A0, size: 0x8, addend: 0x0, symName: __ZNSt3__111char_traitsIcE2eqEcc, symObjAddr: 0x125B8, symBinAddr: 0x10001BFAC, symSize: 0x0 }
  - { offset: 0x1B8D0, size: 0x8, addend: 0x0, symName: __ZNKSt3__112basic_stringIcNS_11char_traitsIcEENS_9allocatorIcEEE5emptyB8ne190107Ev, symObjAddr: 0x125DC, symBinAddr: 0x10001BFD0, symSize: 0x64 }
  - { offset: 0x1B8F4, size: 0x8, addend: 0x0, symName: __ZN7testing15AssertionResult13AppendMessageERKNS_7MessageE, symObjAddr: 0x12640, symBinAddr: 0x10001C034, symSize: 0x484 }
  - { offset: 0x1B928, size: 0x8, addend: 0x0, symName: __ZN7testing7MessagelsINSt3__112basic_stringIcNS2_11char_traitsIcEENS2_9allocatorIcEEEEEERS0_RKT_, symObjAddr: 0x12AC4, symBinAddr: 0x10001C4B8, symSize: 0x178 }
  - { offset: 0x1B96A, size: 0x8, addend: 0x0, symName: __ZNSt3__110unique_ptrINS_12basic_stringIcNS_11char_traitsIcEENS_9allocatorIcEEEENS_14default_deleteIS6_EEEaSB8ne190107EOS9_, symObjAddr: 0x12D44, symBinAddr: 0x10001C738, symSize: 0x138 }
  - { offset: 0x1B99C, size: 0x8, addend: 0x0, symName: __ZNSt3__110unique_ptrINS_12basic_stringIcNS_11char_traitsIcEENS_9allocatorIcEEEENS_14default_deleteIS6_EEED1B8ne190107Ev, symObjAddr: 0x12E7C, symBinAddr: 0x10001C870, symSize: 0x64 }
  - { offset: 0x1B9C4, size: 0x8, addend: 0x0, symName: __ZNKSt3__110unique_ptrINS_12basic_stringIcNS_11char_traitsIcEENS_9allocatorIcEEEENS_14default_deleteIS6_EEEptB8ne190107Ev, symObjAddr: 0x12EE0, symBinAddr: 0x10001C8D4, symSize: 0x10C }
  - { offset: 0x1B9E8, size: 0x8, addend: 0x0, symName: __ZNKSt3__112basic_stringIcNS_11char_traitsIcEENS_9allocatorIcEEE5c_strB8ne190107Ev, symObjAddr: 0x12FEC, symBinAddr: 0x10001C9E0, symSize: 0x5C }
  - { offset: 0x1BA0C, size: 0x8, addend: 0x0, symName: __ZNKSt3__110unique_ptrINS_12basic_stringIcNS_11char_traitsIcEENS_9allocatorIcEEEENS_14default_deleteIS6_EEEcvbB8ne190107Ev, symObjAddr: 0x13048, symBinAddr: 0x10001CA3C, symSize: 0x114 }
  - { offset: 0x1BA30, size: 0x8, addend: 0x0, symName: __ZNKSt3__117__compressed_pairIPNS_12basic_stringIcNS_11char_traitsIcEENS_9allocatorIcEEEENS_14default_deleteIS6_EEE5firstB8ne190107Ev, symObjAddr: 0x1315C, symBinAddr: 0x10001CB50, symSize: 0xEC }
  - { offset: 0x1BA54, size: 0x8, addend: 0x0, symName: __ZNKSt3__122__compressed_pair_elemIPNS_12basic_stringIcNS_11char_traitsIcEENS_9allocatorIcEEEELi0ELb0EE5__getB8ne190107Ev, symObjAddr: 0x13248, symBinAddr: 0x10001CC3C, symSize: 0x8C }
  - { offset: 0x1BA78, size: 0x8, addend: 0x0, symName: __ZNSt3__110unique_ptrINS_12basic_stringIcNS_11char_traitsIcEENS_9allocatorIcEEEENS_14default_deleteIS6_EEEC1B8ne190107ILb1EvEEPS6_, symObjAddr: 0x132D4, symBinAddr: 0x10001CCC8, symSize: 0x6C }
  - { offset: 0x1BAB9, size: 0x8, addend: 0x0, symName: __ZNSt3__110unique_ptrINS_12basic_stringIcNS_11char_traitsIcEENS_9allocatorIcEEEENS_14default_deleteIS6_EEEC2B8ne190107ILb1EvEEPS6_, symObjAddr: 0x13340, symBinAddr: 0x10001CD34, symSize: 0x250 }
  - { offset: 0x1BAFF, size: 0x8, addend: 0x0, symName: __ZNSt3__117__compressed_pairIPNS_12basic_stringIcNS_11char_traitsIcEENS_9allocatorIcEEEENS_14default_deleteIS6_EEEC1B8ne190107IRS7_NS_16__value_init_tagEEEOT_OT0_, symObjAddr: 0x13590, symBinAddr: 0x10001CF84, symSize: 0x74 }
  - { offset: 0x1BB55, size: 0x8, addend: 0x0, symName: __ZNSt3__117__compressed_pairIPNS_12basic_stringIcNS_11char_traitsIcEENS_9allocatorIcEEEENS_14default_deleteIS6_EEEC2B8ne190107IRS7_NS_16__value_init_tagEEEOT_OT0_, symObjAddr: 0x13604, symBinAddr: 0x10001CFF8, symSize: 0x104 }
  - { offset: 0x1BBAB, size: 0x8, addend: 0x0, symName: __ZNSt3__122__compressed_pair_elemIPNS_12basic_stringIcNS_11char_traitsIcEENS_9allocatorIcEEEELi0ELb0EEC2B8ne190107IRS7_TnNS_9enable_ifIXntsr7is_sameIS8_u7__decayIT_EEE5valueEiE4typeELi0EEEOSC_, symObjAddr: 0x13708, symBinAddr: 0x10001D0FC, symSize: 0x124 }
  - { offset: 0x1BBF0, size: 0x8, addend: 0x0, symName: __ZNSt3__122__compressed_pair_elemINS_14default_deleteINS_12basic_stringIcNS_11char_traitsIcEENS_9allocatorIcEEEEEELi1ELb1EEC2B8ne190107ENS_16__value_init_tagE, symObjAddr: 0x1382C, symBinAddr: 0x10001D220, symSize: 0x48 }
  - { offset: 0x1BC22, size: 0x8, addend: 0x0, symName: __ZNSt3__110unique_ptrINS_12basic_stringIcNS_11char_traitsIcEENS_9allocatorIcEEEENS_14default_deleteIS6_EEE5resetB8ne190107EPS6_, symObjAddr: 0x13874, symBinAddr: 0x10001D268, symSize: 0x240 }
  - { offset: 0x1BC64, size: 0x8, addend: 0x0, symName: __ZNSt3__110unique_ptrINS_12basic_stringIcNS_11char_traitsIcEENS_9allocatorIcEEEENS_14default_deleteIS6_EEE7releaseB8ne190107Ev, symObjAddr: 0x13AB4, symBinAddr: 0x10001D4A8, symSize: 0x1BC }
  - { offset: 0x1BC97, size: 0x8, addend: 0x0, symName: __ZNSt3__110unique_ptrINS_12basic_stringIcNS_11char_traitsIcEENS_9allocatorIcEEEENS_14default_deleteIS6_EEE11get_deleterB8ne190107Ev, symObjAddr: 0x13C70, symBinAddr: 0x10001D664, symSize: 0xB4 }
  - { offset: 0x1BCBB, size: 0x8, addend: 0x0, symName: __ZNSt3__117__compressed_pairIPNS_12basic_stringIcNS_11char_traitsIcEENS_9allocatorIcEEEENS_14default_deleteIS6_EEE6secondB8ne190107Ev, symObjAddr: 0x13D24, symBinAddr: 0x10001D718, symSize: 0xC4 }
  - { offset: 0x1BCDF, size: 0x8, addend: 0x0, symName: __ZNSt3__117__compressed_pairIPNS_12basic_stringIcNS_11char_traitsIcEENS_9allocatorIcEEEENS_14default_deleteIS6_EEE5firstB8ne190107Ev, symObjAddr: 0x13DE8, symBinAddr: 0x10001D7DC, symSize: 0xEC }
  - { offset: 0x1BD03, size: 0x8, addend: 0x0, symName: __ZNKSt3__114default_deleteINS_12basic_stringIcNS_11char_traitsIcEENS_9allocatorIcEEEEEclB8ne190107EPS6_, symObjAddr: 0x13ED4, symBinAddr: 0x10001D8C8, symSize: 0xA0 }
  - { offset: 0x1BD35, size: 0x8, addend: 0x0, symName: __ZNSt3__122__compressed_pair_elemIPNS_12basic_stringIcNS_11char_traitsIcEENS_9allocatorIcEEEELi0ELb0EE5__getB8ne190107Ev, symObjAddr: 0x13F74, symBinAddr: 0x10001D968, symSize: 0x8C }
  - { offset: 0x1BD59, size: 0x8, addend: 0x0, symName: __ZNSt3__122__compressed_pair_elemINS_14default_deleteINS_12basic_stringIcNS_11char_traitsIcEENS_9allocatorIcEEEEEELi1ELb1EE5__getB8ne190107Ev, symObjAddr: 0x14000, symBinAddr: 0x10001D9F4, symSize: 0x64 }
  - { offset: 0x1BD7D, size: 0x8, addend: 0x0, symName: __ZNSt3__110unique_ptrINS_12basic_stringIcNS_11char_traitsIcEENS_9allocatorIcEEEENS_14default_deleteIS6_EEED2B8ne190107Ev, symObjAddr: 0x14064, symBinAddr: 0x10001DA58, symSize: 0x68 }
  - { offset: 0x1BDA5, size: 0x8, addend: 0x0, symName: __ZNKSt3__110unique_ptrINS_18basic_stringstreamIcNS_11char_traitsIcEENS_9allocatorIcEEEENS_14default_deleteIS6_EEEdeB8ne190107Ev, symObjAddr: 0x140CC, symBinAddr: 0x10001DAC0, symSize: 0x144 }
  - { offset: 0x1BDC9, size: 0x8, addend: 0x0, symName: __ZNKSt3__117__compressed_pairIPNS_18basic_stringstreamIcNS_11char_traitsIcEENS_9allocatorIcEEEENS_14default_deleteIS6_EEE5firstB8ne190107Ev, symObjAddr: 0x14210, symBinAddr: 0x10001DC04, symSize: 0xEC }
  - { offset: 0x1BDED, size: 0x8, addend: 0x0, symName: __ZNKSt3__122__compressed_pair_elemIPNS_18basic_stringstreamIcNS_11char_traitsIcEENS_9allocatorIcEEEELi0ELb0EE5__getB8ne190107Ev, symObjAddr: 0x142FC, symBinAddr: 0x10001DCF0, symSize: 0x8C }
  - { offset: 0x1BE11, size: 0x8, addend: 0x0, symName: __ZNKRSt3__115basic_stringbufIcNS_11char_traitsIcEENS_9allocatorIcEEE3strB8ne190107Ev, symObjAddr: 0x14388, symBinAddr: 0x10001DD7C, symSize: 0x324 }
  - { offset: 0x1BE36, size: 0x8, addend: 0x0, symName: __ZNKSt3__115basic_stringbufIcNS_11char_traitsIcEENS_9allocatorIcEEE3strB8ne190107IS4_Qsr14__is_allocatorITL0__EE5valueEENS_12basic_stringIcS2_T_EERKS9_, symObjAddr: 0x146AC, symBinAddr: 0x10001E0A0, symSize: 0x2E0 }
  - { offset: 0x1BE74, size: 0x8, addend: 0x0, symName: __ZNKSt3__112basic_stringIcNS_11char_traitsIcEENS_9allocatorIcEEE13get_allocatorB8ne190107Ev, symObjAddr: 0x1498C, symBinAddr: 0x10001E380, symSize: 0x5C }
  - { offset: 0x1BE98, size: 0x8, addend: 0x0, symName: __ZNKSt3__115basic_stringbufIcNS_11char_traitsIcEENS_9allocatorIcEEE4viewB8ne190107Ev, symObjAddr: 0x149E8, symBinAddr: 0x10001E3DC, symSize: 0x84C }
  - { offset: 0x1BEBF, size: 0x8, addend: 0x0, symName: __ZNSt3__112basic_stringIcNS_11char_traitsIcEENS_9allocatorIcEEEC1INS_17basic_string_viewIcS2_EETnNS_9enable_ifIXaasr33__can_be_converted_to_string_viewIcS2_T_EE5valuentsr17__is_same_uncvrefISA_S5_EE5valueEiE4typeELi0EEERKSA_RKS4_, symObjAddr: 0x15234, symBinAddr: 0x10001EC28, symSize: 0x74 }
  - { offset: 0x1BF14, size: 0x8, addend: 0x0, symName: __ZNKSt3__115basic_streambufIcNS_11char_traitsIcEEE4pptrB8ne190107Ev, symObjAddr: 0x152A8, symBinAddr: 0x10001EC9C, symSize: 0x10C }
  - { offset: 0x1BF38, size: 0x8, addend: 0x0, symName: __ZNKSt3__115basic_streambufIcNS_11char_traitsIcEEE5pbaseB8ne190107Ev, symObjAddr: 0x153B4, symBinAddr: 0x10001EDA8, symSize: 0x10C }
  - { offset: 0x1BF61, size: 0x8, addend: 0x0, symName: __ZNSt3__117basic_string_viewIcNS_11char_traitsIcEEEC1B8ne190107ITkNS_19contiguous_iteratorEPcTkNS_18sized_sentinel_forITL0__EES5_Qaa9is_same_vINS_11conditionalIXsr21__is_primary_templateINS_15iterator_traitsIu14__remove_cvrefIS7_EEEEE5valueENS_26indirectly_readable_traitsISA_EESB_E4type10value_typeET_Ent16is_convertible_vITL0_0_mEEESH_T0_, symObjAddr: 0x154C0, symBinAddr: 0x10001EEB4, symSize: 0x74 }
  - { offset: 0x1BFB9, size: 0x8, addend: 0x0, symName: __ZNKSt3__115basic_streambufIcNS_11char_traitsIcEEE5ebackB8ne190107Ev, symObjAddr: 0x15534, symBinAddr: 0x10001EF28, symSize: 0x10C }
  - { offset: 0x1BFDD, size: 0x8, addend: 0x0, symName: __ZNKSt3__115basic_streambufIcNS_11char_traitsIcEEE5egptrB8ne190107Ev, symObjAddr: 0x15640, symBinAddr: 0x10001F034, symSize: 0x10C }
  - { offset: 0x1C001, size: 0x8, addend: 0x0, symName: __ZNSt3__117basic_string_viewIcNS_11char_traitsIcEEEC1B8ne190107Ev, symObjAddr: 0x1574C, symBinAddr: 0x10001F140, symSize: 0x64 }
  - { offset: 0x1C029, size: 0x8, addend: 0x0, symName: __ZNSt3__117basic_string_viewIcNS_11char_traitsIcEEEC2B8ne190107ITkNS_19contiguous_iteratorEPcTkNS_18sized_sentinel_forITL0__EES5_Qaa9is_same_vINS_11conditionalIXsr21__is_primary_templateINS_15iterator_traitsIu14__remove_cvrefIS7_EEEEE5valueENS_26indirectly_readable_traitsISA_EESB_E4type10value_typeET_Ent16is_convertible_vITL0_0_mEEESH_T0_, symObjAddr: 0x157B0, symBinAddr: 0x10001F1A4, symSize: 0x104 }
  - { offset: 0x1C081, size: 0x8, addend: 0x0, symName: __ZNSt3__117basic_string_viewIcNS_11char_traitsIcEEEC2B8ne190107Ev, symObjAddr: 0x158E0, symBinAddr: 0x10001F2D4, symSize: 0xD8 }
  - { offset: 0x1C0A9, size: 0x8, addend: 0x0, symName: __ZNSt3__112basic_stringIcNS_11char_traitsIcEENS_9allocatorIcEEEC2INS_17basic_string_viewIcS2_EETnNS_9enable_ifIXaasr33__can_be_converted_to_string_viewIcS2_T_EE5valuentsr17__is_same_uncvrefISA_S5_EE5valueEiE4typeELi0EEERKSA_RKS4_, symObjAddr: 0x159B8, symBinAddr: 0x10001F3AC, symSize: 0x2A8 }
  - { offset: 0x1C122, size: 0x8, addend: 0x0, symName: __ZNSt3__117__compressed_pairINS_12basic_stringIcNS_11char_traitsIcEENS_9allocatorIcEEE5__repES5_EC1B8ne190107INS_18__default_init_tagERKS5_EEOT_OT0_, symObjAddr: 0x15C60, symBinAddr: 0x10001F654, symSize: 0x74 }
  - { offset: 0x1C178, size: 0x8, addend: 0x0, symName: __ZNKSt3__117basic_string_viewIcNS_11char_traitsIcEEE4dataB8ne190107Ev, symObjAddr: 0x15CD4, symBinAddr: 0x10001F6C8, symSize: 0x9C }
  - { offset: 0x1C19C, size: 0x8, addend: 0x0, symName: __ZNKSt3__117basic_string_viewIcNS_11char_traitsIcEEE4sizeB8ne190107Ev, symObjAddr: 0x15D70, symBinAddr: 0x10001F764, symSize: 0xA0 }
  - { offset: 0x1C1C0, size: 0x8, addend: 0x0, symName: __ZNSt3__117__compressed_pairINS_12basic_stringIcNS_11char_traitsIcEENS_9allocatorIcEEE5__repES5_EC2B8ne190107INS_18__default_init_tagERKS5_EEOT_OT0_, symObjAddr: 0x15E10, symBinAddr: 0x10001F804, symSize: 0xF0 }
  - { offset: 0x1C216, size: 0x8, addend: 0x0, symName: __ZNSt3__122__compressed_pair_elemINS_9allocatorIcEELi1ELb1EEC2B8ne190107IRKS2_TnNS_9enable_ifIXntsr7is_sameIS3_u7__decayIT_EEE5valueEiE4typeELi0EEEOS8_, symObjAddr: 0x15F00, symBinAddr: 0x10001F8F4, symSize: 0x4C }
  - { offset: 0x1C25C, size: 0x8, addend: 0x0, symName: __ZN7testing25StringMatchResultListenerD2Ev, symObjAddr: 0x16128, symBinAddr: 0x10001F940, symSize: 0xC4 }
  - { offset: 0x1C288, size: 0x8, addend: 0x0, symName: __ZNSt3__118basic_stringstreamIcNS_11char_traitsIcEENS_9allocatorIcEEED2Ev, symObjAddr: 0x161EC, symBinAddr: 0x10001FA04, symSize: 0x224 }
  - { offset: 0x1C2C0, size: 0x8, addend: 0x0, symName: __ZThn16_NSt3__118basic_stringstreamIcNS_11char_traitsIcEENS_9allocatorIcEEED1Ev, symObjAddr: 0x16410, symBinAddr: 0x10001FC28, symSize: 0x1C }
  - { offset: 0x1C2D7, size: 0x8, addend: 0x0, symName: __ZTv0_n24_NSt3__118basic_stringstreamIcNS_11char_traitsIcEENS_9allocatorIcEEED1Ev, symObjAddr: 0x1642C, symBinAddr: 0x10001FC44, symSize: 0xA0 }
  - { offset: 0x1C2F3, size: 0x8, addend: 0x0, symName: __ZNSt3__115basic_stringbufIcNS_11char_traitsIcEENS_9allocatorIcEEED1Ev, symObjAddr: 0x164CC, symBinAddr: 0x10001FCE4, symSize: 0x64 }
  - { offset: 0x1C31F, size: 0x8, addend: 0x0, symName: __ZNSt3__115basic_stringbufIcNS_11char_traitsIcEENS_9allocatorIcEEED2Ev, symObjAddr: 0x16530, symBinAddr: 0x10001FD48, symSize: 0xC4 }
  - { offset: 0x1C34B, size: 0x8, addend: 0x0, symName: __ZN7testing7MatcherIRKiED2Ev, symObjAddr: 0x165F4, symBinAddr: 0x10001FE0C, symSize: 0x64 }
  - { offset: 0x1C375, size: 0x8, addend: 0x0, symName: __ZNK7testing15AssertionResult7messageEv, symObjAddr: 0x16658, symBinAddr: 0x10001FE70, symSize: 0x150 }
  - { offset: 0x1C39A, size: 0x8, addend: 0x0, symName: __ZN7testing7MessageD2Ev, symObjAddr: 0x167A8, symBinAddr: 0x10001FFC0, symSize: 0x64 }
  - { offset: 0x1C3C4, size: 0x8, addend: 0x0, symName: __ZNSt3__110unique_ptrINS_18basic_stringstreamIcNS_11char_traitsIcEENS_9allocatorIcEEEENS_14default_deleteIS6_EEED1B8ne190107Ev, symObjAddr: 0x1680C, symBinAddr: 0x100020024, symSize: 0x64 }
  - { offset: 0x1C3EC, size: 0x8, addend: 0x0, symName: __ZNSt3__110unique_ptrINS_18basic_stringstreamIcNS_11char_traitsIcEENS_9allocatorIcEEEENS_14default_deleteIS6_EEED2B8ne190107Ev, symObjAddr: 0x16870, symBinAddr: 0x100020088, symSize: 0x68 }
  - { offset: 0x1C414, size: 0x8, addend: 0x0, symName: __ZNSt3__110unique_ptrINS_18basic_stringstreamIcNS_11char_traitsIcEENS_9allocatorIcEEEENS_14default_deleteIS6_EEE5resetB8ne190107EPS6_, symObjAddr: 0x168D8, symBinAddr: 0x1000200F0, symSize: 0x240 }
  - { offset: 0x1C456, size: 0x8, addend: 0x0, symName: __ZNSt3__117__compressed_pairIPNS_18basic_stringstreamIcNS_11char_traitsIcEENS_9allocatorIcEEEENS_14default_deleteIS6_EEE5firstB8ne190107Ev, symObjAddr: 0x16B18, symBinAddr: 0x100020330, symSize: 0xEC }
  - { offset: 0x1C47A, size: 0x8, addend: 0x0, symName: __ZNSt3__117__compressed_pairIPNS_18basic_stringstreamIcNS_11char_traitsIcEENS_9allocatorIcEEEENS_14default_deleteIS6_EEE6secondB8ne190107Ev, symObjAddr: 0x16C04, symBinAddr: 0x10002041C, symSize: 0xC4 }
  - { offset: 0x1C49E, size: 0x8, addend: 0x0, symName: __ZNKSt3__114default_deleteINS_18basic_stringstreamIcNS_11char_traitsIcEENS_9allocatorIcEEEEEclB8ne190107EPS6_, symObjAddr: 0x16CC8, symBinAddr: 0x1000204E0, symSize: 0x18C }
  - { offset: 0x1C4D0, size: 0x8, addend: 0x0, symName: __ZNSt3__122__compressed_pair_elemIPNS_18basic_stringstreamIcNS_11char_traitsIcEENS_9allocatorIcEEEELi0ELb0EE5__getB8ne190107Ev, symObjAddr: 0x16E54, symBinAddr: 0x10002066C, symSize: 0x8C }
  - { offset: 0x1C4F4, size: 0x8, addend: 0x0, symName: __ZNSt3__122__compressed_pair_elemINS_14default_deleteINS_18basic_stringstreamIcNS_11char_traitsIcEENS_9allocatorIcEEEEEELi1ELb1EE5__getB8ne190107Ev, symObjAddr: 0x16EE0, symBinAddr: 0x1000206F8, symSize: 0x64 }
  - { offset: 0x1C519, size: 0x8, addend: 0x0, symName: __ZN7testing15AssertionResultD2Ev, symObjAddr: 0x16F44, symBinAddr: 0x10002075C, symSize: 0x68 }
  - { offset: 0x1C544, size: 0x8, addend: 0x0, symName: __ZN7testing8internal12CodeLocationD2Ev, symObjAddr: 0x16FAC, symBinAddr: 0x1000207C4, symSize: 0x64 }
  - { offset: 0x1C570, size: 0x8, addend: 0x0, symName: __ZN7testing8internal15TestFactoryImplIN12_GLOBAL__N_129NumWordsIn_MultipleWords_TestEEC2Ev, symObjAddr: 0x17010, symBinAddr: 0x100020828, symSize: 0xF8 }
  - { offset: 0x1C59C, size: 0x8, addend: 0x0, symName: __ZN7testing8internal15TestFactoryImplIN12_GLOBAL__N_129NumWordsIn_MultipleWords_TestEED1Ev, symObjAddr: 0x17108, symBinAddr: 0x100020920, symSize: 0x64 }
  - { offset: 0x1C5C8, size: 0x8, addend: 0x0, symName: __ZN7testing8internal15TestFactoryImplIN12_GLOBAL__N_129NumWordsIn_MultipleWords_TestEED0Ev, symObjAddr: 0x1716C, symBinAddr: 0x100020984, symSize: 0x68 }
  - { offset: 0x1C5F3, size: 0x8, addend: 0x0, symName: __ZN7testing8internal15TestFactoryImplIN12_GLOBAL__N_129NumWordsIn_MultipleWords_TestEE10CreateTestEv, symObjAddr: 0x171D4, symBinAddr: 0x1000209EC, symSize: 0xFC }
  - { offset: 0x1C618, size: 0x8, addend: 0x0, symName: __ZN7testing8internal15TestFactoryImplIN12_GLOBAL__N_129NumWordsIn_MultipleWords_TestEED2Ev, symObjAddr: 0x172D0, symBinAddr: 0x100020AE8, symSize: 0x64 }
  - { offset: 0x1C643, size: 0x8, addend: 0x0, symName: __ZN12_GLOBAL__N_129NumWordsIn_MultipleWords_TestC1Ev, symObjAddr: 0x17334, symBinAddr: 0x100020B4C, symSize: 0x64 }
  - { offset: 0x1C66B, size: 0x8, addend: 0x0, symName: __ZN12_GLOBAL__N_129NumWordsIn_MultipleWords_TestC2Ev, symObjAddr: 0x17398, symBinAddr: 0x100020BB0, symSize: 0xF8 }
  - { offset: 0x1C693, size: 0x8, addend: 0x0, symName: __ZN12_GLOBAL__N_129NumWordsIn_MultipleWords_TestD1Ev, symObjAddr: 0x17490, symBinAddr: 0x100020CA8, symSize: 0x64 }
  - { offset: 0x1C6BB, size: 0x8, addend: 0x0, symName: __ZN12_GLOBAL__N_129NumWordsIn_MultipleWords_TestD0Ev, symObjAddr: 0x174F4, symBinAddr: 0x100020D0C, symSize: 0x68 }
  - { offset: 0x1C6E3, size: 0x8, addend: 0x0, symName: __ZN12_GLOBAL__N_129NumWordsIn_MultipleWords_Test8TestBodyEv, symObjAddr: 0x1755C, symBinAddr: 0x100020D74, symSize: 0x57C }
  - { offset: 0x1C720, size: 0x8, addend: 0x0, symName: __ZN12_GLOBAL__N_129NumWordsIn_MultipleWords_TestD2Ev, symObjAddr: 0x17AD8, symBinAddr: 0x1000212F0, symSize: 0x64 }
  - { offset: 0x1C749, size: 0x8, addend: 0x0, symName: __ZN7testing8internal15TestFactoryImplIN12_GLOBAL__N_127NumWordsIn_EmptyString_TestEEC2Ev, symObjAddr: 0x17B3C, symBinAddr: 0x100021354, symSize: 0xF8 }
  - { offset: 0x1C775, size: 0x8, addend: 0x0, symName: __ZN7testing8internal15TestFactoryImplIN12_GLOBAL__N_127NumWordsIn_EmptyString_TestEED1Ev, symObjAddr: 0x17C34, symBinAddr: 0x10002144C, symSize: 0x64 }
  - { offset: 0x1C7A1, size: 0x8, addend: 0x0, symName: __ZN7testing8internal15TestFactoryImplIN12_GLOBAL__N_127NumWordsIn_EmptyString_TestEED0Ev, symObjAddr: 0x17C98, symBinAddr: 0x1000214B0, symSize: 0x68 }
  - { offset: 0x1C7CC, size: 0x8, addend: 0x0, symName: __ZN7testing8internal15TestFactoryImplIN12_GLOBAL__N_127NumWordsIn_EmptyString_TestEE10CreateTestEv, symObjAddr: 0x17D00, symBinAddr: 0x100021518, symSize: 0xFC }
  - { offset: 0x1C7F1, size: 0x8, addend: 0x0, symName: __ZN7testing8internal15TestFactoryImplIN12_GLOBAL__N_127NumWordsIn_EmptyString_TestEED2Ev, symObjAddr: 0x17DFC, symBinAddr: 0x100021614, symSize: 0x64 }
  - { offset: 0x1C81C, size: 0x8, addend: 0x0, symName: __ZN12_GLOBAL__N_127NumWordsIn_EmptyString_TestC1Ev, symObjAddr: 0x17E60, symBinAddr: 0x100021678, symSize: 0x64 }
  - { offset: 0x1C844, size: 0x8, addend: 0x0, symName: __ZN12_GLOBAL__N_127NumWordsIn_EmptyString_TestC2Ev, symObjAddr: 0x17EC4, symBinAddr: 0x1000216DC, symSize: 0xF8 }
  - { offset: 0x1C86C, size: 0x8, addend: 0x0, symName: __ZN12_GLOBAL__N_127NumWordsIn_EmptyString_TestD1Ev, symObjAddr: 0x17FBC, symBinAddr: 0x1000217D4, symSize: 0x64 }
  - { offset: 0x1C894, size: 0x8, addend: 0x0, symName: __ZN12_GLOBAL__N_127NumWordsIn_EmptyString_TestD0Ev, symObjAddr: 0x18020, symBinAddr: 0x100021838, symSize: 0x68 }
  - { offset: 0x1C8BC, size: 0x8, addend: 0x0, symName: __ZN12_GLOBAL__N_127NumWordsIn_EmptyString_Test8TestBodyEv, symObjAddr: 0x18088, symBinAddr: 0x1000218A0, symSize: 0x57C }
  - { offset: 0x1C8F9, size: 0x8, addend: 0x0, symName: __ZN12_GLOBAL__N_127NumWordsIn_EmptyString_TestD2Ev, symObjAddr: 0x18604, symBinAddr: 0x100021E1C, symSize: 0x64 }
  - { offset: 0x1C922, size: 0x8, addend: 0x0, symName: __ZN7testing8internal15TestFactoryImplIN12_GLOBAL__N_121Lab1Main_OneWord_TestEEC2Ev, symObjAddr: 0x18668, symBinAddr: 0x100021E80, symSize: 0xF8 }
  - { offset: 0x1C94E, size: 0x8, addend: 0x0, symName: __ZN7testing8internal15TestFactoryImplIN12_GLOBAL__N_121Lab1Main_OneWord_TestEED1Ev, symObjAddr: 0x18760, symBinAddr: 0x100021F78, symSize: 0x64 }
  - { offset: 0x1C97A, size: 0x8, addend: 0x0, symName: __ZN7testing8internal15TestFactoryImplIN12_GLOBAL__N_121Lab1Main_OneWord_TestEED0Ev, symObjAddr: 0x187C4, symBinAddr: 0x100021FDC, symSize: 0x68 }
  - { offset: 0x1C9A5, size: 0x8, addend: 0x0, symName: __ZN7testing8internal15TestFactoryImplIN12_GLOBAL__N_121Lab1Main_OneWord_TestEE10CreateTestEv, symObjAddr: 0x1882C, symBinAddr: 0x100022044, symSize: 0xFC }
  - { offset: 0x1C9CA, size: 0x8, addend: 0x0, symName: __ZN7testing8internal15TestFactoryImplIN12_GLOBAL__N_121Lab1Main_OneWord_TestEED2Ev, symObjAddr: 0x18928, symBinAddr: 0x100022140, symSize: 0x64 }
  - { offset: 0x1C9F5, size: 0x8, addend: 0x0, symName: __ZN12_GLOBAL__N_121Lab1Main_OneWord_TestC1Ev, symObjAddr: 0x1898C, symBinAddr: 0x1000221A4, symSize: 0x64 }
  - { offset: 0x1CA1D, size: 0x8, addend: 0x0, symName: __ZN12_GLOBAL__N_121Lab1Main_OneWord_TestC2Ev, symObjAddr: 0x189F0, symBinAddr: 0x100022208, symSize: 0xF8 }
  - { offset: 0x1CA4B, size: 0x8, addend: 0x0, symName: __ZN12_GLOBAL__N_18Lab1MainC2Ev, symObjAddr: 0x18AE8, symBinAddr: 0x100022300, symSize: 0xF8 }
  - { offset: 0x1CA75, size: 0x8, addend: 0x0, symName: __ZN12_GLOBAL__N_121Lab1Main_OneWord_TestD1Ev, symObjAddr: 0x18BE0, symBinAddr: 0x1000223F8, symSize: 0x64 }
  - { offset: 0x1CA9D, size: 0x8, addend: 0x0, symName: __ZN12_GLOBAL__N_121Lab1Main_OneWord_TestD0Ev, symObjAddr: 0x18C44, symBinAddr: 0x10002245C, symSize: 0x68 }
  - { offset: 0x1CAC5, size: 0x8, addend: 0x0, symName: __ZN12_GLOBAL__N_121Lab1Main_OneWord_Test8TestBodyEv, symObjAddr: 0x18CAC, symBinAddr: 0x1000224C4, symSize: 0x8F0 }
  - { offset: 0x1CB14, size: 0x8, addend: 0x0, symName: __ZN14CaptureCinCoutC2Ev, symObjAddr: 0x1959C, symBinAddr: 0x100022DB4, symSize: 0xBEC }
  - { offset: 0x1CB3D, size: 0x8, addend: 0x0, symName: __ZN12_GLOBAL__N_18Lab1MainD1Ev, symObjAddr: 0x1A188, symBinAddr: 0x1000239A0, symSize: 0x54 }
  - { offset: 0x1CB68, size: 0x8, addend: 0x0, symName: __ZN12_GLOBAL__N_18Lab1MainD0Ev, symObjAddr: 0x1A1DC, symBinAddr: 0x1000239F4, symSize: 0x50 }
  - { offset: 0x1CB92, size: 0x8, addend: 0x0, symName: __ZNSt3__19basic_iosIcNS_11char_traitsIcEEE5rdbufB8ne190107EPNS_15basic_streambufIcS2_EE, symObjAddr: 0x1A22C, symBinAddr: 0x100023A44, symSize: 0x178 }
  - { offset: 0x1CBD6, size: 0x8, addend: 0x0, symName: __ZNKSt3__118basic_stringstreamIcNS_11char_traitsIcEENS_9allocatorIcEEE5rdbufB8ne190107Ev, symObjAddr: 0x1A3A4, symBinAddr: 0x100023BBC, symSize: 0xD0 }
  - { offset: 0x1CBFA, size: 0x8, addend: 0x0, symName: __ZN14CaptureCinCoutD1Ev, symObjAddr: 0x1A474, symBinAddr: 0x100023C8C, symSize: 0x54 }
  - { offset: 0x1CC22, size: 0x8, addend: 0x0, symName: __ZN14CaptureCinCoutD0Ev, symObjAddr: 0x1A4C8, symBinAddr: 0x100023CE0, symSize: 0x50 }
  - { offset: 0x1CC4A, size: 0x8, addend: 0x0, symName: __ZNSt3__18ios_base5rdbufB8ne190107EPv, symObjAddr: 0x1A518, symBinAddr: 0x100023D30, symSize: 0x188 }
  - { offset: 0x1CC7D, size: 0x8, addend: 0x0, symName: __ZN12_GLOBAL__N_121Lab1Main_OneWord_TestD2Ev, symObjAddr: 0x1A6A0, symBinAddr: 0x100023EB8, symSize: 0x64 }
  - { offset: 0x1CCA6, size: 0x8, addend: 0x0, symName: __ZN12_GLOBAL__N_18Lab1MainD2Ev, symObjAddr: 0x1A704, symBinAddr: 0x100023F1C, symSize: 0x64 }
  - { offset: 0x1CCD0, size: 0x8, addend: 0x0, symName: __ZN14CaptureCinCoutD2Ev, symObjAddr: 0x1A768, symBinAddr: 0x100023F80, symSize: 0x658 }
  - { offset: 0x1CD02, size: 0x8, addend: 0x0, symName: __ZNK7testing8internal29PredicateFormatterFromMatcherINS_18PolymorphicMatcherINS0_16HasSubstrMatcherINSt3__112basic_stringIcNS4_11char_traitsIcEENS4_9allocatorIcEEEEEEEEEclISA_EENS_15AssertionResultEPKcRKT_, symObjAddr: 0x1B880, symBinAddr: 0x100024F74, symSize: 0xCC8 }
  - { offset: 0x1CD8B, size: 0x8, addend: 0x0, symName: __ZN7testing8internal29PredicateFormatterFromMatcherINS_18PolymorphicMatcherINS0_16HasSubstrMatcherINSt3__112basic_stringIcNS4_11char_traitsIcEENS4_9allocatorIcEEEEEEEEED1Ev, symObjAddr: 0x1C548, symBinAddr: 0x100025C3C, symSize: 0x64 }
  - { offset: 0x1CDB7, size: 0x8, addend: 0x0, symName: __ZN7testing18PolymorphicMatcherINS_8internal16HasSubstrMatcherINSt3__112basic_stringIcNS3_11char_traitsIcEENS3_9allocatorIcEEEEEEED1Ev, symObjAddr: 0x1C5AC, symBinAddr: 0x100025CA0, symSize: 0x64 }
  - { offset: 0x1CDE8, size: 0x8, addend: 0x0, symName: __ZN7testing18PolymorphicMatcherINS_8internal16HasSubstrMatcherINSt3__112basic_stringIcNS3_11char_traitsIcEENS3_9allocatorIcEEEEEEEC1EOSB_, symObjAddr: 0x1C610, symBinAddr: 0x100025D04, symSize: 0x6C }
  - { offset: 0x1CE1C, size: 0x8, addend: 0x0, symName: __ZN7testing8internal29PredicateFormatterFromMatcherINS_18PolymorphicMatcherINS0_16HasSubstrMatcherINSt3__112basic_stringIcNS4_11char_traitsIcEENS4_9allocatorIcEEEEEEEEEC1ESC_, symObjAddr: 0x1C67C, symBinAddr: 0x100025D70, symSize: 0x70 }
  - { offset: 0x1CE55, size: 0x8, addend: 0x0, symName: __ZN7testing18PolymorphicMatcherINS_8internal16HasSubstrMatcherINSt3__112basic_stringIcNS3_11char_traitsIcEENS3_9allocatorIcEEEEEEEC2EOSB_, symObjAddr: 0x1C6EC, symBinAddr: 0x100025DE0, symSize: 0xD8 }
  - { offset: 0x1CE8F, size: 0x8, addend: 0x0, symName: __ZN7testing8internal16HasSubstrMatcherINSt3__112basic_stringIcNS2_11char_traitsIcEENS2_9allocatorIcEEEEEC1EOS9_, symObjAddr: 0x1C7C4, symBinAddr: 0x100025EB8, symSize: 0x6C }
  - { offset: 0x1CEC4, size: 0x8, addend: 0x0, symName: __ZN7testing8internal16HasSubstrMatcherINSt3__112basic_stringIcNS2_11char_traitsIcEENS2_9allocatorIcEEEEEC2EOS9_, symObjAddr: 0x1C830, symBinAddr: 0x100025F24, symSize: 0xD8 }
  - { offset: 0x1CEF8, size: 0x8, addend: 0x0, symName: __ZN7testing8internal29PredicateFormatterFromMatcherINS_18PolymorphicMatcherINS0_16HasSubstrMatcherINSt3__112basic_stringIcNS4_11char_traitsIcEENS4_9allocatorIcEEEEEEEEEC2ESC_, symObjAddr: 0x1C908, symBinAddr: 0x100025FFC, symSize: 0xA4 }
  - { offset: 0x1CF30, size: 0x8, addend: 0x0, symName: __ZN7testing8internal16HasSubstrMatcherINSt3__112basic_stringIcNS2_11char_traitsIcEENS2_9allocatorIcEEEEEC1ERKS8_, symObjAddr: 0x1CA50, symBinAddr: 0x100026144, symSize: 0x6C }
  - { offset: 0x1CF68, size: 0x8, addend: 0x0, symName: __ZN7testing8internal16HasSubstrMatcherINSt3__112basic_stringIcNS2_11char_traitsIcEENS2_9allocatorIcEEEEED1Ev, symObjAddr: 0x1CABC, symBinAddr: 0x1000261B0, symSize: 0x64 }
  - { offset: 0x1CF93, size: 0x8, addend: 0x0, symName: __ZN7testing18PolymorphicMatcherINS_8internal16HasSubstrMatcherINSt3__112basic_stringIcNS3_11char_traitsIcEENS3_9allocatorIcEEEEEEEC1ERKSA_, symObjAddr: 0x1CB20, symBinAddr: 0x100026214, symSize: 0x6C }
  - { offset: 0x1CFCA, size: 0x8, addend: 0x0, symName: __ZN7testing18PolymorphicMatcherINS_8internal16HasSubstrMatcherINSt3__112basic_stringIcNS3_11char_traitsIcEENS3_9allocatorIcEEEEEEEC2ERKSA_, symObjAddr: 0x1CB8C, symBinAddr: 0x100026280, symSize: 0xA4 }
  - { offset: 0x1D002, size: 0x8, addend: 0x0, symName: __ZN7testing8internal16HasSubstrMatcherINSt3__112basic_stringIcNS2_11char_traitsIcEENS2_9allocatorIcEEEEEC1ERKS9_, symObjAddr: 0x1CC30, symBinAddr: 0x100026324, symSize: 0x6C }
  - { offset: 0x1D037, size: 0x8, addend: 0x0, symName: __ZN7testing8internal16HasSubstrMatcherINSt3__112basic_stringIcNS2_11char_traitsIcEENS2_9allocatorIcEEEEEC2ERKS9_, symObjAddr: 0x1CC9C, symBinAddr: 0x100026390, symSize: 0xA4 }
  - { offset: 0x1D06B, size: 0x8, addend: 0x0, symName: __ZN7testing8internal16HasSubstrMatcherINSt3__112basic_stringIcNS2_11char_traitsIcEENS2_9allocatorIcEEEEEC2ERKS8_, symObjAddr: 0x1CD40, symBinAddr: 0x100026434, symSize: 0xA4 }
  - { offset: 0x1D0A3, size: 0x8, addend: 0x0, symName: __ZN7testing8internal16HasSubstrMatcherINSt3__112basic_stringIcNS2_11char_traitsIcEENS2_9allocatorIcEEEEED2Ev, symObjAddr: 0x1CDE4, symBinAddr: 0x1000264D8, symSize: 0x64 }
  - { offset: 0x1D0CE, size: 0x8, addend: 0x0, symName: __ZNK7testing8internal11MatcherBaseIRKNSt3__112basic_stringIcNS2_11char_traitsIcEENS2_9allocatorIcEEEEE7MatchesESA_, symObjAddr: 0x1CEB8, symBinAddr: 0x1000265AC, symSize: 0x350 }
  - { offset: 0x1D114, size: 0x8, addend: 0x0, symName: __ZNK7testing8internal11MatcherBaseIRKNSt3__112basic_stringIcNS2_11char_traitsIcEENS2_9allocatorIcEEEEE10DescribeToEPNS2_13basic_ostreamIcS5_EE, symObjAddr: 0x1D208, symBinAddr: 0x1000268FC, symSize: 0x59C }
  - { offset: 0x1D149, size: 0x8, addend: 0x0, symName: __ZN7testing7MatcherIRKNSt3__112basic_stringIcNS1_11char_traitsIcEENS1_9allocatorIcEEEEED1Ev, symObjAddr: 0x1E3DC, symBinAddr: 0x100027AD0, symSize: 0x64 }
  - { offset: 0x1D179, size: 0x8, addend: 0x0, symName: __ZN7testing8internal15MatcherCastImplIRKNSt3__112basic_stringIcNS2_11char_traitsIcEENS2_9allocatorIcEEEENS_18PolymorphicMatcherINS0_16HasSubstrMatcherIS8_EEEEE4CastERKSE_, symObjAddr: 0x1E4B8, symBinAddr: 0x100027BAC, symSize: 0x0 }
  - { offset: 0x1D19C, size: 0x8, addend: 0x0, symName: __ZN7testing8internal15MatcherCastImplIRKNSt3__112basic_stringIcNS2_11char_traitsIcEENS2_9allocatorIcEEEENS_18PolymorphicMatcherINS0_16HasSubstrMatcherIS8_EEEEE8CastImplILb0EEENS_7MatcherISA_EERKSE_NS2_17integral_constantIbLb1EEENSL_IbXT_EEE, symObjAddr: 0x1E528, symBinAddr: 0x100027C1C, symSize: 0x0 }
  - { offset: 0x1D1DF, size: 0x8, addend: 0x0, symName: __ZNK7testing18PolymorphicMatcherINS_8internal16HasSubstrMatcherINSt3__112basic_stringIcNS3_11char_traitsIcEENS3_9allocatorIcEEEEEEEcvNS_7MatcherIT_EEIRKS9_EEv, symObjAddr: 0x1E580, symBinAddr: 0x100027C74, symSize: 0x178 }
  - { offset: 0x1D21B, size: 0x8, addend: 0x0, symName: __ZN7testing18PolymorphicMatcherINS_8internal16HasSubstrMatcherINSt3__112basic_stringIcNS3_11char_traitsIcEENS3_9allocatorIcEEEEEEE15MonomorphicImplIRKS9_EC1ERKSA_, symObjAddr: 0x1E6F8, symBinAddr: 0x100027DEC, symSize: 0x6C }
  - { offset: 0x1D252, size: 0x8, addend: 0x0, symName: __ZN7testing7MatcherIRKNSt3__112basic_stringIcNS1_11char_traitsIcEENS1_9allocatorIcEEEEEC1EPKNS_16MatcherInterfaceIS9_EE, symObjAddr: 0x1E764, symBinAddr: 0x100027E58, symSize: 0x6C }
  - { offset: 0x1D289, size: 0x8, addend: 0x0, symName: __ZN7testing18PolymorphicMatcherINS_8internal16HasSubstrMatcherINSt3__112basic_stringIcNS3_11char_traitsIcEENS3_9allocatorIcEEEEEEE15MonomorphicImplIRKS9_EC2ERKSA_, symObjAddr: 0x1E7D0, symBinAddr: 0x100027EC4, symSize: 0x170 }
  - { offset: 0x1D2C6, size: 0x8, addend: 0x0, symName: __ZN7testing16MatcherInterfaceIRKNSt3__112basic_stringIcNS1_11char_traitsIcEENS1_9allocatorIcEEEEEC2Ev, symObjAddr: 0x1E940, symBinAddr: 0x100028034, symSize: 0xF8 }
  - { offset: 0x1D2F1, size: 0x8, addend: 0x0, symName: __ZN7testing16MatcherInterfaceIRKNSt3__112basic_stringIcNS1_11char_traitsIcEENS1_9allocatorIcEEEEED2Ev, symObjAddr: 0x1EA38, symBinAddr: 0x10002812C, symSize: 0x64 }
  - { offset: 0x1D31C, size: 0x8, addend: 0x0, symName: __ZN7testing18PolymorphicMatcherINS_8internal16HasSubstrMatcherINSt3__112basic_stringIcNS3_11char_traitsIcEENS3_9allocatorIcEEEEEEE15MonomorphicImplIRKS9_ED1Ev, symObjAddr: 0x1EA9C, symBinAddr: 0x100028190, symSize: 0x64 }
  - { offset: 0x1D348, size: 0x8, addend: 0x0, symName: __ZN7testing18PolymorphicMatcherINS_8internal16HasSubstrMatcherINSt3__112basic_stringIcNS3_11char_traitsIcEENS3_9allocatorIcEEEEEEE15MonomorphicImplIRKS9_ED0Ev, symObjAddr: 0x1EB00, symBinAddr: 0x1000281F4, symSize: 0x68 }
  - { offset: 0x1D373, size: 0x8, addend: 0x0, symName: __ZNK7testing18PolymorphicMatcherINS_8internal16HasSubstrMatcherINSt3__112basic_stringIcNS3_11char_traitsIcEENS3_9allocatorIcEEEEEEE15MonomorphicImplIRKS9_E10DescribeToEPNS3_13basic_ostreamIcS6_EE, symObjAddr: 0x1EB68, symBinAddr: 0x10002825C, symSize: 0x11C }
  - { offset: 0x1D3A6, size: 0x8, addend: 0x0, symName: __ZNK7testing18PolymorphicMatcherINS_8internal16HasSubstrMatcherINSt3__112basic_stringIcNS3_11char_traitsIcEENS3_9allocatorIcEEEEEEE15MonomorphicImplIRKS9_E18DescribeNegationToEPNS3_13basic_ostreamIcS6_EE, symObjAddr: 0x1EC84, symBinAddr: 0x100028378, symSize: 0x11C }
  - { offset: 0x1D3D9, size: 0x8, addend: 0x0, symName: __ZNK7testing18PolymorphicMatcherINS_8internal16HasSubstrMatcherINSt3__112basic_stringIcNS3_11char_traitsIcEENS3_9allocatorIcEEEEEEE15MonomorphicImplIRKS9_E15MatchAndExplainESE_PNS_19MatchResultListenerE, symObjAddr: 0x1EDA0, symBinAddr: 0x100028494, symSize: 0x15C }
  - { offset: 0x1D41C, size: 0x8, addend: 0x0, symName: __ZN7testing16MatcherInterfaceIRKNSt3__112basic_stringIcNS1_11char_traitsIcEENS1_9allocatorIcEEEEED1Ev, symObjAddr: 0x1EEFC, symBinAddr: 0x1000285F0, symSize: 0x54 }
  - { offset: 0x1D447, size: 0x8, addend: 0x0, symName: __ZN7testing16MatcherInterfaceIRKNSt3__112basic_stringIcNS1_11char_traitsIcEENS1_9allocatorIcEEEEED0Ev, symObjAddr: 0x1EF50, symBinAddr: 0x100028644, symSize: 0x50 }
  - { offset: 0x1D472, size: 0x8, addend: 0x0, symName: __ZN7testing18PolymorphicMatcherINS_8internal16HasSubstrMatcherINSt3__112basic_stringIcNS3_11char_traitsIcEENS3_9allocatorIcEEEEEEE15MonomorphicImplIRKS9_ED2Ev, symObjAddr: 0x1EFA0, symBinAddr: 0x100028694, symSize: 0xC4 }
  - { offset: 0x1D49D, size: 0x8, addend: 0x0, symName: __ZNK7testing8internal16HasSubstrMatcherINSt3__112basic_stringIcNS2_11char_traitsIcEENS2_9allocatorIcEEEEE10DescribeToEPNS2_13basic_ostreamIcS5_EE, symObjAddr: 0x1F064, symBinAddr: 0x100028758, symSize: 0xE0 }
  - { offset: 0x1D4D0, size: 0x8, addend: 0x0, symName: __ZN7testing8internal16UniversalPrinterINSt3__112basic_stringIcNS2_11char_traitsIcEENS2_9allocatorIcEEEEE5PrintERKS8_PNS2_13basic_ostreamIcS5_EE, symObjAddr: 0x1F1B8, symBinAddr: 0x1000288AC, symSize: 0x0 }
  - { offset: 0x1D502, size: 0x8, addend: 0x0, symName: __ZNK7testing8internal16HasSubstrMatcherINSt3__112basic_stringIcNS2_11char_traitsIcEENS2_9allocatorIcEEEEE18DescribeNegationToEPNS2_13basic_ostreamIcS5_EE, symObjAddr: 0x1F288, symBinAddr: 0x10002897C, symSize: 0xE0 }
  - { offset: 0x1D535, size: 0x8, addend: 0x0, symName: __ZNK7testing8internal16HasSubstrMatcherINSt3__112basic_stringIcNS2_11char_traitsIcEENS2_9allocatorIcEEEEE15MatchAndExplainIS8_EEbRKT_PNS_19MatchResultListenerE, symObjAddr: 0x1F368, symBinAddr: 0x100028A5C, symSize: 0x2C0 }
  - { offset: 0x1D57F, size: 0x8, addend: 0x0, symName: __ZNKSt3__112basic_stringIcNS_11char_traitsIcEENS_9allocatorIcEEE4findB8ne190107ERKS5_m, symObjAddr: 0x1F628, symBinAddr: 0x100028D1C, symSize: 0xFC }
  - { offset: 0x1D5C3, size: 0x8, addend: 0x0, symName: __ZN7testing7MatcherIRKNSt3__112basic_stringIcNS1_11char_traitsIcEENS1_9allocatorIcEEEEEC2EPKNS_16MatcherInterfaceIS9_EE, symObjAddr: 0x1F724, symBinAddr: 0x100028E18, symSize: 0x108 }
  - { offset: 0x1D5FA, size: 0x8, addend: 0x0, symName: __ZN7testing8internal11MatcherBaseIRKNSt3__112basic_stringIcNS2_11char_traitsIcEENS2_9allocatorIcEEEEEC2ISA_EEPKNS_16MatcherInterfaceIT_EE, symObjAddr: 0x1F82C, symBinAddr: 0x100028F20, symSize: 0x3AC }
  - { offset: 0x1D640, size: 0x8, addend: 0x0, symName: __ZN7testing7MatcherIRKNSt3__112basic_stringIcNS1_11char_traitsIcEENS1_9allocatorIcEEEEED0Ev, symObjAddr: 0x1FBD8, symBinAddr: 0x1000292CC, symSize: 0x68 }
  - { offset: 0x1D66B, size: 0x8, addend: 0x0, symName: __ZNK7testing8internal11MatcherBaseIRKNSt3__112basic_stringIcNS2_11char_traitsIcEENS2_9allocatorIcEEEEE18DescribeNegationToEPNS2_13basic_ostreamIcS5_EE, symObjAddr: 0x1FC40, symBinAddr: 0x100029334, symSize: 0x59C }
  - { offset: 0x1D69F, size: 0x8, addend: 0x0, symName: __ZN7testing8internal11MatcherBaseIRKNSt3__112basic_stringIcNS2_11char_traitsIcEENS2_9allocatorIcEEEEE4InitIRPKNS_16MatcherInterfaceISA_EEEEvOT_, symObjAddr: 0x201DC, symBinAddr: 0x1000298D0, symSize: 0x234 }
  - { offset: 0x1D6DB, size: 0x8, addend: 0x0, symName: __ZN7testing8internal11MatcherBaseIRKNSt3__112basic_stringIcNS2_11char_traitsIcEENS2_9allocatorIcEEEEED1Ev, symObjAddr: 0x20410, symBinAddr: 0x100029B04, symSize: 0x64 }
  - { offset: 0x1D703, size: 0x8, addend: 0x0, symName: __ZN7testing8internal11MatcherBaseIRKNSt3__112basic_stringIcNS2_11char_traitsIcEENS2_9allocatorIcEEEEED0Ev, symObjAddr: 0x20474, symBinAddr: 0x100029B68, symSize: 0x68 }
  - { offset: 0x1D72B, size: 0x8, addend: 0x0, symName: __ZN7testing8internal11MatcherBaseIRKNSt3__112basic_stringIcNS2_11char_traitsIcEENS2_9allocatorIcEEEEE11ValuePolicyIPKNS_16MatcherInterfaceISA_EELb1EE4InitERSB_SG_, symObjAddr: 0x20540, symBinAddr: 0x100029C34, symSize: 0x0 }
  - { offset: 0x1D75F, size: 0x8, addend: 0x0, symName: __ZN7testing8internal11MatcherBaseIRKNSt3__112basic_stringIcNS2_11char_traitsIcEENS2_9allocatorIcEEEEE19MatchAndExplainImplINSB_11ValuePolicyIPKNS_16MatcherInterfaceISA_EELb1EEEEEDTcldtclsrT_3Getfp_E15MatchAndExplainfp0_fp1_EERKSB_SA_PNS_19MatchResultListenerE, symObjAddr: 0x208FC, symBinAddr: 0x100029FF0, symSize: 0x0 }
  - { offset: 0x1D7A9, size: 0x8, addend: 0x0, symName: __ZN7testing8internal11MatcherBaseIRKNSt3__112basic_stringIcNS2_11char_traitsIcEENS2_9allocatorIcEEEEE12DescribeImplINSB_11ValuePolicyIPKNS_16MatcherInterfaceISA_EELb1EEEEEvRKSB_PNS2_13basic_ostreamIcS5_EEb, symObjAddr: 0x20AE4, symBinAddr: 0x10002A1D8, symSize: 0x0 }
  - { offset: 0x1D7F3, size: 0x8, addend: 0x0, symName: __ZN7testing8internal11MatcherBaseIRKNSt3__112basic_stringIcNS2_11char_traitsIcEENS2_9allocatorIcEEEEE16GetDescriberImplINSB_11ValuePolicyIPKNS_16MatcherInterfaceISA_EELb1EEEEEPKNS_25MatcherDescriberInterfaceERKSB_, symObjAddr: 0x20E8C, symBinAddr: 0x10002A580, symSize: 0x0 }
  - { offset: 0x1D820, size: 0x8, addend: 0x0, symName: __ZN7testing8internal13SharedPayloadINSt3__110unique_ptrIKNS_16MatcherInterfaceIRKNS2_12basic_stringIcNS2_11char_traitsIcEENS2_9allocatorIcEEEEEENS2_14default_deleteISE_EEEEE7DestroyEPNS0_17SharedPayloadBaseE, symObjAddr: 0x211B0, symBinAddr: 0x10002A8A4, symSize: 0x0 }
  - { offset: 0x1D842, size: 0x8, addend: 0x0, symName: __ZN7testing8internal11MatcherBaseIRKNSt3__112basic_stringIcNS2_11char_traitsIcEENS2_9allocatorIcEEEEE11ValuePolicyIPKNS_16MatcherInterfaceISA_EELb1EE3GetERKSB_, symObjAddr: 0x21264, symBinAddr: 0x10002A958, symSize: 0x0 }
  - { offset: 0x1D865, size: 0x8, addend: 0x0, symName: __ZNKSt3__110unique_ptrIKN7testing16MatcherInterfaceIRKNS_12basic_stringIcNS_11char_traitsIcEENS_9allocatorIcEEEEEENS_14default_deleteISC_EEEdeB8ne190107Ev, symObjAddr: 0x21420, symBinAddr: 0x10002AB14, symSize: 0x144 }
  - { offset: 0x1D889, size: 0x8, addend: 0x0, symName: __ZNKSt3__117__compressed_pairIPKN7testing16MatcherInterfaceIRKNS_12basic_stringIcNS_11char_traitsIcEENS_9allocatorIcEEEEEENS_14default_deleteISC_EEE5firstB8ne190107Ev, symObjAddr: 0x21564, symBinAddr: 0x10002AC58, symSize: 0xEC }
  - { offset: 0x1D8AD, size: 0x8, addend: 0x0, symName: __ZNKSt3__122__compressed_pair_elemIPKN7testing16MatcherInterfaceIRKNS_12basic_stringIcNS_11char_traitsIcEENS_9allocatorIcEEEEEELi0ELb0EE5__getB8ne190107Ev, symObjAddr: 0x21650, symBinAddr: 0x10002AD44, symSize: 0x8C }
  - { offset: 0x1D8EF, size: 0x8, addend: 0x0, symName: __ZNSt3__112__tuple_leafILm1EPKN7testing16MatcherInterfaceIRKNS_12basic_stringIcNS_11char_traitsIcEENS_9allocatorIcEEEEEELb0EE3getB8ne190107Ev, symObjAddr: 0x219E4, symBinAddr: 0x10002B0D8, symSize: 0x8C }
  - { offset: 0x1D986, size: 0x8, addend: 0x0, symName: __ZNSt3__15tupleIJPKN7testing8internal11MatcherBaseIRKNS_12basic_stringIcNS_11char_traitsIcEENS_9allocatorIcEEEEEEPKNS1_16MatcherInterfaceISB_EEEEC1B8ne190107IJSE_SI_ETnNS_9enable_ifIXsr4_AndINS_17integral_constantIbXeqsZT_sZT_EEENSJ_17_EnableUTypesCtorIJDpT_EEEEE5valueEiE4typeELi0EEEDpOSP_, symObjAddr: 0x21A70, symBinAddr: 0x10002B164, symSize: 0x74 }
  - { offset: 0x1D9E3, size: 0x8, addend: 0x0, symName: __ZNSt3__15tupleIJPKN7testing8internal11MatcherBaseIRKNS_12basic_stringIcNS_11char_traitsIcEENS_9allocatorIcEEEEEEPKNS1_16MatcherInterfaceISB_EEEEC2B8ne190107IJSE_SI_ETnNS_9enable_ifIXsr4_AndINS_17integral_constantIbXeqsZT_sZT_EEENSJ_17_EnableUTypesCtorIJDpT_EEEEE5valueEiE4typeELi0EEEDpOSP_, symObjAddr: 0x21AE4, symBinAddr: 0x10002B1D8, symSize: 0xE4 }
  - { offset: 0x1DA40, size: 0x8, addend: 0x0, symName: __ZNSt3__112__tuple_implINS_15__tuple_indicesIJLm0ELm1EEEEJPKN7testing8internal11MatcherBaseIRKNS_12basic_stringIcNS_11char_traitsIcEENS_9allocatorIcEEEEEEPKNS3_16MatcherInterfaceISD_EEEEC1B8ne190107IJLm0ELm1EEJSG_SK_ETpTnmJEJEJSG_SK_EEENS1_IJXspT_EEEENS_13__tuple_typesIJDpT0_EEENS1_IJXspT1_EEEENSO_IJDpT2_EEEDpOT3_, symObjAddr: 0x21BC8, symBinAddr: 0x10002B2BC, symSize: 0x74 }
  - { offset: 0x1DAF5, size: 0x8, addend: 0x0, symName: __ZNSt3__112__tuple_implINS_15__tuple_indicesIJLm0ELm1EEEEJPKN7testing8internal11MatcherBaseIRKNS_12basic_stringIcNS_11char_traitsIcEENS_9allocatorIcEEEEEEPKNS3_16MatcherInterfaceISD_EEEEC2B8ne190107IJLm0ELm1EEJSG_SK_ETpTnmJEJEJSG_SK_EEENS1_IJXspT_EEEENS_13__tuple_typesIJDpT0_EEENS1_IJXspT1_EEEENSO_IJDpT2_EEEDpOT3_, symObjAddr: 0x21C3C, symBinAddr: 0x10002B330, symSize: 0x168 }
  - { offset: 0x1DBAA, size: 0x8, addend: 0x0, symName: __ZNSt3__112__tuple_leafILm0EPKN7testing8internal11MatcherBaseIRKNS_12basic_stringIcNS_11char_traitsIcEENS_9allocatorIcEEEEEELb0EEC2B8ne190107ISE_TnNS_9enable_ifIXsr4_AndINS_17integral_constantIbXntu9__is_sameu14__remove_cvrefIT_ESF_EEEENS_16is_constructibleISE_JSJ_EEEEE5valueEiE4typeELi0EEEOSJ_, symObjAddr: 0x21DA4, symBinAddr: 0x10002B498, symSize: 0x124 }
  - { offset: 0x1DBF0, size: 0x8, addend: 0x0, symName: __ZNSt3__112__tuple_leafILm1EPKN7testing16MatcherInterfaceIRKNS_12basic_stringIcNS_11char_traitsIcEENS_9allocatorIcEEEEEELb0EEC2B8ne190107ISD_TnNS_9enable_ifIXsr4_AndINS_17integral_constantIbXntu9__is_sameu14__remove_cvrefIT_ESE_EEEENS_16is_constructibleISD_JSI_EEEEE5valueEiE4typeELi0EEEOSI_, symObjAddr: 0x21EC8, symBinAddr: 0x10002B5BC, symSize: 0x124 }
  - { offset: 0x1DC37, size: 0x8, addend: 0x0, symName: __ZN7testing8internal13SharedPayloadINSt3__110unique_ptrIKNS_16MatcherInterfaceIRKNS2_12basic_stringIcNS2_11char_traitsIcEENS2_9allocatorIcEEEEEENS2_14default_deleteISE_EEEEED1Ev, symObjAddr: 0x21FEC, symBinAddr: 0x10002B6E0, symSize: 0x64 }
  - { offset: 0x1DC62, size: 0x8, addend: 0x0, symName: __ZN7testing8internal13SharedPayloadINSt3__110unique_ptrIKNS_16MatcherInterfaceIRKNS2_12basic_stringIcNS2_11char_traitsIcEENS2_9allocatorIcEEEEEENS2_14default_deleteISE_EEEEED2Ev, symObjAddr: 0x22050, symBinAddr: 0x10002B744, symSize: 0x68 }
  - { offset: 0x1DC8C, size: 0x8, addend: 0x0, symName: __ZNSt3__110unique_ptrIKN7testing16MatcherInterfaceIRKNS_12basic_stringIcNS_11char_traitsIcEENS_9allocatorIcEEEEEENS_14default_deleteISC_EEED1B8ne190107Ev, symObjAddr: 0x220B8, symBinAddr: 0x10002B7AC, symSize: 0x64 }
  - { offset: 0x1DCB4, size: 0x8, addend: 0x0, symName: __ZNSt3__110unique_ptrIKN7testing16MatcherInterfaceIRKNS_12basic_stringIcNS_11char_traitsIcEENS_9allocatorIcEEEEEENS_14default_deleteISC_EEED2B8ne190107Ev, symObjAddr: 0x2211C, symBinAddr: 0x10002B810, symSize: 0x68 }
  - { offset: 0x1DCDC, size: 0x8, addend: 0x0, symName: __ZNSt3__110unique_ptrIKN7testing16MatcherInterfaceIRKNS_12basic_stringIcNS_11char_traitsIcEENS_9allocatorIcEEEEEENS_14default_deleteISC_EEE5resetB8ne190107EPSC_, symObjAddr: 0x22184, symBinAddr: 0x10002B878, symSize: 0x240 }
  - { offset: 0x1DD1E, size: 0x8, addend: 0x0, symName: __ZNSt3__117__compressed_pairIPKN7testing16MatcherInterfaceIRKNS_12basic_stringIcNS_11char_traitsIcEENS_9allocatorIcEEEEEENS_14default_deleteISC_EEE5firstB8ne190107Ev, symObjAddr: 0x223C4, symBinAddr: 0x10002BAB8, symSize: 0xEC }
  - { offset: 0x1DD42, size: 0x8, addend: 0x0, symName: __ZNSt3__117__compressed_pairIPKN7testing16MatcherInterfaceIRKNS_12basic_stringIcNS_11char_traitsIcEENS_9allocatorIcEEEEEENS_14default_deleteISC_EEE6secondB8ne190107Ev, symObjAddr: 0x224B0, symBinAddr: 0x10002BBA4, symSize: 0xC4 }
  - { offset: 0x1DD66, size: 0x8, addend: 0x0, symName: __ZNKSt3__114default_deleteIKN7testing16MatcherInterfaceIRKNS_12basic_stringIcNS_11char_traitsIcEENS_9allocatorIcEEEEEEEclB8ne190107EPSC_, symObjAddr: 0x22574, symBinAddr: 0x10002BC68, symSize: 0x18C }
  - { offset: 0x1DD98, size: 0x8, addend: 0x0, symName: __ZNSt3__122__compressed_pair_elemIPKN7testing16MatcherInterfaceIRKNS_12basic_stringIcNS_11char_traitsIcEENS_9allocatorIcEEEEEELi0ELb0EE5__getB8ne190107Ev, symObjAddr: 0x22700, symBinAddr: 0x10002BDF4, symSize: 0x8C }
  - { offset: 0x1DDBC, size: 0x8, addend: 0x0, symName: __ZNSt3__122__compressed_pair_elemINS_14default_deleteIKN7testing16MatcherInterfaceIRKNS_12basic_stringIcNS_11char_traitsIcEENS_9allocatorIcEEEEEEEELi1ELb1EE5__getB8ne190107Ev, symObjAddr: 0x2278C, symBinAddr: 0x10002BE80, symSize: 0x64 }
  - { offset: 0x1DDE0, size: 0x8, addend: 0x0, symName: __ZNSt3__110unique_ptrIKN7testing16MatcherInterfaceIRKNS_12basic_stringIcNS_11char_traitsIcEENS_9allocatorIcEEEEEENS_14default_deleteISC_EEEC1B8ne190107ILb1EvEEPSC_, symObjAddr: 0x227F0, symBinAddr: 0x10002BEE4, symSize: 0x6C }
  - { offset: 0x1DE21, size: 0x8, addend: 0x0, symName: __ZN7testing8internal13SharedPayloadINSt3__110unique_ptrIKNS_16MatcherInterfaceIRKNS2_12basic_stringIcNS2_11char_traitsIcEENS2_9allocatorIcEEEEEENS2_14default_deleteISE_EEEEEC1EOSH_, symObjAddr: 0x2285C, symBinAddr: 0x10002BF50, symSize: 0x6C }
  - { offset: 0x1DE57, size: 0x8, addend: 0x0, symName: __ZNSt3__110unique_ptrIKN7testing16MatcherInterfaceIRKNS_12basic_stringIcNS_11char_traitsIcEENS_9allocatorIcEEEEEENS_14default_deleteISC_EEEC2B8ne190107ILb1EvEEPSC_, symObjAddr: 0x228C8, symBinAddr: 0x10002BFBC, symSize: 0x250 }
  - { offset: 0x1DE9D, size: 0x8, addend: 0x0, symName: __ZNSt3__117__compressed_pairIPKN7testing16MatcherInterfaceIRKNS_12basic_stringIcNS_11char_traitsIcEENS_9allocatorIcEEEEEENS_14default_deleteISC_EEEC1B8ne190107IRSD_NS_16__value_init_tagEEEOT_OT0_, symObjAddr: 0x22B18, symBinAddr: 0x10002C20C, symSize: 0x74 }
  - { offset: 0x1DEF3, size: 0x8, addend: 0x0, symName: __ZNSt3__117__compressed_pairIPKN7testing16MatcherInterfaceIRKNS_12basic_stringIcNS_11char_traitsIcEENS_9allocatorIcEEEEEENS_14default_deleteISC_EEEC2B8ne190107IRSD_NS_16__value_init_tagEEEOT_OT0_, symObjAddr: 0x22B8C, symBinAddr: 0x10002C280, symSize: 0x104 }
  - { offset: 0x1DF49, size: 0x8, addend: 0x0, symName: __ZNSt3__122__compressed_pair_elemIPKN7testing16MatcherInterfaceIRKNS_12basic_stringIcNS_11char_traitsIcEENS_9allocatorIcEEEEEELi0ELb0EEC2B8ne190107IRSD_TnNS_9enable_ifIXntsr7is_sameISE_u7__decayIT_EEE5valueEiE4typeELi0EEEOSI_, symObjAddr: 0x22C90, symBinAddr: 0x10002C384, symSize: 0x124 }
  - { offset: 0x1DF8E, size: 0x8, addend: 0x0, symName: __ZNSt3__122__compressed_pair_elemINS_14default_deleteIKN7testing16MatcherInterfaceIRKNS_12basic_stringIcNS_11char_traitsIcEENS_9allocatorIcEEEEEEEELi1ELb1EEC2B8ne190107ENS_16__value_init_tagE, symObjAddr: 0x22DB4, symBinAddr: 0x10002C4A8, symSize: 0x48 }
  - { offset: 0x1DFC0, size: 0x8, addend: 0x0, symName: __ZN7testing8internal13SharedPayloadINSt3__110unique_ptrIKNS_16MatcherInterfaceIRKNS2_12basic_stringIcNS2_11char_traitsIcEENS2_9allocatorIcEEEEEENS2_14default_deleteISE_EEEEEC2EOSH_, symObjAddr: 0x22DFC, symBinAddr: 0x10002C4F0, symSize: 0xEC }
  - { offset: 0x1DFF7, size: 0x8, addend: 0x0, symName: __ZN7testing8internal17SharedPayloadBaseC2Ev, symObjAddr: 0x22EE8, symBinAddr: 0x10002C5DC, symSize: 0x68 }
  - { offset: 0x1E021, size: 0x8, addend: 0x0, symName: __ZNSt3__110unique_ptrIKN7testing16MatcherInterfaceIRKNS_12basic_stringIcNS_11char_traitsIcEENS_9allocatorIcEEEEEENS_14default_deleteISC_EEEC1B8ne190107EOSF_, symObjAddr: 0x22F50, symBinAddr: 0x10002C644, symSize: 0x6C }
  - { offset: 0x1E057, size: 0x8, addend: 0x0, symName: __ZNSt3__16atomicIiEC1B8ne190107Ei, symObjAddr: 0x22FBC, symBinAddr: 0x10002C6B0, symSize: 0x6C }
  - { offset: 0x1E08D, size: 0x8, addend: 0x0, symName: __ZNSt3__16atomicIiEC2B8ne190107Ei, symObjAddr: 0x23028, symBinAddr: 0x10002C71C, symSize: 0xA8 }
  - { offset: 0x1E0C3, size: 0x8, addend: 0x0, symName: __ZNSt3__113__atomic_baseIiLb1EEC2B8ne190107Ei, symObjAddr: 0x230D0, symBinAddr: 0x10002C7C4, symSize: 0xA8 }
  - { offset: 0x1E0F9, size: 0x8, addend: 0x0, symName: __ZNSt3__113__atomic_baseIiLb0EEC2B8ne190107Ei, symObjAddr: 0x23178, symBinAddr: 0x10002C86C, symSize: 0x6C }
  - { offset: 0x1E12F, size: 0x8, addend: 0x0, symName: __ZNSt3__117__cxx_atomic_implIiNS_22__cxx_atomic_base_implIiEEEC1B8ne190107Ei, symObjAddr: 0x231E4, symBinAddr: 0x10002C8D8, symSize: 0x6C }
  - { offset: 0x1E166, size: 0x8, addend: 0x0, symName: __ZNSt3__117__cxx_atomic_implIiNS_22__cxx_atomic_base_implIiEEEC2B8ne190107Ei, symObjAddr: 0x23250, symBinAddr: 0x10002C944, symSize: 0xA8 }
  - { offset: 0x1E19D, size: 0x8, addend: 0x0, symName: __ZNSt3__122__cxx_atomic_base_implIiEC2Ei, symObjAddr: 0x232F8, symBinAddr: 0x10002C9EC, symSize: 0xDC }
  - { offset: 0x1E1D4, size: 0x8, addend: 0x0, symName: __ZNSt3__110unique_ptrIKN7testing16MatcherInterfaceIRKNS_12basic_stringIcNS_11char_traitsIcEENS_9allocatorIcEEEEEENS_14default_deleteISC_EEEC2B8ne190107EOSF_, symObjAddr: 0x233D4, symBinAddr: 0x10002CAC8, symSize: 0x2A4 }
  - { offset: 0x1E20C, size: 0x8, addend: 0x0, symName: __ZNSt3__110unique_ptrIKN7testing16MatcherInterfaceIRKNS_12basic_stringIcNS_11char_traitsIcEENS_9allocatorIcEEEEEENS_14default_deleteISC_EEE7releaseB8ne190107Ev, symObjAddr: 0x23678, symBinAddr: 0x10002CD6C, symSize: 0x1BC }
  - { offset: 0x1E23F, size: 0x8, addend: 0x0, symName: __ZNSt3__110unique_ptrIKN7testing16MatcherInterfaceIRKNS_12basic_stringIcNS_11char_traitsIcEENS_9allocatorIcEEEEEENS_14default_deleteISC_EEE11get_deleterB8ne190107Ev, symObjAddr: 0x23834, symBinAddr: 0x10002CF28, symSize: 0xB4 }
  - { offset: 0x1E268, size: 0x8, addend: 0x0, symName: __ZNSt3__117__compressed_pairIPKN7testing16MatcherInterfaceIRKNS_12basic_stringIcNS_11char_traitsIcEENS_9allocatorIcEEEEEENS_14default_deleteISC_EEEC1B8ne190107ISD_SF_EEOT_OT0_, symObjAddr: 0x238E8, symBinAddr: 0x10002CFDC, symSize: 0x74 }
  - { offset: 0x1E2BE, size: 0x8, addend: 0x0, symName: __ZNSt3__117__compressed_pairIPKN7testing16MatcherInterfaceIRKNS_12basic_stringIcNS_11char_traitsIcEENS_9allocatorIcEEEEEENS_14default_deleteISC_EEEC2B8ne190107ISD_SF_EEOT_OT0_, symObjAddr: 0x2395C, symBinAddr: 0x10002D050, symSize: 0x12C }
  - { offset: 0x1E314, size: 0x8, addend: 0x0, symName: __ZNSt3__122__compressed_pair_elemIPKN7testing16MatcherInterfaceIRKNS_12basic_stringIcNS_11char_traitsIcEENS_9allocatorIcEEEEEELi0ELb0EEC2B8ne190107ISD_TnNS_9enable_ifIXntsr7is_sameISE_u7__decayIT_EEE5valueEiE4typeELi0EEEOSH_, symObjAddr: 0x23A88, symBinAddr: 0x10002D17C, symSize: 0x124 }
  - { offset: 0x1E359, size: 0x8, addend: 0x0, symName: __ZNSt3__122__compressed_pair_elemINS_14default_deleteIKN7testing16MatcherInterfaceIRKNS_12basic_stringIcNS_11char_traitsIcEENS_9allocatorIcEEEEEEEELi1ELb1EEC2B8ne190107ISE_TnNS_9enable_ifIXntsr7is_sameISF_u7__decayIT_EEE5valueEiE4typeELi0EEEOSI_, symObjAddr: 0x23BAC, symBinAddr: 0x10002D2A0, symSize: 0x4C }
  - { offset: 0x1E39E, size: 0x8, addend: 0x0, symName: __ZN7testing8internal11MatcherBaseIRKNSt3__112basic_stringIcNS2_11char_traitsIcEENS2_9allocatorIcEEEEED2Ev, symObjAddr: 0x23BF8, symBinAddr: 0x10002D2EC, symSize: 0x140 }
  - { offset: 0x1E3C6, size: 0x8, addend: 0x0, symName: __ZN7testing8internal11MatcherBaseIRKNSt3__112basic_stringIcNS2_11char_traitsIcEENS2_9allocatorIcEEEEE7DestroyEv, symObjAddr: 0x23D38, symBinAddr: 0x10002D42C, symSize: 0x468 }
  - { offset: 0x1E3EA, size: 0x8, addend: 0x0, symName: __ZNK7testing8internal11MatcherBaseIRKNSt3__112basic_stringIcNS2_11char_traitsIcEENS2_9allocatorIcEEEEE8IsSharedEv, symObjAddr: 0x241A0, symBinAddr: 0x10002D894, symSize: 0x27C }
  - { offset: 0x1E40E, size: 0x8, addend: 0x0, symName: __ZNK7testing8internal11MatcherBaseIRKNSt3__112basic_stringIcNS2_11char_traitsIcEENS2_9allocatorIcEEEEE15MatchAndExplainESA_PNS_19MatchResultListenerE, symObjAddr: 0x2441C, symBinAddr: 0x10002DB10, symSize: 0x5D4 }
  - { offset: 0x1E452, size: 0x8, addend: 0x0, symName: __ZN7testing7MatcherIRKNSt3__112basic_stringIcNS1_11char_traitsIcEENS1_9allocatorIcEEEEED2Ev, symObjAddr: 0x24A24, symBinAddr: 0x10002E118, symSize: 0x64 }
  - { offset: 0x1E47E, size: 0x8, addend: 0x0, symName: __ZN7testing8internal29PredicateFormatterFromMatcherINS_18PolymorphicMatcherINS0_16HasSubstrMatcherINSt3__112basic_stringIcNS4_11char_traitsIcEENS4_9allocatorIcEEEEEEEEED2Ev, symObjAddr: 0x24A88, symBinAddr: 0x10002E17C, symSize: 0x64 }
  - { offset: 0x1E4AA, size: 0x8, addend: 0x0, symName: __ZN7testing18PolymorphicMatcherINS_8internal16HasSubstrMatcherINSt3__112basic_stringIcNS3_11char_traitsIcEENS3_9allocatorIcEEEEEEED2Ev, symObjAddr: 0x24AEC, symBinAddr: 0x10002E1E0, symSize: 0x64 }
  - { offset: 0x1E4D6, size: 0x8, addend: 0x0, symName: __ZN7testing8internal15TestFactoryImplIN12_GLOBAL__N_127Lab1Main_MultipleWords_TestEEC2Ev, symObjAddr: 0x24B50, symBinAddr: 0x10002E244, symSize: 0xF8 }
  - { offset: 0x1E502, size: 0x8, addend: 0x0, symName: __ZN7testing8internal15TestFactoryImplIN12_GLOBAL__N_127Lab1Main_MultipleWords_TestEED1Ev, symObjAddr: 0x24C48, symBinAddr: 0x10002E33C, symSize: 0x64 }
  - { offset: 0x1E52E, size: 0x8, addend: 0x0, symName: __ZN7testing8internal15TestFactoryImplIN12_GLOBAL__N_127Lab1Main_MultipleWords_TestEED0Ev, symObjAddr: 0x24CAC, symBinAddr: 0x10002E3A0, symSize: 0x68 }
  - { offset: 0x1E559, size: 0x8, addend: 0x0, symName: __ZN7testing8internal15TestFactoryImplIN12_GLOBAL__N_127Lab1Main_MultipleWords_TestEE10CreateTestEv, symObjAddr: 0x24D14, symBinAddr: 0x10002E408, symSize: 0xFC }
  - { offset: 0x1E57E, size: 0x8, addend: 0x0, symName: __ZN7testing8internal15TestFactoryImplIN12_GLOBAL__N_127Lab1Main_MultipleWords_TestEED2Ev, symObjAddr: 0x24E10, symBinAddr: 0x10002E504, symSize: 0x64 }
  - { offset: 0x1E5A9, size: 0x8, addend: 0x0, symName: __ZN12_GLOBAL__N_127Lab1Main_MultipleWords_TestC1Ev, symObjAddr: 0x24E74, symBinAddr: 0x10002E568, symSize: 0x64 }
  - { offset: 0x1E5D1, size: 0x8, addend: 0x0, symName: __ZN12_GLOBAL__N_127Lab1Main_MultipleWords_TestC2Ev, symObjAddr: 0x24ED8, symBinAddr: 0x10002E5CC, symSize: 0xF8 }
  - { offset: 0x1E5F9, size: 0x8, addend: 0x0, symName: __ZN12_GLOBAL__N_127Lab1Main_MultipleWords_TestD1Ev, symObjAddr: 0x24FD0, symBinAddr: 0x10002E6C4, symSize: 0x64 }
  - { offset: 0x1E621, size: 0x8, addend: 0x0, symName: __ZN12_GLOBAL__N_127Lab1Main_MultipleWords_TestD0Ev, symObjAddr: 0x25034, symBinAddr: 0x10002E728, symSize: 0x68 }
  - { offset: 0x1E649, size: 0x8, addend: 0x0, symName: __ZN12_GLOBAL__N_127Lab1Main_MultipleWords_Test8TestBodyEv, symObjAddr: 0x2509C, symBinAddr: 0x10002E790, symSize: 0x8F0 }
  - { offset: 0x1E698, size: 0x8, addend: 0x0, symName: __ZN12_GLOBAL__N_127Lab1Main_MultipleWords_TestD2Ev, symObjAddr: 0x2598C, symBinAddr: 0x10002F080, symSize: 0x64 }
  - { offset: 0x1E6C1, size: 0x8, addend: 0x0, symName: __ZN7testing8internal15TestFactoryImplIN12_GLOBAL__N_125Lab1Main_EmptyString_TestEEC2Ev, symObjAddr: 0x259F0, symBinAddr: 0x10002F0E4, symSize: 0xF8 }
  - { offset: 0x1E6ED, size: 0x8, addend: 0x0, symName: __ZN7testing8internal15TestFactoryImplIN12_GLOBAL__N_125Lab1Main_EmptyString_TestEED1Ev, symObjAddr: 0x25AE8, symBinAddr: 0x10002F1DC, symSize: 0x64 }
  - { offset: 0x1E719, size: 0x8, addend: 0x0, symName: __ZN7testing8internal15TestFactoryImplIN12_GLOBAL__N_125Lab1Main_EmptyString_TestEED0Ev, symObjAddr: 0x25B4C, symBinAddr: 0x10002F240, symSize: 0x68 }
  - { offset: 0x1E744, size: 0x8, addend: 0x0, symName: __ZN7testing8internal15TestFactoryImplIN12_GLOBAL__N_125Lab1Main_EmptyString_TestEE10CreateTestEv, symObjAddr: 0x25BB4, symBinAddr: 0x10002F2A8, symSize: 0xFC }
  - { offset: 0x1E769, size: 0x8, addend: 0x0, symName: __ZN7testing8internal15TestFactoryImplIN12_GLOBAL__N_125Lab1Main_EmptyString_TestEED2Ev, symObjAddr: 0x25CB0, symBinAddr: 0x10002F3A4, symSize: 0x64 }
  - { offset: 0x1E794, size: 0x8, addend: 0x0, symName: __ZN12_GLOBAL__N_125Lab1Main_EmptyString_TestC1Ev, symObjAddr: 0x25D14, symBinAddr: 0x10002F408, symSize: 0x64 }
  - { offset: 0x1E7BC, size: 0x8, addend: 0x0, symName: __ZN12_GLOBAL__N_125Lab1Main_EmptyString_TestC2Ev, symObjAddr: 0x25D78, symBinAddr: 0x10002F46C, symSize: 0xF8 }
  - { offset: 0x1E7E4, size: 0x8, addend: 0x0, symName: __ZN12_GLOBAL__N_125Lab1Main_EmptyString_TestD1Ev, symObjAddr: 0x25E70, symBinAddr: 0x10002F564, symSize: 0x64 }
  - { offset: 0x1E80C, size: 0x8, addend: 0x0, symName: __ZN12_GLOBAL__N_125Lab1Main_EmptyString_TestD0Ev, symObjAddr: 0x25ED4, symBinAddr: 0x10002F5C8, symSize: 0x68 }
  - { offset: 0x1E834, size: 0x8, addend: 0x0, symName: __ZN12_GLOBAL__N_125Lab1Main_EmptyString_Test8TestBodyEv, symObjAddr: 0x25F3C, symBinAddr: 0x10002F630, symSize: 0x8F0 }
  - { offset: 0x1E883, size: 0x8, addend: 0x0, symName: __ZN12_GLOBAL__N_125Lab1Main_EmptyString_TestD2Ev, symObjAddr: 0x2682C, symBinAddr: 0x10002FF20, symSize: 0x64 }
  - { offset: 0x1E8AC, size: 0x8, addend: 0x0, symName: __ZN7testing8internal15TestFactoryImplIN12_GLOBAL__N_130NumWordsIn_MultipleSpaces_TestEEC2Ev, symObjAddr: 0x26890, symBinAddr: 0x10002FF84, symSize: 0xF8 }
  - { offset: 0x1E8D8, size: 0x8, addend: 0x0, symName: __ZN7testing8internal15TestFactoryImplIN12_GLOBAL__N_130NumWordsIn_MultipleSpaces_TestEED1Ev, symObjAddr: 0x26988, symBinAddr: 0x10003007C, symSize: 0x64 }
  - { offset: 0x1E904, size: 0x8, addend: 0x0, symName: __ZN7testing8internal15TestFactoryImplIN12_GLOBAL__N_130NumWordsIn_MultipleSpaces_TestEED0Ev, symObjAddr: 0x269EC, symBinAddr: 0x1000300E0, symSize: 0x68 }
  - { offset: 0x1E92F, size: 0x8, addend: 0x0, symName: __ZN7testing8internal15TestFactoryImplIN12_GLOBAL__N_130NumWordsIn_MultipleSpaces_TestEE10CreateTestEv, symObjAddr: 0x26A54, symBinAddr: 0x100030148, symSize: 0xFC }
  - { offset: 0x1E954, size: 0x8, addend: 0x0, symName: __ZN7testing8internal15TestFactoryImplIN12_GLOBAL__N_130NumWordsIn_MultipleSpaces_TestEED2Ev, symObjAddr: 0x26B50, symBinAddr: 0x100030244, symSize: 0x64 }
  - { offset: 0x1E97F, size: 0x8, addend: 0x0, symName: __ZN12_GLOBAL__N_130NumWordsIn_MultipleSpaces_TestC1Ev, symObjAddr: 0x26BB4, symBinAddr: 0x1000302A8, symSize: 0x64 }
  - { offset: 0x1E9A7, size: 0x8, addend: 0x0, symName: __ZN12_GLOBAL__N_130NumWordsIn_MultipleSpaces_TestC2Ev, symObjAddr: 0x26C18, symBinAddr: 0x10003030C, symSize: 0xF8 }
  - { offset: 0x1E9CF, size: 0x8, addend: 0x0, symName: __ZN12_GLOBAL__N_130NumWordsIn_MultipleSpaces_TestD1Ev, symObjAddr: 0x26D10, symBinAddr: 0x100030404, symSize: 0x64 }
  - { offset: 0x1E9F7, size: 0x8, addend: 0x0, symName: __ZN12_GLOBAL__N_130NumWordsIn_MultipleSpaces_TestD0Ev, symObjAddr: 0x26D74, symBinAddr: 0x100030468, symSize: 0x68 }
  - { offset: 0x1EA1F, size: 0x8, addend: 0x0, symName: __ZN12_GLOBAL__N_130NumWordsIn_MultipleSpaces_Test8TestBodyEv, symObjAddr: 0x26DDC, symBinAddr: 0x1000304D0, symSize: 0x57C }
  - { offset: 0x1EA5C, size: 0x8, addend: 0x0, symName: __ZN12_GLOBAL__N_130NumWordsIn_MultipleSpaces_TestD2Ev, symObjAddr: 0x27358, symBinAddr: 0x100030A4C, symSize: 0x64 }
  - { offset: 0x1EA85, size: 0x8, addend: 0x0, symName: __ZN7testing8internal15TestFactoryImplIN12_GLOBAL__N_140NumWordsIn_LeadingAndTrailingSpaces_TestEEC2Ev, symObjAddr: 0x273BC, symBinAddr: 0x100030AB0, symSize: 0xF8 }
  - { offset: 0x1EAB1, size: 0x8, addend: 0x0, symName: __ZN7testing8internal15TestFactoryImplIN12_GLOBAL__N_140NumWordsIn_LeadingAndTrailingSpaces_TestEED1Ev, symObjAddr: 0x274B4, symBinAddr: 0x100030BA8, symSize: 0x64 }
  - { offset: 0x1EADD, size: 0x8, addend: 0x0, symName: __ZN7testing8internal15TestFactoryImplIN12_GLOBAL__N_140NumWordsIn_LeadingAndTrailingSpaces_TestEED0Ev, symObjAddr: 0x27518, symBinAddr: 0x100030C0C, symSize: 0x68 }
  - { offset: 0x1EB08, size: 0x8, addend: 0x0, symName: __ZN7testing8internal15TestFactoryImplIN12_GLOBAL__N_140NumWordsIn_LeadingAndTrailingSpaces_TestEE10CreateTestEv, symObjAddr: 0x27580, symBinAddr: 0x100030C74, symSize: 0xFC }
  - { offset: 0x1EB2D, size: 0x8, addend: 0x0, symName: __ZN7testing8internal15TestFactoryImplIN12_GLOBAL__N_140NumWordsIn_LeadingAndTrailingSpaces_TestEED2Ev, symObjAddr: 0x2767C, symBinAddr: 0x100030D70, symSize: 0x64 }
  - { offset: 0x1EB58, size: 0x8, addend: 0x0, symName: __ZN12_GLOBAL__N_140NumWordsIn_LeadingAndTrailingSpaces_TestC1Ev, symObjAddr: 0x276E0, symBinAddr: 0x100030DD4, symSize: 0x64 }
  - { offset: 0x1EB80, size: 0x8, addend: 0x0, symName: __ZN12_GLOBAL__N_140NumWordsIn_LeadingAndTrailingSpaces_TestC2Ev, symObjAddr: 0x27744, symBinAddr: 0x100030E38, symSize: 0xF8 }
  - { offset: 0x1EBA8, size: 0x8, addend: 0x0, symName: __ZN12_GLOBAL__N_140NumWordsIn_LeadingAndTrailingSpaces_TestD1Ev, symObjAddr: 0x2783C, symBinAddr: 0x100030F30, symSize: 0x64 }
  - { offset: 0x1EBD0, size: 0x8, addend: 0x0, symName: __ZN12_GLOBAL__N_140NumWordsIn_LeadingAndTrailingSpaces_TestD0Ev, symObjAddr: 0x278A0, symBinAddr: 0x100030F94, symSize: 0x68 }
  - { offset: 0x1EBF8, size: 0x8, addend: 0x0, symName: __ZN12_GLOBAL__N_140NumWordsIn_LeadingAndTrailingSpaces_Test8TestBodyEv, symObjAddr: 0x27908, symBinAddr: 0x100030FFC, symSize: 0x57C }
  - { offset: 0x1EC35, size: 0x8, addend: 0x0, symName: __ZN12_GLOBAL__N_140NumWordsIn_LeadingAndTrailingSpaces_TestD2Ev, symObjAddr: 0x27E84, symBinAddr: 0x100031578, symSize: 0x64 }
  - { offset: 0x1EC5E, size: 0x8, addend: 0x0, symName: __ZN7testing8internal15TestFactoryImplIN12_GLOBAL__N_141NumWordsIn_EmptyStringWithOnlySpaces_TestEEC2Ev, symObjAddr: 0x27EE8, symBinAddr: 0x1000315DC, symSize: 0xF8 }
  - { offset: 0x1EC8A, size: 0x8, addend: 0x0, symName: __ZN7testing8internal15TestFactoryImplIN12_GLOBAL__N_141NumWordsIn_EmptyStringWithOnlySpaces_TestEED1Ev, symObjAddr: 0x27FE0, symBinAddr: 0x1000316D4, symSize: 0x64 }
  - { offset: 0x1ECB6, size: 0x8, addend: 0x0, symName: __ZN7testing8internal15TestFactoryImplIN12_GLOBAL__N_141NumWordsIn_EmptyStringWithOnlySpaces_TestEED0Ev, symObjAddr: 0x28044, symBinAddr: 0x100031738, symSize: 0x68 }
  - { offset: 0x1ECE1, size: 0x8, addend: 0x0, symName: __ZN7testing8internal15TestFactoryImplIN12_GLOBAL__N_141NumWordsIn_EmptyStringWithOnlySpaces_TestEE10CreateTestEv, symObjAddr: 0x280AC, symBinAddr: 0x1000317A0, symSize: 0xFC }
  - { offset: 0x1ED06, size: 0x8, addend: 0x0, symName: __ZN7testing8internal15TestFactoryImplIN12_GLOBAL__N_141NumWordsIn_EmptyStringWithOnlySpaces_TestEED2Ev, symObjAddr: 0x281A8, symBinAddr: 0x10003189C, symSize: 0x64 }
  - { offset: 0x1ED31, size: 0x8, addend: 0x0, symName: __ZN12_GLOBAL__N_141NumWordsIn_EmptyStringWithOnlySpaces_TestC1Ev, symObjAddr: 0x2820C, symBinAddr: 0x100031900, symSize: 0x64 }
  - { offset: 0x1ED59, size: 0x8, addend: 0x0, symName: __ZN12_GLOBAL__N_141NumWordsIn_EmptyStringWithOnlySpaces_TestC2Ev, symObjAddr: 0x28270, symBinAddr: 0x100031964, symSize: 0xF8 }
  - { offset: 0x1ED81, size: 0x8, addend: 0x0, symName: __ZN12_GLOBAL__N_141NumWordsIn_EmptyStringWithOnlySpaces_TestD1Ev, symObjAddr: 0x28368, symBinAddr: 0x100031A5C, symSize: 0x64 }
  - { offset: 0x1EDA9, size: 0x8, addend: 0x0, symName: __ZN12_GLOBAL__N_141NumWordsIn_EmptyStringWithOnlySpaces_TestD0Ev, symObjAddr: 0x283CC, symBinAddr: 0x100031AC0, symSize: 0x68 }
  - { offset: 0x1EDD1, size: 0x8, addend: 0x0, symName: __ZN12_GLOBAL__N_141NumWordsIn_EmptyStringWithOnlySpaces_Test8TestBodyEv, symObjAddr: 0x28434, symBinAddr: 0x100031B28, symSize: 0x57C }
  - { offset: 0x1EE0E, size: 0x8, addend: 0x0, symName: __ZN12_GLOBAL__N_141NumWordsIn_EmptyStringWithOnlySpaces_TestD2Ev, symObjAddr: 0x289B0, symBinAddr: 0x1000320A4, symSize: 0x64 }
  - { offset: 0x1EE36, size: 0x8, addend: 0x0, symName: __ZN7testing4Test13SetUpTestCaseEv, symObjAddr: 0x28A68, symBinAddr: 0x10003215C, symSize: 0x0 }
  - { offset: 0x1EE49, size: 0x8, addend: 0x0, symName: __ZN7testing4Test14SetUpTestSuiteEv, symObjAddr: 0x28A74, symBinAddr: 0x100032168, symSize: 0x0 }
  - { offset: 0x1EE5C, size: 0x8, addend: 0x0, symName: __ZN7testing4Test16TearDownTestCaseEv, symObjAddr: 0x28A80, symBinAddr: 0x100032174, symSize: 0x0 }
  - { offset: 0x1EE6F, size: 0x8, addend: 0x0, symName: __ZN7testing4Test17TearDownTestSuiteEv, symObjAddr: 0x28A8C, symBinAddr: 0x100032180, symSize: 0x0 }
...
