---
triple:          'arm64-apple-darwin'
binary-path:     references
relocations:
  - { offset: 0x3B, size: 0x8, addend: 0x0, symName: _.str, symObjAddr: 0x1E140, symBinAddr: 0x10001BFC0, symSize: 0x0 }
  - { offset: 0x6B, size: 0x8, addend: 0x0, symName: _.str.1, symObjAddr: 0x1E160, symBinAddr: 0x10001BFE0, symSize: 0x0 }
  - { offset: 0x89, size: 0x8, addend: 0x0, symName: _.str.10, symObjAddr: 0x1E1A0, symBinAddr: 0x10001C020, symSize: 0x0 }
  - { offset: 0x5162, size: 0x8, addend: 0x0, symName: __ZNSt3__124__put_character_sequenceB8ne190107IcNS_11char_traitsIcEEEERNS_13basic_ostreamIT_T0_EES7_PKS4_m, symObjAddr: 0xFF1C, symBinAddr: 0x100012A54, symSize: 0x0 }
  - { offset: 0x6439, size: 0x8, addend: 0x0, symName: __ZNSt3__1eqB8ne190107IPiEEbRKNS_11__wrap_iterIT_EES6_, symObjAddr: 0x610, symBinAddr: 0x100003148, symSize: 0x0 }
  - { offset: 0x647C, size: 0x8, addend: 0x0, symName: __ZNSt3__1lsB8ne190107INS_11char_traitsIcEEEERNS_13basic_ostreamIcT_EES6_PKc, symObjAddr: 0x77C, symBinAddr: 0x1000032B4, symSize: 0x0 }
  - { offset: 0x64C2, size: 0x8, addend: 0x0, symName: __ZNSt3__14endlB8ne190107IcNS_11char_traitsIcEEEERNS_13basic_ostreamIT_T0_EES7_, symObjAddr: 0xAD0, symBinAddr: 0x100003608, symSize: 0x0 }
  - { offset: 0x6502, size: 0x8, addend: 0x0, symName: __ZNSt3__17getlineB8ne190107IcNS_11char_traitsIcEENS_9allocatorIcEEEERNS_13basic_istreamIT_T0_EES9_RNS_12basic_stringIS6_S7_T1_EE, symObjAddr: 0x2EC8, symBinAddr: 0x100005A00, symSize: 0x0 }
  - { offset: 0x655A, size: 0x8, addend: 0x0, symName: __ZNSt3__112__to_addressB8ne190107IiEEPT_S2_, symObjAddr: 0x48D4, symBinAddr: 0x10000740C, symSize: 0x0 }
  - { offset: 0x658F, size: 0x8, addend: 0x0, symName: __ZNSt3__131__annotate_contiguous_containerB8ne190107INS_9allocatorIiEEEEvPKvS4_S4_S4_, symObjAddr: 0x5134, symBinAddr: 0x100007C6C, symSize: 0x0 }
  - { offset: 0x65EA, size: 0x8, addend: 0x0, symName: __ZNSt3__114__construct_atB8ne190107IiJiEPiEEPT_S3_DpOT0_, symObjAddr: 0x54FC, symBinAddr: 0x100008034, symSize: 0x0 }
  - { offset: 0x6662, size: 0x8, addend: 0x0, symName: __ZNSt3__112construct_atB8ne190107IiJiEPiEEPT_S3_DpOT0_, symObjAddr: 0x5570, symBinAddr: 0x1000080A8, symSize: 0x0 }
  - { offset: 0x66D2, size: 0x8, addend: 0x0, symName: __ZNSt3__13maxB8ne190107ImEERKT_S3_S3_, symObjAddr: 0x6B6C, symBinAddr: 0x1000096A4, symSize: 0x0 }
  - { offset: 0x6715, size: 0x8, addend: 0x0, symName: __ZNSt3__13minB8ne190107ImEERKT_S3_S3_, symObjAddr: 0x6C48, symBinAddr: 0x100009780, symSize: 0x0 }
  - { offset: 0x6942, size: 0x8, addend: 0x0, symName: __ZNSt3__13minB8ne190107ImNS_6__lessIvvEEEERKT_S5_S5_T0_, symObjAddr: 0x6E60, symBinAddr: 0x100009998, symSize: 0x0 }
  - { offset: 0x6BD3, size: 0x8, addend: 0x0, symName: __ZNSt3__120__throw_length_errorB8ne190107EPKc, symObjAddr: 0x730C, symBinAddr: 0x100009E44, symSize: 0x0 }
  - { offset: 0x6BFB, size: 0x8, addend: 0x0, symName: __ZNSt3__13maxB8ne190107ImNS_6__lessIvvEEEERKT_S5_S5_T0_, symObjAddr: 0x752C, symBinAddr: 0x10000A064, symSize: 0x0 }
  - { offset: 0x6C5B, size: 0x8, addend: 0x0, symName: __ZNSt3__119__allocate_at_leastB8ne190107INS_9allocatorIiEEEENS_19__allocation_resultINS_16allocator_traitsIT_E7pointerEEERS5_m, symObjAddr: 0x7E38, symBinAddr: 0x10000A970, symSize: 0x0 }
  - { offset: 0x6C9E, size: 0x8, addend: 0x0, symName: __ZNSt3__117__libcpp_allocateB8ne190107Emm, symObjAddr: 0x8370, symBinAddr: 0x10000AEA8, symSize: 0x0 }
  - { offset: 0x6CF8, size: 0x8, addend: 0x0, symName: __ZNSt3__124__is_overaligned_for_newB8ne190107Em, symObjAddr: 0x83D8, symBinAddr: 0x10000AF10, symSize: 0x0 }
  - { offset: 0x6D24, size: 0x8, addend: 0x0, symName: __ZNSt3__121__libcpp_operator_newB8ne190107IJmSt11align_val_tEEEPvDpT_, symObjAddr: 0x83FC, symBinAddr: 0x10000AF34, symSize: 0x0 }
  - { offset: 0x6D71, size: 0x8, addend: 0x0, symName: __ZNSt3__121__libcpp_operator_newB8ne190107IJmEEEPvDpT_, symObjAddr: 0x846C, symBinAddr: 0x10000AFA4, symSize: 0x0 }
  - { offset: 0x6DAA, size: 0x8, addend: 0x0, symName: __ZNSt3__134__uninitialized_allocator_relocateB8ne190107INS_9allocatorIiEEiEEvRT_PT0_S6_S6_, symObjAddr: 0x892C, symBinAddr: 0x10000B464, symSize: 0x0 }
  - { offset: 0x6E13, size: 0x8, addend: 0x0, symName: __ZNSt3__14swapB8ne190107IPiEENS_9enable_ifIXaasr21is_move_constructibleIT_EE5valuesr18is_move_assignableIS3_EE5valueEvE4typeERS3_S6_, symObjAddr: 0x89DC, symBinAddr: 0x10000B514, symSize: 0x0 }
  - { offset: 0x6E64, size: 0x8, addend: 0x0, symName: __ZNSt3__112__destroy_atB8ne190107IiTnNS_9enable_ifIXntsr8is_arrayIT_EE5valueEiE4typeELi0EEEvPS2_, symObjAddr: 0x9328, symBinAddr: 0x10000BE60, symSize: 0x0 }
  - { offset: 0x6E9B, size: 0x8, addend: 0x0, symName: __ZNSt3__119__libcpp_deallocateB8ne190107EPvmm, symObjAddr: 0x93B0, symBinAddr: 0x10000BEE8, symSize: 0x0 }
  - { offset: 0x6F00, size: 0x8, addend: 0x0, symName: __ZNSt3__127__do_deallocate_handle_sizeB8ne190107IJSt11align_val_tEEEvPvmDpT_, symObjAddr: 0x9418, symBinAddr: 0x10000BF50, symSize: 0x0 }
  - { offset: 0x6F53, size: 0x8, addend: 0x0, symName: __ZNSt3__127__do_deallocate_handle_sizeB8ne190107IJEEEvPvmDpT_, symObjAddr: 0x9454, symBinAddr: 0x10000BF8C, symSize: 0x0 }
  - { offset: 0x6F91, size: 0x8, addend: 0x0, symName: __ZNSt3__124__libcpp_operator_deleteB8ne190107IJPvmSt11align_val_tEEEvDpT_, symObjAddr: 0x9488, symBinAddr: 0x10000BFC0, symSize: 0x0 }
  - { offset: 0x6FEE, size: 0x8, addend: 0x0, symName: __ZNSt3__124__libcpp_operator_deleteB8ne190107IJPvmEEEvDpT_, symObjAddr: 0x94C4, symBinAddr: 0x10000BFFC, symSize: 0x0 }
  - { offset: 0x7037, size: 0x8, addend: 0x0, symName: __ZNSt3__122__make_exception_guardB8ne190107INS_6vectorIiNS_9allocatorIiEEE16__destroy_vectorEEENS_28__exception_guard_exceptionsIT_EES7_, symObjAddr: 0xA52C, symBinAddr: 0x10000D064, symSize: 0x0 }
  - { offset: 0x706C, size: 0x8, addend: 0x0, symName: __ZNSt3__130__uninitialized_allocator_copyB8ne190107INS_9allocatorIiEEPKiS4_PiEET2_RT_T0_T1_S6_, symObjAddr: 0xB32C, symBinAddr: 0x10000DE64, symSize: 0x0 }
  - { offset: 0x7112, size: 0x8, addend: 0x0, symName: __ZNSt3__114__unwrap_rangeB8ne190107IPKiS2_EEDaT_T0_, symObjAddr: 0xB598, symBinAddr: 0x10000E0D0, symSize: 0x0 }
  - { offset: 0x715E, size: 0x8, addend: 0x0, symName: __ZNSt3__135__uninitialized_allocator_copy_implB8ne190107INS_9allocatorIiEEKiiiTnNS_9enable_ifIXaaaaaasr31is_trivially_copy_constructibleIT1_EE5valuesr28is_trivially_copy_assignableIS5_EE5valuesr7is_sameIu14__remove_constIT0_Eu14__remove_constIT2_EEE5valuesr38__allocator_has_trivial_copy_constructIT_S5_EE5valueEiE4typeELi0EEEPS8_RSA_PS6_SF_SD_, symObjAddr: 0xB5DC, symBinAddr: 0x10000E114, symSize: 0x0 }
  - { offset: 0x71DF, size: 0x8, addend: 0x0, symName: __ZNSt3__113__unwrap_iterB8ne190107IPiNS_18__unwrap_iter_implIS1_Lb1EEETnNS_9enable_ifIXsr21is_copy_constructibleIT_EE5valueEiE4typeELi0EEEDTclsrT0_8__unwrapclsr3stdE7declvalIS5_EEEES5_, symObjAddr: 0xB61C, symBinAddr: 0x10000E154, symSize: 0x0 }
  - { offset: 0x7223, size: 0x8, addend: 0x0, symName: __ZNSt3__113__rewrap_iterB8ne190107IPiS1_NS_18__unwrap_iter_implIS1_Lb1EEEEET_S4_T0_, symObjAddr: 0xB648, symBinAddr: 0x10000E180, symSize: 0x0 }
  - { offset: 0x7394, size: 0x8, addend: 0x0, symName: __ZNSt3__113__unwrap_iterB8ne190107IPKiNS_18__unwrap_iter_implIS2_Lb1EEETnNS_9enable_ifIXsr21is_copy_constructibleIT_EE5valueEiE4typeELi0EEEDTclsrT0_8__unwrapclsr3stdE7declvalIS6_EEEES6_, symObjAddr: 0xB8E8, symBinAddr: 0x10000E420, symSize: 0x0 }
  - { offset: 0x742B, size: 0x8, addend: 0x0, symName: __ZNSt3__112__to_addressB8ne190107IKiEEPT_S3_, symObjAddr: 0xB9B4, symBinAddr: 0x10000E4EC, symSize: 0x0 }
  - { offset: 0x7460, size: 0x8, addend: 0x0, symName: __ZNSt3__14copyB8ne190107IPKiPiEET0_T_S5_S4_, symObjAddr: 0xBBA8, symBinAddr: 0x10000E6E0, symSize: 0x0 }
  - { offset: 0x74BD, size: 0x8, addend: 0x0, symName: __ZNSt3__16__copyB8ne190107INS_17_ClassicAlgPolicyEPKiS3_PiEENS_4pairIT0_T2_EES6_T1_S7_, symObjAddr: 0xBDC8, symBinAddr: 0x10000E900, symSize: 0x0 }
  - { offset: 0x7529, size: 0x8, addend: 0x0, symName: __ZNSt3__124__copy_move_unwrap_itersB8ne190107INS_11__copy_implINS_17_ClassicAlgPolicyEEEPKiS5_PiTnNS_9enable_ifIXsr12__can_rewrapIT0_T2_EE5valueEiE4typeELi0EEENS_4pairIS8_S9_EES8_T1_S9_, symObjAddr: 0xBE14, symBinAddr: 0x10000E94C, symSize: 0x0 }
  - { offset: 0x7759, size: 0x8, addend: 0x0, symName: __ZNSt3__19make_pairB8ne190107IPKiPiEENS_4pairINS_18__unwrap_ref_decayIT_E4typeENS5_IT0_E4typeEEEOS6_OS9_, symObjAddr: 0xC240, symBinAddr: 0x10000ED78, symSize: 0x0 }
  - { offset: 0x77AA, size: 0x8, addend: 0x0, symName: __ZNSt3__114__rewrap_rangeB8ne190107IPKiS2_S2_EET0_S3_T1_, symObjAddr: 0xC478, symBinAddr: 0x10000EFB0, symSize: 0x0 }
  - { offset: 0x77FF, size: 0x8, addend: 0x0, symName: __ZNSt3__119__copy_trivial_implB8ne190107IKiiEENS_4pairIPT_PT0_EES4_S4_S6_, symObjAddr: 0xC4AC, symBinAddr: 0x10000EFE4, symSize: 0x0 }
  - { offset: 0x786E, size: 0x8, addend: 0x0, symName: __ZNSt3__119__constexpr_memmoveB8ne190107IiKiTnNS_9enable_ifIXsr23__is_always_bitcastableIT0_T_EE5valueEiE4typeELi0EEEPS4_S7_PS3_NS_15__element_countE, symObjAddr: 0xC7A4, symBinAddr: 0x10000F2DC, symSize: 0x0 }
  - { offset: 0x78DC, size: 0x8, addend: 0x0, symName: __ZNSt3__19make_pairB8ne190107IRPKiPiEENS_4pairINS_18__unwrap_ref_decayIT_E4typeENS6_IT0_E4typeEEEOS7_OSA_, symObjAddr: 0xC868, symBinAddr: 0x10000F3A0, symSize: 0x0 }
  - { offset: 0x792D, size: 0x8, addend: 0x0, symName: __ZNSt3__113__rewrap_iterB8ne190107IPKiS2_NS_18__unwrap_iter_implIS2_Lb1EEEEET_S5_T0_, symObjAddr: 0xCF6C, symBinAddr: 0x10000FAA4, symSize: 0x0 }
  - { offset: 0x79D5, size: 0x8, addend: 0x0, symName: __ZNSt3__130__uninitialized_allocator_copyB8ne190107INS_9allocatorIiEEPiS3_S3_EET2_RT_T0_T1_S4_, symObjAddr: 0xE618, symBinAddr: 0x100011150, symSize: 0x0 }
  - { offset: 0x7A7B, size: 0x8, addend: 0x0, symName: __ZNSt3__114__unwrap_rangeB8ne190107IPiS1_EEDaT_T0_, symObjAddr: 0xE884, symBinAddr: 0x1000113BC, symSize: 0x0 }
  - { offset: 0x7AC7, size: 0x8, addend: 0x0, symName: __ZNSt3__135__uninitialized_allocator_copy_implB8ne190107INS_9allocatorIiEEiiiTnNS_9enable_ifIXaaaaaasr31is_trivially_copy_constructibleIT1_EE5valuesr28is_trivially_copy_assignableIS4_EE5valuesr7is_sameIu14__remove_constIT0_Eu14__remove_constIT2_EEE5valuesr38__allocator_has_trivial_copy_constructIT_S4_EE5valueEiE4typeELi0EEEPS7_RS9_PS5_SE_SC_, symObjAddr: 0xE8C8, symBinAddr: 0x100011400, symSize: 0x0 }
  - { offset: 0x7C93, size: 0x8, addend: 0x0, symName: __ZNSt3__14copyB8ne190107IPiS1_EET0_T_S3_S2_, symObjAddr: 0xEDA4, symBinAddr: 0x1000118DC, symSize: 0x0 }
  - { offset: 0x7CF0, size: 0x8, addend: 0x0, symName: __ZNSt3__16__copyB8ne190107INS_17_ClassicAlgPolicyEPiS2_S2_EENS_4pairIT0_T2_EES4_T1_S5_, symObjAddr: 0xEFC4, symBinAddr: 0x100011AFC, symSize: 0x0 }
  - { offset: 0x7D5C, size: 0x8, addend: 0x0, symName: __ZNSt3__124__copy_move_unwrap_itersB8ne190107INS_11__copy_implINS_17_ClassicAlgPolicyEEEPiS4_S4_TnNS_9enable_ifIXsr12__can_rewrapIT0_T2_EE5valueEiE4typeELi0EEENS_4pairIS6_S7_EES6_T1_S7_, symObjAddr: 0xF010, symBinAddr: 0x100011B48, symSize: 0x0 }
  - { offset: 0x7DF5, size: 0x8, addend: 0x0, symName: __ZNSt3__19make_pairB8ne190107IPiS1_EENS_4pairINS_18__unwrap_ref_decayIT_E4typeENS3_IT0_E4typeEEEOS4_OS7_, symObjAddr: 0xF43C, symBinAddr: 0x100011F74, symSize: 0x0 }
  - { offset: 0x7E46, size: 0x8, addend: 0x0, symName: __ZNSt3__114__rewrap_rangeB8ne190107IPiS1_S1_EET0_S2_T1_, symObjAddr: 0xF674, symBinAddr: 0x1000121AC, symSize: 0x0 }
  - { offset: 0x7E9B, size: 0x8, addend: 0x0, symName: __ZNSt3__119__copy_trivial_implB8ne190107IiiEENS_4pairIPT_PT0_EES3_S3_S5_, symObjAddr: 0xF6A8, symBinAddr: 0x1000121E0, symSize: 0x0 }
  - { offset: 0x7F0A, size: 0x8, addend: 0x0, symName: __ZNSt3__119__constexpr_memmoveB8ne190107IiiTnNS_9enable_ifIXsr23__is_always_bitcastableIT0_T_EE5valueEiE4typeELi0EEEPS3_S6_PS2_NS_15__element_countE, symObjAddr: 0xF9A0, symBinAddr: 0x1000124D8, symSize: 0x0 }
  - { offset: 0x7F78, size: 0x8, addend: 0x0, symName: __ZNSt3__19make_pairB8ne190107IRPiS1_EENS_4pairINS_18__unwrap_ref_decayIT_E4typeENS4_IT0_E4typeEEEOS5_OS8_, symObjAddr: 0xFA64, symBinAddr: 0x10001259C, symSize: 0x0 }
  - { offset: 0x7FC9, size: 0x8, addend: 0x0, symName: __ZNSt3__116__pad_and_outputB8ne190107IcNS_11char_traitsIcEEEENS_19ostreambuf_iteratorIT_T0_EES6_PKS4_S8_S8_RNS_8ios_baseES4_, symObjAddr: 0x10DFC, symBinAddr: 0x100013934, symSize: 0x0 }
  - { offset: 0x80A3, size: 0x8, addend: 0x0, symName: __ZNSt3__112__to_addressB8ne190107IcEEPT_S2_, symObjAddr: 0x124E8, symBinAddr: 0x100015020, symSize: 0x0 }
  - { offset: 0x80D8, size: 0x8, addend: 0x0, symName: __ZNSt3__19use_facetB8ne190107INS_5ctypeIcEEEERKT_RKNS_6localeE, symObjAddr: 0x13894, symBinAddr: 0x1000163CC, symSize: 0x0 }
  - { offset: 0x85A5, size: 0x8, addend: 0x0, symName: __ZNSt3__118__constexpr_strlenB8ne190107IcEEmPKT_, symObjAddr: 0x13CE0, symBinAddr: 0x100016818, symSize: 0x0 }
  - { offset: 0x85DA, size: 0x8, addend: 0x0, symName: __ZNSt3__17getlineB8ne190107IcNS_11char_traitsIcEENS_9allocatorIcEEEERNS_13basic_istreamIT_T0_EES9_RNS_12basic_stringIS6_S7_T1_EES6_, symObjAddr: 0x13D0C, symBinAddr: 0x100016844, symSize: 0x0 }
  - { offset: 0x9AF5, size: 0x8, addend: 0x0, symName: __ZSt28__throw_bad_array_new_lengthB8ne190107v, symObjAddr: 0x82FC, symBinAddr: 0x10000AE34, symSize: 0x0 }
  - { offset: 0xA132, size: 0x8, addend: 0x0, symName: __Z8printVecRNSt3__16vectorIiNS_9allocatorIiEEEE, symObjAddr: 0x8, symBinAddr: 0x100002B40, symSize: 0x0 }
  - { offset: 0xA1B7, size: 0x8, addend: 0x0, symName: __ZNSt3__16vectorIiNS_9allocatorIiEEE5beginB8ne190107Ev, symObjAddr: 0x4B4, symBinAddr: 0x100002FEC, symSize: 0xA8 }
  - { offset: 0xA1DD, size: 0x8, addend: 0x0, symName: __ZNSt3__16vectorIiNS_9allocatorIiEEE3endB8ne190107Ev, symObjAddr: 0x55C, symBinAddr: 0x100003094, symSize: 0xAC }
  - { offset: 0xA203, size: 0x8, addend: 0x0, symName: __ZNKSt3__111__wrap_iterIPiEdeB8ne190107Ev, symObjAddr: 0x6A0, symBinAddr: 0x1000031D8, symSize: 0xD4 }
  - { offset: 0xA229, size: 0x8, addend: 0x0, symName: __ZNSt3__111__wrap_iterIPiEppB8ne190107Ev, symObjAddr: 0x82C, symBinAddr: 0x100003364, symSize: 0x178 }
  - { offset: 0xA24F, size: 0x8, addend: 0x0, symName: __ZNSt3__113basic_ostreamIcNS_11char_traitsIcEEElsB8ne190107EPFRS3_S4_E, symObjAddr: 0x9A4, symBinAddr: 0x1000034DC, symSize: 0x124 }
  - { offset: 0xA282, size: 0x8, addend: 0x0, symName: __Z4mauiNSt3__16vectorIiNS_9allocatorIiEEEE, symObjAddr: 0xE20, symBinAddr: 0x100003958, symSize: 0x0 }
  - { offset: 0xA2C8, size: 0x8, addend: 0x0, symName: __ZNKSt3__16vectorIiNS_9allocatorIiEEE4sizeB8ne190107Ev, symObjAddr: 0x101C, symBinAddr: 0x100003B54, symSize: 0xE0 }
  - { offset: 0xA2EE, size: 0x8, addend: 0x0, symName: __ZNSt3__16vectorIiNS_9allocatorIiEEEixB8ne190107Em, symObjAddr: 0x10FC, symBinAddr: 0x100003C34, symSize: 0x180 }
  - { offset: 0xA324, size: 0x8, addend: 0x0, symName: __Z4sinaRNSt3__16vectorIiNS_9allocatorIiEEEE, symObjAddr: 0x1284, symBinAddr: 0x100003DBC, symSize: 0x0 }
  - { offset: 0xA368, size: 0x8, addend: 0x0, symName: __Z5moanaRNSt3__16vectorIiNS_9allocatorIiEEEE, symObjAddr: 0x148C, symBinAddr: 0x100003FC4, symSize: 0x0 }
  - { offset: 0xA3EC, size: 0x8, addend: 0x0, symName: __Z6heiheiRNSt3__16vectorIiNS_9allocatorIiEEEE, symObjAddr: 0x1830, symBinAddr: 0x100004368, symSize: 0x0 }
  - { offset: 0xA470, size: 0x8, addend: 0x0, symName: __Z6teFitiRNSt3__16vectorIiNS_9allocatorIiEEEE, symObjAddr: 0x1C20, symBinAddr: 0x100004758, symSize: 0x0 }
  - { offset: 0xA501, size: 0x8, addend: 0x0, symName: __ZNSt3__16vectorIiNS_9allocatorIiEEEC1B8ne190107Ev, symObjAddr: 0x2154, symBinAddr: 0x100004C8C, symSize: 0x64 }
  - { offset: 0xA52B, size: 0x8, addend: 0x0, symName: __ZNSt3__16vectorIiNS_9allocatorIiEEE9push_backB8ne190107EOi, symObjAddr: 0x21B8, symBinAddr: 0x100004CF0, symSize: 0x27C }
  - { offset: 0xA571, size: 0x8, addend: 0x0, symName: __ZNSt3__16vectorIiNS_9allocatorIiEEED1B8ne190107Ev, symObjAddr: 0x2434, symBinAddr: 0x100004F6C, symSize: 0x64 }
  - { offset: 0xA59B, size: 0x8, addend: 0x0, symName: _main, symObjAddr: 0x24A0, symBinAddr: 0x100004FD8, symSize: 0x0 }
  - { offset: 0xA5DB, size: 0x8, addend: 0x0, symName: __ZNSt3__16vectorIiNS_9allocatorIiEEEC1B8ne190107ESt16initializer_listIiE, symObjAddr: 0x2DE8, symBinAddr: 0x100005920, symSize: 0x74 }
  - { offset: 0xA616, size: 0x8, addend: 0x0, symName: __ZNSt3__112basic_stringIcNS_11char_traitsIcEENS_9allocatorIcEEEC1B8ne190107Ev, symObjAddr: 0x2E5C, symBinAddr: 0x100005994, symSize: 0x64 }
  - { offset: 0xA640, size: 0x8, addend: 0x0, symName: __ZNSt3__16vectorIiNS_9allocatorIiEEEC1ERKS3_, symObjAddr: 0x3174, symBinAddr: 0x100005CAC, symSize: 0x6C }
  - { offset: 0xA67B, size: 0x8, addend: 0x0, symName: __ZNSt3__16vectorIiNS_9allocatorIiEEE11__make_iterB8ne190107EPi, symObjAddr: 0x31E0, symBinAddr: 0x100005D18, symSize: 0x1E8 }
  - { offset: 0xA6B2, size: 0x8, addend: 0x0, symName: __ZNSt3__111__wrap_iterIPiEC1B8ne190107ES1_, symObjAddr: 0x33C8, symBinAddr: 0x100005F00, symSize: 0x6C }
  - { offset: 0xA6EA, size: 0x8, addend: 0x0, symName: __ZNSt3__111__wrap_iterIPiEC2B8ne190107ES1_, symObjAddr: 0x3434, symBinAddr: 0x100005F6C, symSize: 0xB8 }
  - { offset: 0xA722, size: 0x8, addend: 0x0, symName: __ZNKSt3__111__wrap_iterIPiE4baseB8ne190107Ev, symObjAddr: 0x34EC, symBinAddr: 0x100006024, symSize: 0x9C }
  - { offset: 0xA748, size: 0x8, addend: 0x0, symName: __ZNSt3__16vectorIiNS_9allocatorIiEEEC2B8ne190107Ev, symObjAddr: 0x3588, symBinAddr: 0x1000060C0, symSize: 0x2C4 }
  - { offset: 0xA77F, size: 0x8, addend: 0x0, symName: __ZNSt3__117__compressed_pairIPiNS_9allocatorIiEEEC1B8ne190107IDnNS_18__default_init_tagEEEOT_OT0_, symObjAddr: 0x384C, symBinAddr: 0x100006384, symSize: 0x74 }
  - { offset: 0xA7D7, size: 0x8, addend: 0x0, symName: __ZNSt3__117__compressed_pairIPiNS_9allocatorIiEEEC2B8ne190107IDnNS_18__default_init_tagEEEOT_OT0_, symObjAddr: 0x38D0, symBinAddr: 0x100006408, symSize: 0x104 }
  - { offset: 0xA82F, size: 0x8, addend: 0x0, symName: __ZNSt3__122__compressed_pair_elemIPiLi0ELb0EEC2B8ne190107IDnTnNS_9enable_ifIXntsr7is_sameIS2_u7__decayIT_EEE5valueEiE4typeELi0EEEOS5_, symObjAddr: 0x39D4, symBinAddr: 0x10000650C, symSize: 0xAC }
  - { offset: 0xA876, size: 0x8, addend: 0x0, symName: __ZNSt3__122__compressed_pair_elemINS_9allocatorIiEELi1ELb1EEC2B8ne190107ENS_18__default_init_tagE, symObjAddr: 0x3A80, symBinAddr: 0x1000065B8, symSize: 0x70 }
  - { offset: 0xA8AB, size: 0x8, addend: 0x0, symName: __ZNSt3__19allocatorIiEC2B8ne190107Ev, symObjAddr: 0x3AF0, symBinAddr: 0x100006628, symSize: 0x70 }
  - { offset: 0xA8D5, size: 0x8, addend: 0x0, symName: __ZNSt3__116__non_trivial_ifILb1ENS_9allocatorIiEEEC2B8ne190107Ev, symObjAddr: 0x3B60, symBinAddr: 0x100006698, symSize: 0x48 }
  - { offset: 0xA8FF, size: 0x8, addend: 0x0, symName: __ZNSt3__16vectorIiNS_9allocatorIiEEE9__end_capB8ne190107Ev, symObjAddr: 0x3BA8, symBinAddr: 0x1000066E0, symSize: 0xD8 }
  - { offset: 0xA92B, size: 0x8, addend: 0x0, symName: __ZNSt3__16vectorIiNS_9allocatorIiEEE22__construct_one_at_endB8ne190107IJiEEEvDpOT_, symObjAddr: 0x3C80, symBinAddr: 0x1000067B8, symSize: 0x440 }
  - { offset: 0xA980, size: 0x8, addend: 0x0, symName: __ZNSt3__16vectorIiNS_9allocatorIiEEE21__push_back_slow_pathIiEEPiOT_, symObjAddr: 0x40C0, symBinAddr: 0x100006BF8, symSize: 0x4E4 }
  - { offset: 0xA9E3, size: 0x8, addend: 0x0, symName: __ZNSt3__117__compressed_pairIPiNS_9allocatorIiEEE5firstB8ne190107Ev, symObjAddr: 0x45A4, symBinAddr: 0x1000070DC, symSize: 0xEC }
  - { offset: 0xAA09, size: 0x8, addend: 0x0, symName: __ZNSt3__122__compressed_pair_elemIPiLi0ELb0EE5__getB8ne190107Ev, symObjAddr: 0x4690, symBinAddr: 0x1000071C8, symSize: 0x8C }
  - { offset: 0xAA48, size: 0x8, addend: 0x0, symName: __ZNSt3__16vectorIiNS_9allocatorIiEEE21_ConstructTransactionC1B8ne190107ERS3_m, symObjAddr: 0x471C, symBinAddr: 0x100007254, symSize: 0x74 }
  - { offset: 0xAA90, size: 0x8, addend: 0x0, symName: __ZNSt3__116allocator_traitsINS_9allocatorIiEEE9constructB8ne190107IiJiEvTnNS_9enable_ifIXntsr15__has_constructIS2_PT_DpT0_EE5valueEiE4typeELi0EEEvRS2_S7_DpOS8_, symObjAddr: 0x4798, symBinAddr: 0x1000072D0, symSize: 0x0 }
  - { offset: 0xAAE9, size: 0x8, addend: 0x0, symName: __ZNSt3__16vectorIiNS_9allocatorIiEEE7__allocB8ne190107Ev, symObjAddr: 0x4808, symBinAddr: 0x100007340, symSize: 0xC4 }
  - { offset: 0xAB0F, size: 0x8, addend: 0x0, symName: __ZNSt3__16vectorIiNS_9allocatorIiEEE21_ConstructTransactionD1B8ne190107Ev, symObjAddr: 0x48E8, symBinAddr: 0x100007420, symSize: 0x64 }
  - { offset: 0xAB39, size: 0x8, addend: 0x0, symName: __ZNSt3__16vectorIiNS_9allocatorIiEEE21_ConstructTransactionC2B8ne190107ERS3_m, symObjAddr: 0x494C, symBinAddr: 0x100007484, symSize: 0x34C }
  - { offset: 0xAB81, size: 0x8, addend: 0x0, symName: __ZNKSt3__16vectorIiNS_9allocatorIiEEE19__annotate_increaseB8ne190107Em, symObjAddr: 0x4C98, symBinAddr: 0x1000077D0, symSize: 0x2B0 }
  - { offset: 0xABB6, size: 0x8, addend: 0x0, symName: __ZNKSt3__16vectorIiNS_9allocatorIiEEE31__annotate_contiguous_containerB8ne190107EPKvS5_, symObjAddr: 0x4F48, symBinAddr: 0x100007A80, symSize: 0x144 }
  - { offset: 0xABFA, size: 0x8, addend: 0x0, symName: __ZNKSt3__16vectorIiNS_9allocatorIiEEE4dataB8ne190107Ev, symObjAddr: 0x508C, symBinAddr: 0x100007BC4, symSize: 0xA0 }
  - { offset: 0xAC20, size: 0x8, addend: 0x0, symName: __ZNKSt3__16vectorIiNS_9allocatorIiEEE8capacityB8ne190107Ev, symObjAddr: 0x5180, symBinAddr: 0x100007CB8, symSize: 0x124 }
  - { offset: 0xAC46, size: 0x8, addend: 0x0, symName: __ZNKSt3__16vectorIiNS_9allocatorIiEEE9__end_capB8ne190107Ev, symObjAddr: 0x52A4, symBinAddr: 0x100007DDC, symSize: 0xD8 }
  - { offset: 0xAC6C, size: 0x8, addend: 0x0, symName: __ZNKSt3__117__compressed_pairIPiNS_9allocatorIiEEE5firstB8ne190107Ev, symObjAddr: 0x537C, symBinAddr: 0x100007EB4, symSize: 0xEC }
  - { offset: 0xAC92, size: 0x8, addend: 0x0, symName: __ZNKSt3__122__compressed_pair_elemIPiLi0ELb0EE5__getB8ne190107Ev, symObjAddr: 0x5468, symBinAddr: 0x100007FA0, symSize: 0x8C }
  - { offset: 0xACB8, size: 0x8, addend: 0x0, symName: __ZNSt3__117__compressed_pairIPiNS_9allocatorIiEEE6secondB8ne190107Ev, symObjAddr: 0x5710, symBinAddr: 0x100008248, symSize: 0xC4 }
  - { offset: 0xACDE, size: 0x8, addend: 0x0, symName: __ZNSt3__122__compressed_pair_elemINS_9allocatorIiEELi1ELb1EE5__getB8ne190107Ev, symObjAddr: 0x57D4, symBinAddr: 0x10000830C, symSize: 0x64 }
  - { offset: 0xAD04, size: 0x8, addend: 0x0, symName: __ZNSt3__16vectorIiNS_9allocatorIiEEE21_ConstructTransactionD2B8ne190107Ev, symObjAddr: 0x5838, symBinAddr: 0x100008370, symSize: 0x31C }
  - { offset: 0xAD2E, size: 0x8, addend: 0x0, symName: __ZNKSt3__16vectorIiNS_9allocatorIiEEE17__annotate_shrinkB8ne190107Em, symObjAddr: 0x5B54, symBinAddr: 0x10000868C, symSize: 0x1F0 }
  - { offset: 0xAD63, size: 0x8, addend: 0x0, symName: __ZNKSt3__16vectorIiNS_9allocatorIiEEE11__recommendB8ne190107Em, symObjAddr: 0x5D44, symBinAddr: 0x10000887C, symSize: 0x378 }
  - { offset: 0xADBF, size: 0x8, addend: 0x0, symName: __ZNSt3__114__split_bufferIiRNS_9allocatorIiEEEC1EmmS3_, symObjAddr: 0x60BC, symBinAddr: 0x100008BF4, symSize: 0x7C }
  - { offset: 0xAE15, size: 0x8, addend: 0x0, symName: __ZNSt3__16vectorIiNS_9allocatorIiEEE26__swap_out_circular_bufferERNS_14__split_bufferIiRS2_EE, symObjAddr: 0x6138, symBinAddr: 0x100008C70, symSize: 0x658 }
  - { offset: 0xAE5B, size: 0x8, addend: 0x0, symName: __ZNSt3__114__split_bufferIiRNS_9allocatorIiEEED1Ev, symObjAddr: 0x6790, symBinAddr: 0x1000092C8, symSize: 0x64 }
  - { offset: 0xAE87, size: 0x8, addend: 0x0, symName: __ZNKSt3__16vectorIiNS_9allocatorIiEEE8max_sizeEv, symObjAddr: 0x67F4, symBinAddr: 0x10000932C, symSize: 0x2FC }
  - { offset: 0xAEB0, size: 0x8, addend: 0x0, symName: __ZNKSt3__16vectorIiNS_9allocatorIiEEE20__throw_length_errorB8ne190107Ev, symObjAddr: 0x6AF0, symBinAddr: 0x100009628, symSize: 0x74 }
  - { offset: 0xAEE0, size: 0x8, addend: 0x0, symName: __ZNSt3__116allocator_traitsINS_9allocatorIiEEE8max_sizeB8ne190107IS2_vTnNS_9enable_ifIXntsr14__has_max_sizeIKT_EE5valueEiE4typeELi0EEEmRKS2_, symObjAddr: 0x6D24, symBinAddr: 0x10000985C, symSize: 0x0 }
  - { offset: 0xAF10, size: 0x8, addend: 0x0, symName: __ZNKSt3__16vectorIiNS_9allocatorIiEEE7__allocB8ne190107Ev, symObjAddr: 0x6D78, symBinAddr: 0x1000098B0, symSize: 0xC4 }
  - { offset: 0xAF36, size: 0x8, addend: 0x0, symName: __ZNSt3__114numeric_limitsIlE3maxB8ne190107Ev, symObjAddr: 0x6E44, symBinAddr: 0x10000997C, symSize: 0x0 }
  - { offset: 0xAF5E, size: 0x8, addend: 0x0, symName: __ZNKSt3__16__lessIvvEclB8ne190107ImmEEbRKT_RKT0_, symObjAddr: 0x70D0, symBinAddr: 0x100009C08, symSize: 0xD0 }
  - { offset: 0xAFB2, size: 0x8, addend: 0x0, symName: __ZNSt3__114numeric_limitsImE3maxB8ne190107Ev, symObjAddr: 0x71A8, symBinAddr: 0x100009CE0, symSize: 0x0 }
  - { offset: 0xAFC6, size: 0x8, addend: 0x0, symName: __ZNSt3__123__libcpp_numeric_limitsImLb1EE3maxB8ne190107Ev, symObjAddr: 0x71C4, symBinAddr: 0x100009CFC, symSize: 0x0 }
  - { offset: 0xAFDA, size: 0x8, addend: 0x0, symName: __ZNKSt3__117__compressed_pairIPiNS_9allocatorIiEEE6secondB8ne190107Ev, symObjAddr: 0x71CC, symBinAddr: 0x100009D04, symSize: 0xC4 }
  - { offset: 0xB000, size: 0x8, addend: 0x0, symName: __ZNKSt3__122__compressed_pair_elemINS_9allocatorIiEELi1ELb1EE5__getB8ne190107Ev, symObjAddr: 0x7290, symBinAddr: 0x100009DC8, symSize: 0x64 }
  - { offset: 0xB026, size: 0x8, addend: 0x0, symName: __ZNSt3__123__libcpp_numeric_limitsIlLb1EE3maxB8ne190107Ev, symObjAddr: 0x72FC, symBinAddr: 0x100009E34, symSize: 0x0 }
  - { offset: 0xB03A, size: 0x8, addend: 0x0, symName: __ZNSt12length_errorC1B8ne190107EPKc, symObjAddr: 0x73B0, symBinAddr: 0x100009EE8, symSize: 0x6C }
  - { offset: 0xB072, size: 0x8, addend: 0x0, symName: __ZNSt12length_errorC2B8ne190107EPKc, symObjAddr: 0x741C, symBinAddr: 0x100009F54, symSize: 0x108 }
  - { offset: 0xB0AA, size: 0x8, addend: 0x0, symName: __ZNSt3__114__split_bufferIiRNS_9allocatorIiEEEC2EmmS3_, symObjAddr: 0x779C, symBinAddr: 0x10000A2D4, symSize: 0x620 }
  - { offset: 0xB125, size: 0x8, addend: 0x0, symName: __ZNSt3__117__compressed_pairIPiRNS_9allocatorIiEEEC1B8ne190107IDnS4_EEOT_OT0_, symObjAddr: 0x7DBC, symBinAddr: 0x10000A8F4, symSize: 0x74 }
  - { offset: 0xB17D, size: 0x8, addend: 0x0, symName: __ZNSt3__114__split_bufferIiRNS_9allocatorIiEEE7__allocB8ne190107Ev, symObjAddr: 0x7E78, symBinAddr: 0x10000A9B0, symSize: 0xC4 }
  - { offset: 0xB1A3, size: 0x8, addend: 0x0, symName: __ZNSt3__114__split_bufferIiRNS_9allocatorIiEEE9__end_capB8ne190107Ev, symObjAddr: 0x7F3C, symBinAddr: 0x10000AA74, symSize: 0xD8 }
  - { offset: 0xB1C9, size: 0x8, addend: 0x0, symName: __ZNSt3__117__compressed_pairIPiRNS_9allocatorIiEEEC2B8ne190107IDnS4_EEOT_OT0_, symObjAddr: 0x8014, symBinAddr: 0x10000AB4C, symSize: 0x154 }
  - { offset: 0xB221, size: 0x8, addend: 0x0, symName: __ZNSt3__122__compressed_pair_elemIRNS_9allocatorIiEELi1ELb0EEC2B8ne190107IS3_TnNS_9enable_ifIXntsr7is_sameIS4_u7__decayIT_EEE5valueEiE4typeELi0EEEOS7_, symObjAddr: 0x8168, symBinAddr: 0x10000ACA0, symSize: 0xD4 }
  - { offset: 0xB268, size: 0x8, addend: 0x0, symName: __ZNSt3__19allocatorIiE8allocateB8ne190107Em, symObjAddr: 0x823C, symBinAddr: 0x10000AD74, symSize: 0xB8 }
  - { offset: 0xB29C, size: 0x8, addend: 0x0, symName: __ZNSt3__117__compressed_pairIPiRNS_9allocatorIiEEE6secondB8ne190107Ev, symObjAddr: 0x8490, symBinAddr: 0x10000AFC8, symSize: 0xE8 }
  - { offset: 0xB2C2, size: 0x8, addend: 0x0, symName: __ZNSt3__122__compressed_pair_elemIRNS_9allocatorIiEELi1ELb0EE5__getB8ne190107Ev, symObjAddr: 0x8578, symBinAddr: 0x10000B0B0, symSize: 0xC0 }
  - { offset: 0xB2E8, size: 0x8, addend: 0x0, symName: __ZNSt3__117__compressed_pairIPiRNS_9allocatorIiEEE5firstB8ne190107Ev, symObjAddr: 0x8638, symBinAddr: 0x10000B170, symSize: 0xEC }
  - { offset: 0xB30E, size: 0x8, addend: 0x0, symName: __ZNKSt3__16vectorIiNS_9allocatorIiEEE17__annotate_deleteB8ne190107Ev, symObjAddr: 0x8724, symBinAddr: 0x10000B25C, symSize: 0x200 }
  - { offset: 0xB334, size: 0x8, addend: 0x0, symName: __ZNKSt3__16vectorIiNS_9allocatorIiEEE14__annotate_newB8ne190107Em, symObjAddr: 0x8B6C, symBinAddr: 0x10000B6A4, symSize: 0x1F0 }
  - { offset: 0xB369, size: 0x8, addend: 0x0, symName: __ZNSt3__114__split_bufferIiRNS_9allocatorIiEEED2Ev, symObjAddr: 0x8D5C, symBinAddr: 0x10000B894, symSize: 0x144 }
  - { offset: 0xB395, size: 0x8, addend: 0x0, symName: __ZNSt3__114__split_bufferIiRNS_9allocatorIiEEE5clearB8ne190107Ev, symObjAddr: 0x8EA0, symBinAddr: 0x10000B9D8, symSize: 0xA4 }
  - { offset: 0xB3BB, size: 0x8, addend: 0x0, symName: __ZNSt3__116allocator_traitsINS_9allocatorIiEEE10deallocateB8ne190107ERS2_Pim, symObjAddr: 0x8F4C, symBinAddr: 0x10000BA84, symSize: 0x0 }
  - { offset: 0xB3FD, size: 0x8, addend: 0x0, symName: __ZNKSt3__114__split_bufferIiRNS_9allocatorIiEEE8capacityB8ne190107Ev, symObjAddr: 0x8F80, symBinAddr: 0x10000BAB8, symSize: 0x124 }
  - { offset: 0xB423, size: 0x8, addend: 0x0, symName: __ZNSt3__114__split_bufferIiRNS_9allocatorIiEEE17__destruct_at_endB8ne190107EPi, symObjAddr: 0x90A4, symBinAddr: 0x10000BBDC, symSize: 0x64 }
  - { offset: 0xB457, size: 0x8, addend: 0x0, symName: __ZNSt3__114__split_bufferIiRNS_9allocatorIiEEE17__destruct_at_endB8ne190107EPiNS_17integral_constantIbLb0EEE, symObjAddr: 0x9108, symBinAddr: 0x10000BC40, symSize: 0x1E8 }
  - { offset: 0xB498, size: 0x8, addend: 0x0, symName: __ZNSt3__116allocator_traitsINS_9allocatorIiEEE7destroyB8ne190107IivTnNS_9enable_ifIXntsr13__has_destroyIS2_PT_EE5valueEiE4typeELi0EEEvRS2_S7_, symObjAddr: 0x92F8, symBinAddr: 0x10000BE30, symSize: 0x0 }
  - { offset: 0xB4D7, size: 0x8, addend: 0x0, symName: __ZNSt3__19allocatorIiE10deallocateB8ne190107EPim, symObjAddr: 0x9338, symBinAddr: 0x10000BE70, symSize: 0x70 }
  - { offset: 0xB519, size: 0x8, addend: 0x0, symName: __ZNKSt3__114__split_bufferIiRNS_9allocatorIiEEE9__end_capB8ne190107Ev, symObjAddr: 0x94F0, symBinAddr: 0x10000C028, symSize: 0xD8 }
  - { offset: 0xB53F, size: 0x8, addend: 0x0, symName: __ZNKSt3__117__compressed_pairIPiRNS_9allocatorIiEEE5firstB8ne190107Ev, symObjAddr: 0x95C8, symBinAddr: 0x10000C100, symSize: 0xEC }
  - { offset: 0xB565, size: 0x8, addend: 0x0, symName: __ZNSt3__16vectorIiNS_9allocatorIiEEED2B8ne190107Ev, symObjAddr: 0x96B4, symBinAddr: 0x10000C1EC, symSize: 0x254 }
  - { offset: 0xB590, size: 0x8, addend: 0x0, symName: __ZNSt3__16vectorIiNS_9allocatorIiEEE16__destroy_vectorC1B8ne190107ERS3_, symObjAddr: 0x9908, symBinAddr: 0x10000C440, symSize: 0x6C }
  - { offset: 0xB5C9, size: 0x8, addend: 0x0, symName: __ZNSt3__16vectorIiNS_9allocatorIiEEE16__destroy_vectorclB8ne190107Ev, symObjAddr: 0x9974, symBinAddr: 0x10000C4AC, symSize: 0x39C }
  - { offset: 0xB5EF, size: 0x8, addend: 0x0, symName: __ZNSt3__16vectorIiNS_9allocatorIiEEE16__destroy_vectorC2B8ne190107ERS3_, symObjAddr: 0x9D10, symBinAddr: 0x10000C848, symSize: 0xE8 }
  - { offset: 0xB628, size: 0x8, addend: 0x0, symName: __ZNSt3__16vectorIiNS_9allocatorIiEEE7__clearB8ne190107Ev, symObjAddr: 0x9DF8, symBinAddr: 0x10000C930, symSize: 0xA0 }
  - { offset: 0xB64E, size: 0x8, addend: 0x0, symName: __ZNSt3__16vectorIiNS_9allocatorIiEEE22__base_destruct_at_endB8ne190107EPi, symObjAddr: 0x9E98, symBinAddr: 0x10000C9D0, symSize: 0x1C8 }
  - { offset: 0xB692, size: 0x8, addend: 0x0, symName: __ZNSt3__16vectorIiNS_9allocatorIiEEEC2B8ne190107ESt16initializer_listIiE, symObjAddr: 0xA060, symBinAddr: 0x10000CB98, symSize: 0x4C4 }
  - { offset: 0xB6EB, size: 0x8, addend: 0x0, symName: __ZNKSt16initializer_listIiE4sizeB8ne190107Ev, symObjAddr: 0xA5A0, symBinAddr: 0x10000D0D8, symSize: 0xA0 }
  - { offset: 0xB711, size: 0x8, addend: 0x0, symName: __ZNSt3__16vectorIiNS_9allocatorIiEEE11__vallocateB8ne190107Em, symObjAddr: 0xA640, symBinAddr: 0x10000D178, symSize: 0x484 }
  - { offset: 0xB75B, size: 0x8, addend: 0x0, symName: __ZNSt3__16vectorIiNS_9allocatorIiEEE18__construct_at_endIPKiS6_EEvT_T0_m, symObjAddr: 0xAAC4, symBinAddr: 0x10000D5FC, symSize: 0x3D4 }
  - { offset: 0xB7D7, size: 0x8, addend: 0x0, symName: __ZNKSt16initializer_listIiE5beginB8ne190107Ev, symObjAddr: 0xAE98, symBinAddr: 0x10000D9D0, symSize: 0x9C }
  - { offset: 0xB7FD, size: 0x8, addend: 0x0, symName: __ZNKSt16initializer_listIiE3endB8ne190107Ev, symObjAddr: 0xAF34, symBinAddr: 0x10000DA6C, symSize: 0x17C }
  - { offset: 0xB823, size: 0x8, addend: 0x0, symName: __ZNSt3__128__exception_guard_exceptionsINS_6vectorIiNS_9allocatorIiEEE16__destroy_vectorEE10__completeB8ne190107Ev, symObjAddr: 0xB0B0, symBinAddr: 0x10000DBE8, symSize: 0xC4 }
  - { offset: 0xB849, size: 0x8, addend: 0x0, symName: __ZNSt3__128__exception_guard_exceptionsINS_6vectorIiNS_9allocatorIiEEE16__destroy_vectorEED1B8ne190107Ev, symObjAddr: 0xB174, symBinAddr: 0x10000DCAC, symSize: 0x64 }
  - { offset: 0xB873, size: 0x8, addend: 0x0, symName: __ZNSt3__128__exception_guard_exceptionsINS_6vectorIiNS_9allocatorIiEEE16__destroy_vectorEEC1B8ne190107ES5_, symObjAddr: 0xB1D8, symBinAddr: 0x10000DD10, symSize: 0x6C }
  - { offset: 0xB8AB, size: 0x8, addend: 0x0, symName: __ZNSt3__128__exception_guard_exceptionsINS_6vectorIiNS_9allocatorIiEEE16__destroy_vectorEEC2B8ne190107ES5_, symObjAddr: 0xB244, symBinAddr: 0x10000DD7C, symSize: 0xE0 }
  - { offset: 0xB8FD, size: 0x8, addend: 0x0, symName: __ZNSt3__119__unwrap_range_implIPKiS2_E8__unwrapB8ne190107ES2_S2_, symObjAddr: 0xB698, symBinAddr: 0x10000E1D0, symSize: 0x0 }
  - { offset: 0xB936, size: 0x8, addend: 0x0, symName: __ZNSt3__14pairIPKiS2_EC1B8ne190107IS2_S2_TnNS_9enable_ifIXclsr10_CheckArgsE23__is_pair_constructibleIT_T0_EEEiE4typeELi0EEEOS6_OS7_, symObjAddr: 0xB90C, symBinAddr: 0x10000E444, symSize: 0x74 }
  - { offset: 0xB994, size: 0x8, addend: 0x0, symName: __ZNSt3__118__unwrap_iter_implIPKiLb1EE8__unwrapB8ne190107ES2_, symObjAddr: 0xB988, symBinAddr: 0x10000E4C0, symSize: 0x0 }
  - { offset: 0xB9B7, size: 0x8, addend: 0x0, symName: __ZNSt3__14pairIPKiS2_EC2B8ne190107IS2_S2_TnNS_9enable_ifIXclsr10_CheckArgsE23__is_pair_constructibleIT_T0_EEEiE4typeELi0EEEOS6_OS7_, symObjAddr: 0xB9C8, symBinAddr: 0x10000E500, symSize: 0x1D8 }
  - { offset: 0xBA39, size: 0x8, addend: 0x0, symName: __ZNKSt3__111__copy_implINS_17_ClassicAlgPolicyEEclB8ne190107IKiiTnNS_9enable_ifIXsr38__can_lower_copy_assignment_to_memmoveIT_T0_EE5valueEiE4typeELi0EEENS_4pairIPS6_PS7_EESB_SB_SC_, symObjAddr: 0xC1CC, symBinAddr: 0x10000ED04, symSize: 0x6C }
  - { offset: 0xBAAC, size: 0x8, addend: 0x0, symName: __ZNSt3__14pairIPKiPiEC1B8ne190107IRS2_S3_TnNS_9enable_ifIXclsr10_CheckArgsE23__is_pair_constructibleIT_T0_EEEiE4typeELi0EEEOS8_OS9_, symObjAddr: 0xCA98, symBinAddr: 0x10000F5D0, symSize: 0x74 }
  - { offset: 0xBB0A, size: 0x8, addend: 0x0, symName: __ZNSt3__14pairIPKiPiEC2B8ne190107IRS2_S3_TnNS_9enable_ifIXclsr10_CheckArgsE23__is_pair_constructibleIT_T0_EEEiE4typeELi0EEEOS8_OS9_, symObjAddr: 0xCB0C, symBinAddr: 0x10000F644, symSize: 0x1D8 }
  - { offset: 0xBB68, size: 0x8, addend: 0x0, symName: __ZNSt3__14pairIPKiPiEC1B8ne190107IS2_S3_TnNS_9enable_ifIXclsr10_CheckArgsE23__is_pair_constructibleIT_T0_EEEiE4typeELi0EEEOS7_OS8_, symObjAddr: 0xCCE4, symBinAddr: 0x10000F81C, symSize: 0x74 }
  - { offset: 0xBBC6, size: 0x8, addend: 0x0, symName: __ZNSt3__14pairIPKiPiEC2B8ne190107IS2_S3_TnNS_9enable_ifIXclsr10_CheckArgsE23__is_pair_constructibleIT_T0_EEEiE4typeELi0EEEOS7_OS8_, symObjAddr: 0xCD58, symBinAddr: 0x10000F890, symSize: 0x1D8 }
  - { offset: 0xBC24, size: 0x8, addend: 0x0, symName: __ZNSt3__119__unwrap_range_implIPKiS2_E8__rewrapB8ne190107ES2_S2_, symObjAddr: 0xCF38, symBinAddr: 0x10000FA70, symSize: 0x0 }
  - { offset: 0xBC55, size: 0x8, addend: 0x0, symName: __ZNSt3__118__unwrap_iter_implIPKiLb1EE8__rewrapB8ne190107ES2_S2_, symObjAddr: 0xCFBC, symBinAddr: 0x10000FAF4, symSize: 0x0 }
  - { offset: 0xBC86, size: 0x8, addend: 0x0, symName: __ZNSt3__118__unwrap_iter_implIPiLb1EE8__unwrapB8ne190107ES1_, symObjAddr: 0xD0C8, symBinAddr: 0x10000FC00, symSize: 0x0 }
  - { offset: 0xBCA9, size: 0x8, addend: 0x0, symName: __ZNSt3__118__unwrap_iter_implIPiLb1EE8__rewrapB8ne190107ES1_S1_, symObjAddr: 0xD0F4, symBinAddr: 0x10000FC2C, symSize: 0x0 }
  - { offset: 0xBCDA, size: 0x8, addend: 0x0, symName: __ZNSt3__128__exception_guard_exceptionsINS_6vectorIiNS_9allocatorIiEEE16__destroy_vectorEED2B8ne190107Ev, symObjAddr: 0xD1F8, symBinAddr: 0x10000FD30, symSize: 0x144 }
  - { offset: 0xBD04, size: 0x8, addend: 0x0, symName: __ZNSt3__112basic_stringIcNS_11char_traitsIcEENS_9allocatorIcEEEC2B8ne190107Ev, symObjAddr: 0xD33C, symBinAddr: 0x10000FE74, symSize: 0x240 }
  - { offset: 0xBD35, size: 0x8, addend: 0x0, symName: __ZNSt3__117__compressed_pairINS_12basic_stringIcNS_11char_traitsIcEENS_9allocatorIcEEE5__repES5_EC1B8ne190107INS_16__value_init_tagENS_18__default_init_tagEEEOT_OT0_, symObjAddr: 0xD57C, symBinAddr: 0x1000100B4, symSize: 0x74 }
  - { offset: 0xBD8D, size: 0x8, addend: 0x0, symName: __ZNKSt3__112basic_stringIcNS_11char_traitsIcEENS_9allocatorIcEEE14__annotate_newB8ne190107Em, symObjAddr: 0xD5F0, symBinAddr: 0x100010128, symSize: 0x58 }
  - { offset: 0xBDC2, size: 0x8, addend: 0x0, symName: __ZNSt3__117__compressed_pairINS_12basic_stringIcNS_11char_traitsIcEENS_9allocatorIcEEE5__repES5_EC2B8ne190107INS_16__value_init_tagENS_18__default_init_tagEEEOT_OT0_, symObjAddr: 0xD648, symBinAddr: 0x100010180, symSize: 0xC8 }
  - { offset: 0xBE1A, size: 0x8, addend: 0x0, symName: __ZNSt3__122__compressed_pair_elemINS_12basic_stringIcNS_11char_traitsIcEENS_9allocatorIcEEE5__repELi0ELb0EEC2B8ne190107ENS_16__value_init_tagE, symObjAddr: 0xD710, symBinAddr: 0x100010248, symSize: 0x6C }
  - { offset: 0xBE4F, size: 0x8, addend: 0x0, symName: __ZNSt3__122__compressed_pair_elemINS_9allocatorIcEELi1ELb1EEC2B8ne190107ENS_18__default_init_tagE, symObjAddr: 0xD77C, symBinAddr: 0x1000102B4, symSize: 0x70 }
  - { offset: 0xBE84, size: 0x8, addend: 0x0, symName: __ZNSt3__19allocatorIcEC2B8ne190107Ev, symObjAddr: 0xD7EC, symBinAddr: 0x100010324, symSize: 0x70 }
  - { offset: 0xBEAE, size: 0x8, addend: 0x0, symName: __ZNSt3__116__non_trivial_ifILb1ENS_9allocatorIcEEEC2B8ne190107Ev, symObjAddr: 0xD85C, symBinAddr: 0x100010394, symSize: 0x48 }
  - { offset: 0xBED8, size: 0x8, addend: 0x0, symName: __ZNSt3__16vectorIiNS_9allocatorIiEEEC2ERKS3_, symObjAddr: 0xD8A4, symBinAddr: 0x1000103DC, symSize: 0x424 }
  - { offset: 0xBF15, size: 0x8, addend: 0x0, symName: __ZNSt3__116allocator_traitsINS_9allocatorIiEEE37select_on_container_copy_constructionB8ne190107IS2_vTnNS_9enable_ifIXntsr43__has_select_on_container_copy_constructionIKT_EE5valueEiE4typeELi0EEES2_RKS2_, symObjAddr: 0xDCD0, symBinAddr: 0x100010808, symSize: 0x0 }
  - { offset: 0xBF4F, size: 0x8, addend: 0x0, symName: __ZNSt3__117__compressed_pairIPiNS_9allocatorIiEEEC1B8ne190107IDnS3_EEOT_OT0_, symObjAddr: 0xDCE0, symBinAddr: 0x100010818, symSize: 0x74 }
  - { offset: 0xBFA7, size: 0x8, addend: 0x0, symName: __ZNSt3__16vectorIiNS_9allocatorIiEEE16__init_with_sizeB8ne190107IPiS5_EEvT_T0_m, symObjAddr: 0xDD54, symBinAddr: 0x10001088C, symSize: 0x370 }
  - { offset: 0xC023, size: 0x8, addend: 0x0, symName: __ZNSt3__117__compressed_pairIPiNS_9allocatorIiEEEC2B8ne190107IDnS3_EEOT_OT0_, symObjAddr: 0xE0C4, symBinAddr: 0x100010BFC, symSize: 0x12C }
  - { offset: 0xC07B, size: 0x8, addend: 0x0, symName: __ZNSt3__122__compressed_pair_elemINS_9allocatorIiEELi1ELb1EEC2B8ne190107IS2_TnNS_9enable_ifIXntsr7is_sameIS3_u7__decayIT_EEE5valueEiE4typeELi0EEEOS6_, symObjAddr: 0xE1F0, symBinAddr: 0x100010D28, symSize: 0x4C }
  - { offset: 0xC0C2, size: 0x8, addend: 0x0, symName: __ZNSt3__16vectorIiNS_9allocatorIiEEE18__construct_at_endIPiS5_EEvT_T0_m, symObjAddr: 0xE23C, symBinAddr: 0x100010D74, symSize: 0x3D4 }
  - { offset: 0xC158, size: 0x8, addend: 0x0, symName: __ZNSt3__119__unwrap_range_implIPiS1_E8__unwrapB8ne190107ES1_S1_, symObjAddr: 0xE908, symBinAddr: 0x100011440, symSize: 0x0 }
  - { offset: 0xC18B, size: 0x8, addend: 0x0, symName: __ZNSt3__14pairIPiS1_EC1B8ne190107IS1_S1_TnNS_9enable_ifIXclsr10_CheckArgsE23__is_pair_constructibleIT_T0_EEEiE4typeELi0EEEOS5_OS6_, symObjAddr: 0xEB50, symBinAddr: 0x100011688, symSize: 0x74 }
  - { offset: 0xC1E9, size: 0x8, addend: 0x0, symName: __ZNSt3__14pairIPiS1_EC2B8ne190107IS1_S1_TnNS_9enable_ifIXclsr10_CheckArgsE23__is_pair_constructibleIT_T0_EEEiE4typeELi0EEEOS5_OS6_, symObjAddr: 0xEBC4, symBinAddr: 0x1000116FC, symSize: 0x1D8 }
  - { offset: 0xC247, size: 0x8, addend: 0x0, symName: __ZNKSt3__111__copy_implINS_17_ClassicAlgPolicyEEclB8ne190107IiiTnNS_9enable_ifIXsr38__can_lower_copy_assignment_to_memmoveIT_T0_EE5valueEiE4typeELi0EEENS_4pairIPS5_PS6_EESA_SA_SB_, symObjAddr: 0xF3C8, symBinAddr: 0x100011F00, symSize: 0x6C }
  - { offset: 0xC2AF, size: 0x8, addend: 0x0, symName: __ZNSt3__14pairIPiS1_EC1B8ne190107IRS1_S1_TnNS_9enable_ifIXclsr10_CheckArgsE23__is_pair_constructibleIT_T0_EEEiE4typeELi0EEEOS6_OS7_, symObjAddr: 0xFC94, symBinAddr: 0x1000127CC, symSize: 0x74 }
  - { offset: 0xC30D, size: 0x8, addend: 0x0, symName: __ZNSt3__14pairIPiS1_EC2B8ne190107IRS1_S1_TnNS_9enable_ifIXclsr10_CheckArgsE23__is_pair_constructibleIT_T0_EEEiE4typeELi0EEEOS6_OS7_, symObjAddr: 0xFD08, symBinAddr: 0x100012840, symSize: 0x1D8 }
  - { offset: 0xC36B, size: 0x8, addend: 0x0, symName: __ZNSt3__119__unwrap_range_implIPiS1_E8__rewrapB8ne190107ES1_S1_, symObjAddr: 0xFEE8, symBinAddr: 0x100012A20, symSize: 0x0 }
  - { offset: 0xC39C, size: 0x8, addend: 0x0, symName: __ZNSt3__111char_traitsIcE6lengthB8ne190107EPKc, symObjAddr: 0x10CE8, symBinAddr: 0x100013820, symSize: 0x0 }
  - { offset: 0xC3DD, size: 0x8, addend: 0x0, symName: __ZNKSt3__113basic_ostreamIcNS_11char_traitsIcEEE6sentrycvbB8ne190107Ev, symObjAddr: 0x10D0C, symBinAddr: 0x100013844, symSize: 0xE8 }
  - { offset: 0xC403, size: 0x8, addend: 0x0, symName: __ZNSt3__119ostreambuf_iteratorIcNS_11char_traitsIcEEEC1B8ne190107ERNS_13basic_ostreamIcS2_EE, symObjAddr: 0x1164C, symBinAddr: 0x100014184, symSize: 0x6C }
  - { offset: 0xC43B, size: 0x8, addend: 0x0, symName: __ZNKSt3__18ios_base5flagsB8ne190107Ev, symObjAddr: 0x116B8, symBinAddr: 0x1000141F0, symSize: 0x130 }
  - { offset: 0xC463, size: 0x8, addend: 0x0, symName: __ZNKSt3__19basic_iosIcNS_11char_traitsIcEEE4fillB8ne190107Ev, symObjAddr: 0x117E8, symBinAddr: 0x100014320, symSize: 0x288 }
  - { offset: 0xC489, size: 0x8, addend: 0x0, symName: __ZNKSt3__119ostreambuf_iteratorIcNS_11char_traitsIcEEE6failedB8ne190107Ev, symObjAddr: 0x11A70, symBinAddr: 0x1000145A8, symSize: 0xA4 }
  - { offset: 0xC4AF, size: 0x8, addend: 0x0, symName: __ZNSt3__19basic_iosIcNS_11char_traitsIcEEE8setstateB8ne190107Ej, symObjAddr: 0x11B14, symBinAddr: 0x10001464C, symSize: 0x100 }
  - { offset: 0xC4E4, size: 0x8, addend: 0x0, symName: __ZNKSt3__18ios_base5widthB8ne190107Ev, symObjAddr: 0x11C14, symBinAddr: 0x10001474C, symSize: 0x10C }
  - { offset: 0xC50C, size: 0x8, addend: 0x0, symName: __ZNSt3__115basic_streambufIcNS_11char_traitsIcEEE5sputnB8ne190107EPKcl, symObjAddr: 0x11D20, symBinAddr: 0x100014858, symSize: 0x164 }
  - { offset: 0xC54E, size: 0x8, addend: 0x0, symName: __ZNSt3__112basic_stringIcNS_11char_traitsIcEENS_9allocatorIcEEEC1B8ne190107Emc, symObjAddr: 0x11E84, symBinAddr: 0x1000149BC, symSize: 0x74 }
  - { offset: 0xC596, size: 0x8, addend: 0x0, symName: __ZNSt3__112basic_stringIcNS_11char_traitsIcEENS_9allocatorIcEEE4dataB8ne190107Ev, symObjAddr: 0x11EF8, symBinAddr: 0x100014A30, symSize: 0x60 }
  - { offset: 0xC5BC, size: 0x8, addend: 0x0, symName: __ZNSt3__18ios_base5widthB8ne190107El, symObjAddr: 0x11F58, symBinAddr: 0x100014A90, symSize: 0x1B8 }
  - { offset: 0xC602, size: 0x8, addend: 0x0, symName: __ZNSt3__112basic_stringIcNS_11char_traitsIcEENS_9allocatorIcEEEC2B8ne190107Emc, symObjAddr: 0x12110, symBinAddr: 0x100014C48, symSize: 0x238 }
  - { offset: 0xC64D, size: 0x8, addend: 0x0, symName: __ZNSt3__117__compressed_pairINS_12basic_stringIcNS_11char_traitsIcEENS_9allocatorIcEEE5__repES5_EC1B8ne190107INS_18__default_init_tagESA_EEOT_OT0_, symObjAddr: 0x12348, symBinAddr: 0x100014E80, symSize: 0x74 }
  - { offset: 0xC6A5, size: 0x8, addend: 0x0, symName: __ZNSt3__117__compressed_pairINS_12basic_stringIcNS_11char_traitsIcEENS_9allocatorIcEEE5__repES5_EC2B8ne190107INS_18__default_init_tagESA_EEOT_OT0_, symObjAddr: 0x123BC, symBinAddr: 0x100014EF4, symSize: 0xC8 }
  - { offset: 0xC6FD, size: 0x8, addend: 0x0, symName: __ZNSt3__122__compressed_pair_elemINS_12basic_stringIcNS_11char_traitsIcEENS_9allocatorIcEEE5__repELi0ELb0EEC2B8ne190107ENS_18__default_init_tagE, symObjAddr: 0x12484, symBinAddr: 0x100014FBC, symSize: 0x5C }
  - { offset: 0xC732, size: 0x8, addend: 0x0, symName: __ZNSt3__112basic_stringIcNS_11char_traitsIcEENS_9allocatorIcEEE13__get_pointerB8ne190107Ev, symObjAddr: 0x124FC, symBinAddr: 0x100015034, symSize: 0x88 }
  - { offset: 0xC758, size: 0x8, addend: 0x0, symName: __ZNKSt3__112basic_stringIcNS_11char_traitsIcEENS_9allocatorIcEEE9__is_longB8ne190107Ev, symObjAddr: 0x12584, symBinAddr: 0x1000150BC, symSize: 0x178 }
  - { offset: 0xC77E, size: 0x8, addend: 0x0, symName: __ZNSt3__112basic_stringIcNS_11char_traitsIcEENS_9allocatorIcEEE18__get_long_pointerB8ne190107Ev, symObjAddr: 0x126FC, symBinAddr: 0x100015234, symSize: 0x184 }
  - { offset: 0xC7A4, size: 0x8, addend: 0x0, symName: __ZNSt3__112basic_stringIcNS_11char_traitsIcEENS_9allocatorIcEEE19__get_short_pointerB8ne190107Ev, symObjAddr: 0x12880, symBinAddr: 0x1000153B8, symSize: 0x140 }
  - { offset: 0xC7CA, size: 0x8, addend: 0x0, symName: __ZNKSt3__117__compressed_pairINS_12basic_stringIcNS_11char_traitsIcEENS_9allocatorIcEEE5__repES5_E5firstB8ne190107Ev, symObjAddr: 0x129C0, symBinAddr: 0x1000154F8, symSize: 0xEC }
  - { offset: 0xC7F0, size: 0x8, addend: 0x0, symName: __ZNKSt3__122__compressed_pair_elemINS_12basic_stringIcNS_11char_traitsIcEENS_9allocatorIcEEE5__repELi0ELb0EE5__getB8ne190107Ev, symObjAddr: 0x12AAC, symBinAddr: 0x1000155E4, symSize: 0x8C }
  - { offset: 0xC816, size: 0x8, addend: 0x0, symName: __ZNSt3__117__compressed_pairINS_12basic_stringIcNS_11char_traitsIcEENS_9allocatorIcEEE5__repES5_E5firstB8ne190107Ev, symObjAddr: 0x12B38, symBinAddr: 0x100015670, symSize: 0xEC }
  - { offset: 0xC83C, size: 0x8, addend: 0x0, symName: __ZNSt3__122__compressed_pair_elemINS_12basic_stringIcNS_11char_traitsIcEENS_9allocatorIcEEE5__repELi0ELb0EE5__getB8ne190107Ev, symObjAddr: 0x12C24, symBinAddr: 0x10001575C, symSize: 0x8C }
  - { offset: 0xC862, size: 0x8, addend: 0x0, symName: __ZNSt3__114pointer_traitsIPcE10pointer_toB8ne190107ERc, symObjAddr: 0x12CB8, symBinAddr: 0x1000157F0, symSize: 0x0 }
  - { offset: 0xC885, size: 0x8, addend: 0x0, symName: __ZNSt3__119ostreambuf_iteratorIcNS_11char_traitsIcEEEC2B8ne190107ERNS_13basic_ostreamIcS2_EE, symObjAddr: 0x12CCC, symBinAddr: 0x100015804, symSize: 0x288 }
  - { offset: 0xC8BD, size: 0x8, addend: 0x0, symName: __ZNKSt3__19basic_iosIcNS_11char_traitsIcEEE5rdbufB8ne190107Ev, symObjAddr: 0x12F54, symBinAddr: 0x100015A8C, symSize: 0xF8 }
  - { offset: 0xC8E3, size: 0x8, addend: 0x0, symName: __ZNKSt3__18ios_base5rdbufB8ne190107Ev, symObjAddr: 0x1304C, symBinAddr: 0x100015B84, symSize: 0x10C }
  - { offset: 0xC909, size: 0x8, addend: 0x0, symName: __ZNKSt3__118_SentinelValueFillINS_11char_traitsIcEEE8__is_setB8ne190107Ev, symObjAddr: 0x13158, symBinAddr: 0x100015C90, symSize: 0x108 }
  - { offset: 0xC92F, size: 0x8, addend: 0x0, symName: __ZNKSt3__19basic_iosIcNS_11char_traitsIcEEE5widenB8ne190107Ec, symObjAddr: 0x13260, symBinAddr: 0x100015D98, symSize: 0x404 }
  - { offset: 0xC966, size: 0x8, addend: 0x0, symName: __ZNSt3__118_SentinelValueFillINS_11char_traitsIcEEEaSB8ne190107Ei, symObjAddr: 0x13664, symBinAddr: 0x10001619C, symSize: 0x124 }
  - { offset: 0xC99B, size: 0x8, addend: 0x0, symName: __ZNKSt3__118_SentinelValueFillINS_11char_traitsIcEEE5__getB8ne190107Ev, symObjAddr: 0x13788, symBinAddr: 0x1000162C0, symSize: 0xF4 }
  - { offset: 0xC9C1, size: 0x8, addend: 0x0, symName: __ZNSt3__111char_traitsIcE3eofB8ne190107Ev, symObjAddr: 0x13884, symBinAddr: 0x1000163BC, symSize: 0x0 }
  - { offset: 0xCA12, size: 0x8, addend: 0x0, symName: __ZNKSt3__15ctypeIcE5widenB8ne190107Ec, symObjAddr: 0x139E0, symBinAddr: 0x100016518, symSize: 0x154 }
  - { offset: 0xCA47, size: 0x8, addend: 0x0, symName: __ZNSt3__18ios_base8setstateB8ne190107Ej, symObjAddr: 0x13B34, symBinAddr: 0x10001666C, symSize: 0x1A4 }
  - { offset: 0xCB0D, size: 0x8, addend: 0x0, symName: __ZNKSt3__113basic_istreamIcNS_11char_traitsIcEEE6sentrycvbB8ne190107Ev, symObjAddr: 0x149D8, symBinAddr: 0x100017510, symSize: 0xCC }
  - { offset: 0xCB33, size: 0x8, addend: 0x0, symName: __ZNSt3__112basic_stringIcNS_11char_traitsIcEENS_9allocatorIcEEE5clearB8ne190107Ev, symObjAddr: 0x14AA4, symBinAddr: 0x1000175DC, symSize: 0x2CC }
  - { offset: 0xCB6A, size: 0x8, addend: 0x0, symName: __ZNSt3__115basic_streambufIcNS_11char_traitsIcEEE6sbumpcB8ne190107Ev, symObjAddr: 0x14D70, symBinAddr: 0x1000178A8, symSize: 0x42C }
  - { offset: 0xCB90, size: 0x8, addend: 0x0, symName: __ZNSt3__111char_traitsIcE11eq_int_typeB8ne190107Eii, symObjAddr: 0x151A4, symBinAddr: 0x100017CDC, symSize: 0x0 }
  - { offset: 0xCBC1, size: 0x8, addend: 0x0, symName: __ZNSt3__111char_traitsIcE12to_char_typeB8ne190107Ei, symObjAddr: 0x151D0, symBinAddr: 0x100017D08, symSize: 0x0 }
  - { offset: 0xCBE4, size: 0x8, addend: 0x0, symName: __ZNSt3__111char_traitsIcE2eqEcc, symObjAddr: 0x151F0, symBinAddr: 0x100017D28, symSize: 0x0 }
  - { offset: 0xCC15, size: 0x8, addend: 0x0, symName: __ZNKSt3__112basic_stringIcNS_11char_traitsIcEENS_9allocatorIcEEE4sizeB8ne190107Ev, symObjAddr: 0x15214, symBinAddr: 0x100017D4C, symSize: 0x88 }
  - { offset: 0xCC3B, size: 0x8, addend: 0x0, symName: __ZNKSt3__112basic_stringIcNS_11char_traitsIcEENS_9allocatorIcEEE8max_sizeB8ne190107Ev, symObjAddr: 0x1529C, symBinAddr: 0x100017DD4, symSize: 0x194 }
  - { offset: 0xCC8D, size: 0x8, addend: 0x0, symName: __ZNSt3__18ios_base18__setstate_nothrowB8ne190107Ej, symObjAddr: 0x15430, symBinAddr: 0x100017F68, symSize: 0x2B4 }
  - { offset: 0xCCC2, size: 0x8, addend: 0x0, symName: __ZNKSt3__19basic_iosIcNS_11char_traitsIcEEE10exceptionsB8ne190107Ev, symObjAddr: 0x156E4, symBinAddr: 0x10001821C, symSize: 0xF8 }
  - { offset: 0xCCE8, size: 0x8, addend: 0x0, symName: __ZNSt3__111char_traitsIcE6assignB8ne190107ERcRKc, symObjAddr: 0x157E4, symBinAddr: 0x10001831C, symSize: 0x0 }
  - { offset: 0xCD19, size: 0x8, addend: 0x0, symName: __ZNSt3__112basic_stringIcNS_11char_traitsIcEENS_9allocatorIcEEE15__set_long_sizeB8ne190107Em, symObjAddr: 0x158C0, symBinAddr: 0x1000183F8, symSize: 0x19C }
  - { offset: 0xCD4E, size: 0x8, addend: 0x0, symName: __ZNSt3__112basic_stringIcNS_11char_traitsIcEENS_9allocatorIcEEE16__set_short_sizeB8ne190107Em, symObjAddr: 0x15A5C, symBinAddr: 0x100018594, symSize: 0x2A4 }
  - { offset: 0xCD83, size: 0x8, addend: 0x0, symName: __ZNKSt3__112basic_stringIcNS_11char_traitsIcEENS_9allocatorIcEEE17__annotate_shrinkB8ne190107Em, symObjAddr: 0x15D00, symBinAddr: 0x100018838, symSize: 0x58 }
  - { offset: 0xCDB8, size: 0x8, addend: 0x0, symName: __ZNSt3__111char_traitsIcE11to_int_typeB8ne190107Ec, symObjAddr: 0x15D60, symBinAddr: 0x100018898, symSize: 0x0 }
  - { offset: 0xCDDB, size: 0x8, addend: 0x0, symName: __ZNKSt3__112basic_stringIcNS_11char_traitsIcEENS_9allocatorIcEEE15__get_long_sizeB8ne190107Ev, symObjAddr: 0x15D74, symBinAddr: 0x1000188AC, symSize: 0x18C }
  - { offset: 0xCE01, size: 0x8, addend: 0x0, symName: __ZNKSt3__112basic_stringIcNS_11char_traitsIcEENS_9allocatorIcEEE16__get_short_sizeB8ne190107Ev, symObjAddr: 0x15F00, symBinAddr: 0x100018A38, symSize: 0x178 }
  - { offset: 0xCE31, size: 0x8, addend: 0x0, symName: __ZNSt3__116allocator_traitsINS_9allocatorIcEEE8max_sizeB8ne190107IS2_vTnNS_9enable_ifIXntsr14__has_max_sizeIKT_EE5valueEiE4typeELi0EEEmRKS2_, symObjAddr: 0x16080, symBinAddr: 0x100018BB8, symSize: 0x0 }
  - { offset: 0xCE61, size: 0x8, addend: 0x0, symName: __ZNKSt3__112basic_stringIcNS_11char_traitsIcEENS_9allocatorIcEEE7__allocB8ne190107Ev, symObjAddr: 0x160D4, symBinAddr: 0x100018C0C, symSize: 0xB4 }
  - { offset: 0xCE87, size: 0x8, addend: 0x0, symName: __ZNKSt3__117__compressed_pairINS_12basic_stringIcNS_11char_traitsIcEENS_9allocatorIcEEE5__repES5_E6secondB8ne190107Ev, symObjAddr: 0x16188, symBinAddr: 0x100018CC0, symSize: 0xC4 }
  - { offset: 0xCEAD, size: 0x8, addend: 0x0, symName: __ZNKSt3__122__compressed_pair_elemINS_9allocatorIcEELi1ELb1EE5__getB8ne190107Ev, symObjAddr: 0x1624C, symBinAddr: 0x100018D84, symSize: 0x64 }
  - { offset: 0xCED3, size: 0x8, addend: 0x0, symName: __ZNKSt3__18ios_base10exceptionsB8ne190107Ev, symObjAddr: 0x162B0, symBinAddr: 0x100018DE8, symSize: 0x130 }
...
