---
triple:          'arm64-apple-darwin'
binary-path:     map_reverse
relocations:
  - { offset: 0x5C, size: 0x8, addend: 0x0, symName: __ZNSt3__119piecewise_constructE, symObjAddr: 0x8A5B, symBinAddr: 0x10000BA4F, symSize: 0x0 }
  - { offset: 0x549A, size: 0x8, addend: 0x0, symName: __ZNSt3__17advanceB8ne190107INS_21__tree_const_iteratorINS_12basic_stringIcNS_11char_traitsIcEENS_9allocatorIcEEEEPNS_11__tree_nodeIS7_PvEElEEllTnNS_9enable_ifIXsr11is_integralIT1_EE5valueEiE4typeELi0EEEvRT_T0_, symObjAddr: 0x2DF0, symBinAddr: 0x100005B50, symSize: 0x38 }
  - { offset: 0xB450, size: 0x8, addend: 0x0, symName: __ZNSt3__17advanceB8ne190107INS_21__tree_const_iteratorINS_12__value_typeINS_12basic_stringIcNS_11char_traitsIcEENS_9allocatorIcEEEES8_EEPNS_11__tree_nodeIS9_PvEElEEllTnNS_9enable_ifIXsr11is_integralIT1_EE5valueEiE4typeELi0EEEvRT_T0_, symObjAddr: 0x6D38, symBinAddr: 0x100009A98, symSize: 0x38 }
  - { offset: 0xB4DC, size: 0x8, addend: 0x0, symName: __ZNSt3__124__put_character_sequenceB8ne190107IcNS_11char_traitsIcEEEERNS_13basic_ostreamIT_T0_EES7_PKS4_m, symObjAddr: 0x7D68, symBinAddr: 0x10000AAC8, symSize: 0x1E4 }
  - { offset: 0xC5B5, size: 0x8, addend: 0x0, symName: __ZNSt3__1neB8ne190107ERKNS_14__map_iteratorINS_15__tree_iteratorINS_12__value_typeINS_12basic_stringIcNS_11char_traitsIcEENS_9allocatorIcEEEES8_EEPNS_11__tree_nodeIS9_PvEElEEEESH_, symObjAddr: 0x208, symBinAddr: 0x100002F68, symSize: 0x2C }
  - { offset: 0xC6CC, size: 0x8, addend: 0x0, symName: __ZNSt3__1neB8ne190107ERKNS_14__map_iteratorINS_15__tree_iteratorINS_12__value_typeINS_12basic_stringIcNS_11char_traitsIcEENS_9allocatorIcEEEENS_3setIS8_NS_4lessIS8_EENS6_IS8_EEEEEEPNS_11__tree_nodeISE_PvEElEEEESM_, symObjAddr: 0xBD4, symBinAddr: 0x100003934, symSize: 0x2C }
  - { offset: 0xC7E3, size: 0x8, addend: 0x0, symName: __ZNSt3__1lsB8ne190107INS_11char_traitsIcEEEERNS_13basic_ostreamIcT_EES6_PKc, symObjAddr: 0xC5C, symBinAddr: 0x1000039BC, symSize: 0x48 }
  - { offset: 0xC829, size: 0x8, addend: 0x0, symName: __ZNSt3__1lsB8ne190107IcNS_11char_traitsIcEENS_9allocatorIcEEEERNS_13basic_ostreamIT_T0_EES9_RKNS_12basic_stringIS6_S7_T1_EE, symObjAddr: 0xCA4, symBinAddr: 0x100003A04, symSize: 0x4C }
  - { offset: 0xC881, size: 0x8, addend: 0x0, symName: __ZNSt3__1neB8ne190107ERKNS_21__tree_const_iteratorINS_12basic_stringIcNS_11char_traitsIcEENS_9allocatorIcEEEEPNS_11__tree_nodeIS6_PvEElEESD_, symObjAddr: 0xD60, symBinAddr: 0x100003AC0, symSize: 0x30 }
  - { offset: 0xC8BE, size: 0x8, addend: 0x0, symName: __ZNSt3__14endlB8ne190107IcNS_11char_traitsIcEEEERNS_13basic_ostreamIT_T0_EES7_, symObjAddr: 0xE44, symBinAddr: 0x100003BA4, symSize: 0x54 }
  - { offset: 0xC8FE, size: 0x8, addend: 0x0, symName: __ZNSt3__118__constexpr_strlenB8ne190107IcEEmPKT_, symObjAddr: 0x11B0, symBinAddr: 0x100003F10, symSize: 0x24 }
  - { offset: 0xC966, size: 0x8, addend: 0x0, symName: __ZNSt3__1eqB8ne190107ERKNS_21__tree_const_iteratorINS_12basic_stringIcNS_11char_traitsIcEENS_9allocatorIcEEEEPNS_11__tree_nodeIS6_PvEElEESD_, symObjAddr: 0x2210, symBinAddr: 0x100004F70, symSize: 0x2C }
  - { offset: 0xC9A3, size: 0x8, addend: 0x0, symName: __ZNSt3__14nextB8ne190107INS_21__tree_const_iteratorINS_12basic_stringIcNS_11char_traitsIcEENS_9allocatorIcEEEEPNS_11__tree_nodeIS7_PvEElEETnNS_9enable_ifIXsr29__has_input_iterator_categoryIT_EE5valueEiE4typeELi0EEESE_SE_NS_15iterator_traitsISE_E15difference_typeE, symObjAddr: 0x24F0, symBinAddr: 0x100005250, symSize: 0x3C }
  - { offset: 0xC9EC, size: 0x8, addend: 0x0, symName: __ZNSt3__1ltB8ne190107ENS_15strong_orderingENS_20_CmpUnspecifiedParamE, symObjAddr: 0x25F0, symBinAddr: 0x100005350, symSize: 0x20 }
  - { offset: 0xCA22, size: 0x8, addend: 0x0, symName: __ZNSt3__1ssB8ne190107IcNS_11char_traitsIcEENS_9allocatorIcEEEEDaRKNS_12basic_stringIT_T0_T1_EESB_, symObjAddr: 0x2610, symBinAddr: 0x100005370, symSize: 0x5C }
  - { offset: 0xCA96, size: 0x8, addend: 0x0, symName: __ZNSt3__1ssB8ne190107IcNS_11char_traitsIcEEEEDaNS_17basic_string_viewIT_T0_EENS_13type_identityIS6_E4typeE, symObjAddr: 0x26A0, symBinAddr: 0x100005400, symSize: 0x64 }
  - { offset: 0xCAE5, size: 0x8, addend: 0x0, symName: __ZNSt3__13minB8ne190107ImEERKT_S3_S3_, symObjAddr: 0x2878, symBinAddr: 0x1000055D8, symSize: 0x2C }
  - { offset: 0xCB28, size: 0x8, addend: 0x0, symName: __ZNSt3__13minB8ne190107ImNS_6__lessIvvEEEERKT_S5_S5_T0_, symObjAddr: 0x2918, symBinAddr: 0x100005678, symSize: 0x54 }
  - { offset: 0xCBC7, size: 0x8, addend: 0x0, symName: __ZNSt3__112__to_addressB8ne190107IKcEEPT_S3_, symObjAddr: 0x2A54, symBinAddr: 0x1000057B4, symSize: 0x14 }
  - { offset: 0xCC2F, size: 0x8, addend: 0x0, symName: __ZNSt3__116__tree_prev_iterB8ne190107IPNS_16__tree_node_baseIPvEEPNS_15__tree_end_nodeIS4_EEEET_T0_, symObjAddr: 0x2C2C, symBinAddr: 0x10000598C, symSize: 0x9C }
  - { offset: 0xCC7B, size: 0x8, addend: 0x0, symName: __ZNSt3__110__tree_maxB8ne190107IPNS_16__tree_node_baseIPvEEEET_S5_, symObjAddr: 0x2CC8, symBinAddr: 0x100005A28, symSize: 0x38 }
  - { offset: 0xCCB0, size: 0x8, addend: 0x0, symName: __ZNSt3__120__tree_is_left_childB8ne190107IPNS_16__tree_node_baseIPvEEEEbT_, symObjAddr: 0x2D00, symBinAddr: 0x100005A60, symSize: 0x28 }
  - { offset: 0xCCE5, size: 0x8, addend: 0x0, symName: __ZNSt3__121__convert_to_integralB8ne190107El, symObjAddr: 0x2E28, symBinAddr: 0x100005B88, symSize: 0x14 }
  - { offset: 0xCD11, size: 0x8, addend: 0x0, symName: __ZNSt3__19__advanceB8ne190107INS_21__tree_const_iteratorINS_12basic_stringIcNS_11char_traitsIcEENS_9allocatorIcEEEEPNS_11__tree_nodeIS7_PvEElEEEEvRT_NS_15iterator_traitsISD_E15difference_typeENS_26bidirectional_iterator_tagE, symObjAddr: 0x2E3C, symBinAddr: 0x100005B9C, symSize: 0x90 }
  - { offset: 0xCD78, size: 0x8, addend: 0x0, symName: __ZNSt3__117__libcpp_allocateB8ne190107Emm, symObjAddr: 0x3118, symBinAddr: 0x100005E78, symSize: 0x60 }
  - { offset: 0xCFBE, size: 0x8, addend: 0x0, symName: __ZNSt3__124__is_overaligned_for_newB8ne190107Em, symObjAddr: 0x3194, symBinAddr: 0x100005EF4, symSize: 0x1C }
  - { offset: 0xCFEA, size: 0x8, addend: 0x0, symName: __ZNSt3__121__libcpp_operator_newB8ne190107IJmSt11align_val_tEEEPvDpT_, symObjAddr: 0x31B0, symBinAddr: 0x100005F10, symSize: 0x2C }
  - { offset: 0xD037, size: 0x8, addend: 0x0, symName: __ZNSt3__121__libcpp_operator_newB8ne190107IJmEEEPvDpT_, symObjAddr: 0x31DC, symBinAddr: 0x100005F3C, symSize: 0x24 }
  - { offset: 0xD070, size: 0x8, addend: 0x0, symName: __ZNSt3__114__construct_atB8ne190107INS_12basic_stringIcNS_11char_traitsIcEENS_9allocatorIcEEEEJRKS6_EPS6_EEPT_SB_DpOT0_, symObjAddr: 0x3344, symBinAddr: 0x1000060A4, symSize: 0x2C }
  - { offset: 0xD0E8, size: 0x8, addend: 0x0, symName: __ZNSt3__112construct_atB8ne190107INS_12basic_stringIcNS_11char_traitsIcEENS_9allocatorIcEEEEJRKS6_EPS6_EEPT_SB_DpOT0_, symObjAddr: 0x3370, symBinAddr: 0x1000060D0, symSize: 0x3C }
  - { offset: 0xD158, size: 0x8, addend: 0x0, symName: __ZNSt3__127__tree_balance_after_insertB8ne190107IPNS_16__tree_node_baseIPvEEEEvT_S5_, symObjAddr: 0x3420, symBinAddr: 0x100006180, symSize: 0x25C }
  - { offset: 0xD1D4, size: 0x8, addend: 0x0, symName: __ZNSt3__118__tree_left_rotateB8ne190107IPNS_16__tree_node_baseIPvEEEEvT_, symObjAddr: 0x36A4, symBinAddr: 0x100006404, symSize: 0xD0 }
  - { offset: 0xD213, size: 0x8, addend: 0x0, symName: __ZNSt3__119__tree_right_rotateB8ne190107IPNS_16__tree_node_baseIPvEEEEvT_, symObjAddr: 0x3774, symBinAddr: 0x1000064D4, symSize: 0xC4 }
  - { offset: 0xD255, size: 0x8, addend: 0x0, symName: __ZNSt3__112__destroy_atB8ne190107INS_12basic_stringIcNS_11char_traitsIcEENS_9allocatorIcEEEETnNS_9enable_ifIXntsr8is_arrayIT_EE5valueEiE4typeELi0EEEvPS8_, symObjAddr: 0x3A4C, symBinAddr: 0x1000067AC, symSize: 0x24 }
  - { offset: 0xD28C, size: 0x8, addend: 0x0, symName: __ZNSt3__119__libcpp_deallocateB8ne190107EPvmm, symObjAddr: 0x3AB4, symBinAddr: 0x100006814, symSize: 0x60 }
  - { offset: 0xD2F1, size: 0x8, addend: 0x0, symName: __ZNSt3__127__do_deallocate_handle_sizeB8ne190107IJSt11align_val_tEEEvPvmDpT_, symObjAddr: 0x3B14, symBinAddr: 0x100006874, symSize: 0x34 }
  - { offset: 0xD344, size: 0x8, addend: 0x0, symName: __ZNSt3__127__do_deallocate_handle_sizeB8ne190107IJEEEvPvmDpT_, symObjAddr: 0x3B48, symBinAddr: 0x1000068A8, symSize: 0x2C }
  - { offset: 0xD382, size: 0x8, addend: 0x0, symName: __ZNSt3__124__libcpp_operator_deleteB8ne190107IJPvmSt11align_val_tEEEvDpT_, symObjAddr: 0x3B74, symBinAddr: 0x1000068D4, symSize: 0x34 }
  - { offset: 0xD3DF, size: 0x8, addend: 0x0, symName: __ZNSt3__124__libcpp_operator_deleteB8ne190107IJPvmEEEvDpT_, symObjAddr: 0x3BA8, symBinAddr: 0x100006908, symSize: 0x2C }
  - { offset: 0xD428, size: 0x8, addend: 0x0, symName: __ZNSt3__112__destroy_atB8ne190107INS_4pairIKNS_12basic_stringIcNS_11char_traitsIcEENS_9allocatorIcEEEENS_3setIS7_NS_4lessIS7_EENS5_IS7_EEEEEETnNS_9enable_ifIXntsr8is_arrayIT_EE5valueEiE4typeELi0EEEvPSG_, symObjAddr: 0x43C0, symBinAddr: 0x100007120, symSize: 0x24 }
  - { offset: 0xD45F, size: 0x8, addend: 0x0, symName: __ZNSt3__17launderB8ne190107INS_4pairIKNS_12basic_stringIcNS_11char_traitsIcEENS_9allocatorIcEEEENS_3setIS7_NS_4lessIS7_EENS5_IS7_EEEEEEEEPT_SG_, symObjAddr: 0x446C, symBinAddr: 0x1000071CC, symSize: 0x24 }
  - { offset: 0xD496, size: 0x8, addend: 0x0, symName: __ZNSt3__19__launderB8ne190107INS_4pairIKNS_12basic_stringIcNS_11char_traitsIcEENS_9allocatorIcEEEENS_3setIS7_NS_4lessIS7_EENS5_IS7_EEEEEEEEPT_SG_, symObjAddr: 0x4490, symBinAddr: 0x1000071F0, symSize: 0x14 }
  - { offset: 0xD4CD, size: 0x8, addend: 0x0, symName: __ZNSt3__1neB8ne190107ERKNS_15__tree_iteratorINS_12__value_typeINS_12basic_stringIcNS_11char_traitsIcEENS_9allocatorIcEEEES7_EEPNS_11__tree_nodeIS8_PvEElEESF_, symObjAddr: 0x46AC, symBinAddr: 0x10000740C, symSize: 0x30 }
  - { offset: 0xD50A, size: 0x8, addend: 0x0, symName: __ZNSt3__1eqB8ne190107ERKNS_15__tree_iteratorINS_12__value_typeINS_12basic_stringIcNS_11char_traitsIcEENS_9allocatorIcEEEES7_EEPNS_11__tree_nodeIS8_PvEElEESF_, symObjAddr: 0x46DC, symBinAddr: 0x10000743C, symSize: 0x2C }
  - { offset: 0xD547, size: 0x8, addend: 0x0, symName: __ZNSt3__116__tree_next_iterB8ne190107IPNS_15__tree_end_nodeIPNS_16__tree_node_baseIPvEEEES5_EET_T0_, symObjAddr: 0x4740, symBinAddr: 0x1000074A0, symSize: 0x78 }
  - { offset: 0xD585, size: 0x8, addend: 0x0, symName: __ZNSt3__110__tree_minB8ne190107IPNS_16__tree_node_baseIPvEEEET_S5_, symObjAddr: 0x47B8, symBinAddr: 0x100007518, symSize: 0x38 }
  - { offset: 0xD5ED, size: 0x8, addend: 0x0, symName: __ZNSt3__17launderB8ne190107INS_4pairIKNS_12basic_stringIcNS_11char_traitsIcEENS_9allocatorIcEEEES7_EEEEPT_SB_, symObjAddr: 0x486C, symBinAddr: 0x1000075CC, symSize: 0x24 }
  - { offset: 0xD624, size: 0x8, addend: 0x0, symName: __ZNSt3__19__launderB8ne190107INS_4pairIKNS_12basic_stringIcNS_11char_traitsIcEENS_9allocatorIcEEEES7_EEEEPT_SB_, symObjAddr: 0x4890, symBinAddr: 0x1000075F0, symSize: 0x14 }
  - { offset: 0xD692, size: 0x8, addend: 0x0, symName: __ZNSt3__116forward_as_tupleB8ne190107IJRKNS_12basic_stringIcNS_11char_traitsIcEENS_9allocatorIcEEEEEEENS_5tupleIJDpOT_EEESC_, symObjAddr: 0x499C, symBinAddr: 0x1000076FC, symSize: 0x2C }
  - { offset: 0xD6CB, size: 0x8, addend: 0x0, symName: __ZNSt3__116forward_as_tupleB8ne190107IJEEENS_5tupleIJDpOT_EEES4_, symObjAddr: 0x49C8, symBinAddr: 0x100007728, symSize: 0x4 }
  - { offset: 0xD6EF, size: 0x8, addend: 0x0, symName: __ZNSt3__17launderB8ne190107IKNS_4pairIKNS_12basic_stringIcNS_11char_traitsIcEENS_9allocatorIcEEEENS_3setIS7_NS_4lessIS7_EENS5_IS7_EEEEEEEEPT_SH_, symObjAddr: 0x4F88, symBinAddr: 0x100007CE8, symSize: 0x24 }
  - { offset: 0xD726, size: 0x8, addend: 0x0, symName: __ZNSt3__19__launderB8ne190107IKNS_4pairIKNS_12basic_stringIcNS_11char_traitsIcEENS_9allocatorIcEEEENS_3setIS7_NS_4lessIS7_EENS5_IS7_EEEEEEEEPT_SH_, symObjAddr: 0x4FAC, symBinAddr: 0x100007D0C, symSize: 0x14 }
  - { offset: 0xD77B, size: 0x8, addend: 0x0, symName: __ZNSt3__114__construct_atB8ne190107INS_4pairIKNS_12basic_stringIcNS_11char_traitsIcEENS_9allocatorIcEEEENS_3setIS7_NS_4lessIS7_EENS5_IS7_EEEEEEJRKNS_21piecewise_construct_tENS_5tupleIJRS8_EEENSI_IJEEEEPSE_EEPT_SO_DpOT0_, symObjAddr: 0x52B8, symBinAddr: 0x100008018, symSize: 0x3C }
  - { offset: 0xD819, size: 0x8, addend: 0x0, symName: __ZNSt3__112construct_atB8ne190107INS_4pairIKNS_12basic_stringIcNS_11char_traitsIcEENS_9allocatorIcEEEENS_3setIS7_NS_4lessIS7_EENS5_IS7_EEEEEEJRKNS_21piecewise_construct_tENS_5tupleIJRS8_EEENSI_IJEEEEPSE_EEPT_SO_DpOT0_, symObjAddr: 0x52F4, symBinAddr: 0x100008054, symSize: 0x50 }
  - { offset: 0xD8BA, size: 0x8, addend: 0x0, symName: __ZNSt3__13getB8ne190107ILm0EJRKNS_12basic_stringIcNS_11char_traitsIcEENS_9allocatorIcEEEEEEERNS_13tuple_elementIXT_ENS_5tupleIJDpT0_EEEE4typeERSD_, symObjAddr: 0x540C, symBinAddr: 0x10000816C, symSize: 0x24 }
  - { offset: 0xD953, size: 0x8, addend: 0x0, symName: __ZNSt3__1eqB8ne190107ERKNS_21__tree_const_iteratorINS_12__value_typeINS_12basic_stringIcNS_11char_traitsIcEENS_9allocatorIcEEEES7_EEPNS_11__tree_nodeIS8_PvEElEESF_, symObjAddr: 0x6900, symBinAddr: 0x100009660, symSize: 0x2C }
  - { offset: 0xD990, size: 0x8, addend: 0x0, symName: __ZNSt3__14nextB8ne190107INS_21__tree_const_iteratorINS_12__value_typeINS_12basic_stringIcNS_11char_traitsIcEENS_9allocatorIcEEEES8_EEPNS_11__tree_nodeIS9_PvEElEETnNS_9enable_ifIXsr29__has_input_iterator_categoryIT_EE5valueEiE4typeELi0EEESG_SG_NS_15iterator_traitsISG_E15difference_typeE, symObjAddr: 0x6BE4, symBinAddr: 0x100009944, symSize: 0x3C }
  - { offset: 0xD9D9, size: 0x8, addend: 0x0, symName: __ZNSt3__17launderB8ne190107IKNS_4pairIKNS_12basic_stringIcNS_11char_traitsIcEENS_9allocatorIcEEEES7_EEEEPT_SC_, symObjAddr: 0x6CB4, symBinAddr: 0x100009A14, symSize: 0x24 }
  - { offset: 0xDA10, size: 0x8, addend: 0x0, symName: __ZNSt3__19__launderB8ne190107IKNS_4pairIKNS_12basic_stringIcNS_11char_traitsIcEENS_9allocatorIcEEEES7_EEEEPT_SC_, symObjAddr: 0x6CD8, symBinAddr: 0x100009A38, symSize: 0x14 }
  - { offset: 0xDA47, size: 0x8, addend: 0x0, symName: __ZNSt3__19__advanceB8ne190107INS_21__tree_const_iteratorINS_12__value_typeINS_12basic_stringIcNS_11char_traitsIcEENS_9allocatorIcEEEES8_EEPNS_11__tree_nodeIS9_PvEElEEEEvRT_NS_15iterator_traitsISF_E15difference_typeENS_26bidirectional_iterator_tagE, symObjAddr: 0x6D70, symBinAddr: 0x100009AD0, symSize: 0x90 }
  - { offset: 0xDAAE, size: 0x8, addend: 0x0, symName: __ZNSt3__114__construct_atB8ne190107INS_4pairIKNS_12basic_stringIcNS_11char_traitsIcEENS_9allocatorIcEEEES7_EEJRKS9_EPS9_EEPT_SE_DpOT0_, symObjAddr: 0x71A4, symBinAddr: 0x100009F04, symSize: 0x2C }
  - { offset: 0xDB26, size: 0x8, addend: 0x0, symName: __ZNSt3__112construct_atB8ne190107INS_4pairIKNS_12basic_stringIcNS_11char_traitsIcEENS_9allocatorIcEEEES7_EEJRKS9_EPS9_EEPT_SE_DpOT0_, symObjAddr: 0x71D0, symBinAddr: 0x100009F30, symSize: 0x3C }
  - { offset: 0xDB96, size: 0x8, addend: 0x0, symName: __ZNSt3__112__destroy_atB8ne190107INS_4pairIKNS_12basic_stringIcNS_11char_traitsIcEENS_9allocatorIcEEEES7_EETnNS_9enable_ifIXntsr8is_arrayIT_EE5valueEiE4typeELi0EEEvPSB_, symObjAddr: 0x752C, symBinAddr: 0x10000A28C, symSize: 0x24 }
  - { offset: 0xDBCD, size: 0x8, addend: 0x0, symName: __ZNSt3__1neB8ne190107ERKNS_20__map_const_iteratorINS_21__tree_const_iteratorINS_12__value_typeINS_12basic_stringIcNS_11char_traitsIcEENS_9allocatorIcEEEES8_EEPNS_11__tree_nodeIS9_PvEElEEEESH_, symObjAddr: 0x7A8C, symBinAddr: 0x10000A7EC, symSize: 0x2C }
  - { offset: 0xDC0A, size: 0x8, addend: 0x0, symName: __ZNSt3__1neB8ne190107ERKNS_21__tree_const_iteratorINS_12__value_typeINS_12basic_stringIcNS_11char_traitsIcEENS_9allocatorIcEEEES7_EEPNS_11__tree_nodeIS8_PvEElEESF_, symObjAddr: 0x7B0C, symBinAddr: 0x10000A86C, symSize: 0x30 }
  - { offset: 0xDC7A, size: 0x8, addend: 0x0, symName: __ZNSt3__1neB8ne190107ERKNS_15__tree_iteratorINS_12__value_typeINS_12basic_stringIcNS_11char_traitsIcEENS_9allocatorIcEEEENS_3setIS7_NS_4lessIS7_EENS5_IS7_EEEEEEPNS_11__tree_nodeISD_PvEElEESK_, symObjAddr: 0x7CD4, symBinAddr: 0x10000AA34, symSize: 0x30 }
  - { offset: 0xDCB7, size: 0x8, addend: 0x0, symName: __ZNSt3__1eqB8ne190107ERKNS_15__tree_iteratorINS_12__value_typeINS_12basic_stringIcNS_11char_traitsIcEENS_9allocatorIcEEEENS_3setIS7_NS_4lessIS7_EENS5_IS7_EEEEEEPNS_11__tree_nodeISD_PvEElEESK_, symObjAddr: 0x7D04, symBinAddr: 0x10000AA64, symSize: 0x2C }
  - { offset: 0xDCF4, size: 0x8, addend: 0x0, symName: __ZNSt3__116__pad_and_outputB8ne190107IcNS_11char_traitsIcEEEENS_19ostreambuf_iteratorIT_T0_EES6_PKS4_S8_S8_RNS_8ios_baseES4_, symObjAddr: 0x7F68, symBinAddr: 0x10000ACC8, symSize: 0x214 }
  - { offset: 0xDDC3, size: 0x8, addend: 0x0, symName: __ZNSt3__112__to_addressB8ne190107IcEEPT_S2_, symObjAddr: 0x83A8, symBinAddr: 0x10000B108, symSize: 0x14 }
  - { offset: 0xDDF8, size: 0x8, addend: 0x0, symName: __ZNSt3__19use_facetB8ne190107INS_5ctypeIcEEEERKT_RKNS_6localeE, symObjAddr: 0x8634, symBinAddr: 0x10000B394, symSize: 0x2C }
  - { offset: 0xF0BC, size: 0x8, addend: 0x0, symName: __ZSt28__throw_bad_array_new_lengthB8ne190107v, symObjAddr: 0x30E4, symBinAddr: 0x100005E44, symSize: 0x34 }
  - { offset: 0x101EF, size: 0x8, addend: 0x0, symName: __Z10reverseMapNSt3__13mapINS_12basic_stringIcNS_11char_traitsIcEENS_9allocatorIcEEEES6_NS_4lessIS6_EENS4_INS_4pairIKS6_S6_EEEEEE, symObjAddr: 0x0, symBinAddr: 0x100002D60, symSize: 0x16C }
  - { offset: 0x10276, size: 0x8, addend: 0x0, symName: __ZNSt3__13mapINS_12basic_stringIcNS_11char_traitsIcEENS_9allocatorIcEEEENS_3setIS6_NS_4lessIS6_EENS4_IS6_EEEES9_NS4_INS_4pairIKS6_SB_EEEEEC1B8ne190107Ev, symObjAddr: 0x16C, symBinAddr: 0x100002ECC, symSize: 0x2C }
  - { offset: 0x102A0, size: 0x8, addend: 0x0, symName: __ZNSt3__13mapINS_12basic_stringIcNS_11char_traitsIcEENS_9allocatorIcEEEES6_NS_4lessIS6_EENS4_INS_4pairIKS6_S6_EEEEE5beginB8ne190107Ev, symObjAddr: 0x198, symBinAddr: 0x100002EF8, symSize: 0x38 }
  - { offset: 0x102C6, size: 0x8, addend: 0x0, symName: __ZNSt3__13mapINS_12basic_stringIcNS_11char_traitsIcEENS_9allocatorIcEEEES6_NS_4lessIS6_EENS4_INS_4pairIKS6_S6_EEEEE3endB8ne190107Ev, symObjAddr: 0x1D0, symBinAddr: 0x100002F30, symSize: 0x38 }
  - { offset: 0x102EC, size: 0x8, addend: 0x0, symName: __ZNKSt3__114__map_iteratorINS_15__tree_iteratorINS_12__value_typeINS_12basic_stringIcNS_11char_traitsIcEENS_9allocatorIcEEEES8_EEPNS_11__tree_nodeIS9_PvEElEEEdeB8ne190107Ev, symObjAddr: 0x234, symBinAddr: 0x100002F94, symSize: 0x28 }
  - { offset: 0x1032E, size: 0x8, addend: 0x0, symName: __ZNSt3__14pairINS_12basic_stringIcNS_11char_traitsIcEENS_9allocatorIcEEEES6_EC1B8ne190107IKS6_S6_TnNS_9enable_ifIXclsr10_CheckArgsE23__is_pair_constructibleIRKT_RKT0_EEEiE4typeELi0EEERKNS0_ISB_SE_EE, symObjAddr: 0x25C, symBinAddr: 0x100002FBC, symSize: 0x34 }
  - { offset: 0x1037E, size: 0x8, addend: 0x0, symName: __ZNSt3__13mapINS_12basic_stringIcNS_11char_traitsIcEENS_9allocatorIcEEEENS_3setIS6_NS_4lessIS6_EENS4_IS6_EEEES9_NS4_INS_4pairIKS6_SB_EEEEEixERSD_, symObjAddr: 0x290, symBinAddr: 0x100002FF0, symSize: 0xC4 }
  - { offset: 0x103B5, size: 0x8, addend: 0x0, symName: __ZNSt3__13setINS_12basic_stringIcNS_11char_traitsIcEENS_9allocatorIcEEEENS_4lessIS6_EENS4_IS6_EEE6insertB8ne190107ERKS6_, symObjAddr: 0x354, symBinAddr: 0x1000030B4, symSize: 0x98 }
  - { offset: 0x103EA, size: 0x8, addend: 0x0, symName: __ZNSt3__14pairINS_12basic_stringIcNS_11char_traitsIcEENS_9allocatorIcEEEES6_ED1Ev, symObjAddr: 0x3EC, symBinAddr: 0x10000314C, symSize: 0x2C }
  - { offset: 0x10416, size: 0x8, addend: 0x0, symName: __ZNSt3__114__map_iteratorINS_15__tree_iteratorINS_12__value_typeINS_12basic_stringIcNS_11char_traitsIcEENS_9allocatorIcEEEES8_EEPNS_11__tree_nodeIS9_PvEElEEEppB8ne190107Ev, symObjAddr: 0x418, symBinAddr: 0x100003178, symSize: 0x2C }
  - { offset: 0x1043C, size: 0x8, addend: 0x0, symName: __ZNSt3__13mapINS_12basic_stringIcNS_11char_traitsIcEENS_9allocatorIcEEEENS_3setIS6_NS_4lessIS6_EENS4_IS6_EEEES9_NS4_INS_4pairIKS6_SB_EEEEED1B8ne190107Ev, symObjAddr: 0x444, symBinAddr: 0x1000031A4, symSize: 0x2C }
  - { offset: 0x10466, size: 0x8, addend: 0x0, symName: _main, symObjAddr: 0x470, symBinAddr: 0x1000031D0, symSize: 0x4BC }
  - { offset: 0x10557, size: 0x8, addend: 0x0, symName: __ZNSt3__14pairIKNS_12basic_stringIcNS_11char_traitsIcEENS_9allocatorIcEEEES6_EC1B8ne190107IRA6_KcSC_TnNS_9enable_ifIXclsr10_CheckArgsE23__is_pair_constructibleIT_T0_EEEiE4typeELi0EEEOSE_OSF_, symObjAddr: 0x92C, symBinAddr: 0x10000368C, symSize: 0x3C }
  - { offset: 0x105CE, size: 0x8, addend: 0x0, symName: __ZNSt3__14pairIKNS_12basic_stringIcNS_11char_traitsIcEENS_9allocatorIcEEEES6_EC1B8ne190107IRA7_KcRA6_SA_TnNS_9enable_ifIXclsr10_CheckArgsE23__is_pair_constructibleIT_T0_EEEiE4typeELi0EEEOSG_OSH_, symObjAddr: 0x968, symBinAddr: 0x1000036C8, symSize: 0x3C }
  - { offset: 0x10645, size: 0x8, addend: 0x0, symName: __ZNSt3__14pairIKNS_12basic_stringIcNS_11char_traitsIcEENS_9allocatorIcEEEES6_EC1B8ne190107IRA7_KcRA10_SA_TnNS_9enable_ifIXclsr10_CheckArgsE23__is_pair_constructibleIT_T0_EEEiE4typeELi0EEEOSG_OSH_, symObjAddr: 0x9A4, symBinAddr: 0x100003704, symSize: 0x3C }
  - { offset: 0x106BC, size: 0x8, addend: 0x0, symName: __ZNSt3__14pairIKNS_12basic_stringIcNS_11char_traitsIcEENS_9allocatorIcEEEES6_EC1B8ne190107IRA9_KcRA10_SA_TnNS_9enable_ifIXclsr10_CheckArgsE23__is_pair_constructibleIT_T0_EEEiE4typeELi0EEEOSG_OSH_, symObjAddr: 0x9E0, symBinAddr: 0x100003740, symSize: 0x3C }
  - { offset: 0x10733, size: 0x8, addend: 0x0, symName: __ZNSt3__14pairIKNS_12basic_stringIcNS_11char_traitsIcEENS_9allocatorIcEEEES6_EC1B8ne190107IRA7_KcRA8_SA_TnNS_9enable_ifIXclsr10_CheckArgsE23__is_pair_constructibleIT_T0_EEEiE4typeELi0EEEOSG_OSH_, symObjAddr: 0xA1C, symBinAddr: 0x10000377C, symSize: 0x3C }
  - { offset: 0x10791, size: 0x8, addend: 0x0, symName: __ZNSt3__14pairIKNS_12basic_stringIcNS_11char_traitsIcEENS_9allocatorIcEEEES6_EC1B8ne190107IRA8_KcSC_TnNS_9enable_ifIXclsr10_CheckArgsE23__is_pair_constructibleIT_T0_EEEiE4typeELi0EEEOSE_OSF_, symObjAddr: 0xA58, symBinAddr: 0x1000037B8, symSize: 0x3C }
  - { offset: 0x107EF, size: 0x8, addend: 0x0, symName: __ZNSt3__14pairIKNS_12basic_stringIcNS_11char_traitsIcEENS_9allocatorIcEEEES6_ED1Ev, symObjAddr: 0xA94, symBinAddr: 0x1000037F4, symSize: 0x2C }
  - { offset: 0x1081B, size: 0x8, addend: 0x0, symName: __ZNSt3__13mapINS_12basic_stringIcNS_11char_traitsIcEENS_9allocatorIcEEEES6_NS_4lessIS6_EENS4_INS_4pairIKS6_S6_EEEEEC1B8ne190107ESt16initializer_listISB_ERKS8_, symObjAddr: 0xAC0, symBinAddr: 0x100003820, symSize: 0x44 }
  - { offset: 0x10863, size: 0x8, addend: 0x0, symName: __ZNSt3__13mapINS_12basic_stringIcNS_11char_traitsIcEENS_9allocatorIcEEEES6_NS_4lessIS6_EENS4_INS_4pairIKS6_S6_EEEEEC1B8ne190107ERKSD_, symObjAddr: 0xB04, symBinAddr: 0x100003864, symSize: 0x34 }
  - { offset: 0x1089C, size: 0x8, addend: 0x0, symName: __ZNSt3__13mapINS_12basic_stringIcNS_11char_traitsIcEENS_9allocatorIcEEEES6_NS_4lessIS6_EENS4_INS_4pairIKS6_S6_EEEEED1B8ne190107Ev, symObjAddr: 0xB38, symBinAddr: 0x100003898, symSize: 0x2C }
  - { offset: 0x108C6, size: 0x8, addend: 0x0, symName: __ZNSt3__13mapINS_12basic_stringIcNS_11char_traitsIcEENS_9allocatorIcEEEENS_3setIS6_NS_4lessIS6_EENS4_IS6_EEEES9_NS4_INS_4pairIKS6_SB_EEEEE5beginB8ne190107Ev, symObjAddr: 0xB64, symBinAddr: 0x1000038C4, symSize: 0x38 }
  - { offset: 0x108EC, size: 0x8, addend: 0x0, symName: __ZNSt3__13mapINS_12basic_stringIcNS_11char_traitsIcEENS_9allocatorIcEEEENS_3setIS6_NS_4lessIS6_EENS4_IS6_EEEES9_NS4_INS_4pairIKS6_SB_EEEEE3endB8ne190107Ev, symObjAddr: 0xB9C, symBinAddr: 0x1000038FC, symSize: 0x38 }
  - { offset: 0x10912, size: 0x8, addend: 0x0, symName: __ZNKSt3__114__map_iteratorINS_15__tree_iteratorINS_12__value_typeINS_12basic_stringIcNS_11char_traitsIcEENS_9allocatorIcEEEENS_3setIS8_NS_4lessIS8_EENS6_IS8_EEEEEEPNS_11__tree_nodeISE_PvEElEEEdeB8ne190107Ev, symObjAddr: 0xC00, symBinAddr: 0x100003960, symSize: 0x28 }
  - { offset: 0x10954, size: 0x8, addend: 0x0, symName: __ZNSt3__14pairINS_12basic_stringIcNS_11char_traitsIcEENS_9allocatorIcEEEENS_3setIS6_NS_4lessIS6_EENS4_IS6_EEEEEC1B8ne190107IKS6_SB_TnNS_9enable_ifIXclsr10_CheckArgsE23__is_pair_constructibleIRKT_RKT0_EEEiE4typeELi0EEERKNS0_ISG_SJ_EE, symObjAddr: 0xC28, symBinAddr: 0x100003988, symSize: 0x34 }
  - { offset: 0x109A4, size: 0x8, addend: 0x0, symName: __ZNSt3__13setINS_12basic_stringIcNS_11char_traitsIcEENS_9allocatorIcEEEENS_4lessIS6_EENS4_IS6_EEE5beginB8ne190107Ev, symObjAddr: 0xCF0, symBinAddr: 0x100003A50, symSize: 0x38 }
  - { offset: 0x109CA, size: 0x8, addend: 0x0, symName: __ZNSt3__13setINS_12basic_stringIcNS_11char_traitsIcEENS_9allocatorIcEEEENS_4lessIS6_EENS4_IS6_EEE3endB8ne190107Ev, symObjAddr: 0xD28, symBinAddr: 0x100003A88, symSize: 0x38 }
  - { offset: 0x109F0, size: 0x8, addend: 0x0, symName: __ZNKSt3__121__tree_const_iteratorINS_12basic_stringIcNS_11char_traitsIcEENS_9allocatorIcEEEEPNS_11__tree_nodeIS6_PvEElEdeB8ne190107Ev, symObjAddr: 0xD90, symBinAddr: 0x100003AF0, symSize: 0x28 }
  - { offset: 0x10A16, size: 0x8, addend: 0x0, symName: __ZNKSt3__13setINS_12basic_stringIcNS_11char_traitsIcEENS_9allocatorIcEEEENS_4lessIS6_EENS4_IS6_EEE4sizeB8ne190107Ev, symObjAddr: 0xDB8, symBinAddr: 0x100003B18, symSize: 0x28 }
  - { offset: 0x10A3C, size: 0x8, addend: 0x0, symName: __ZNSt3__121__tree_const_iteratorINS_12basic_stringIcNS_11char_traitsIcEENS_9allocatorIcEEEEPNS_11__tree_nodeIS6_PvEElEppB8ne190107Ev, symObjAddr: 0xDE0, symBinAddr: 0x100003B40, symSize: 0x38 }
  - { offset: 0x10A62, size: 0x8, addend: 0x0, symName: __ZNSt3__113basic_ostreamIcNS_11char_traitsIcEEElsB8ne190107EPFRS3_S4_E, symObjAddr: 0xE18, symBinAddr: 0x100003B78, symSize: 0x2C }
  - { offset: 0x10A96, size: 0x8, addend: 0x0, symName: __ZNSt3__14pairINS_12basic_stringIcNS_11char_traitsIcEENS_9allocatorIcEEEENS_3setIS6_NS_4lessIS6_EENS4_IS6_EEEEED1Ev, symObjAddr: 0xE98, symBinAddr: 0x100003BF8, symSize: 0x2C }
  - { offset: 0x10AC2, size: 0x8, addend: 0x0, symName: __ZNSt3__114__map_iteratorINS_15__tree_iteratorINS_12__value_typeINS_12basic_stringIcNS_11char_traitsIcEENS_9allocatorIcEEEENS_3setIS8_NS_4lessIS8_EENS6_IS8_EEEEEEPNS_11__tree_nodeISE_PvEElEEEppB8ne190107Ev, symObjAddr: 0xEC4, symBinAddr: 0x100003C24, symSize: 0x2C }
  - { offset: 0x10AE8, size: 0x8, addend: 0x0, symName: __ZNSt3__14pairINS_12basic_stringIcNS_11char_traitsIcEENS_9allocatorIcEEEES6_EC2B8ne190107IKS6_S6_TnNS_9enable_ifIXclsr10_CheckArgsE23__is_pair_constructibleIRKT_RKT0_EEEiE4typeELi0EEERKNS0_ISB_SE_EE, symObjAddr: 0xEF0, symBinAddr: 0x100003C50, symSize: 0x70 }
  - { offset: 0x10B38, size: 0x8, addend: 0x0, symName: __ZNSt3__14pairINS_12basic_stringIcNS_11char_traitsIcEENS_9allocatorIcEEEES6_ED2Ev, symObjAddr: 0xF60, symBinAddr: 0x100003CC0, symSize: 0x38 }
  - { offset: 0x10B64, size: 0x8, addend: 0x0, symName: __ZNSt3__14pairIKNS_12basic_stringIcNS_11char_traitsIcEENS_9allocatorIcEEEES6_EC2B8ne190107IRA6_KcSC_TnNS_9enable_ifIXclsr10_CheckArgsE23__is_pair_constructibleIT_T0_EEEiE4typeELi0EEEOSE_OSF_, symObjAddr: 0xF98, symBinAddr: 0x100003CF8, symSize: 0x70 }
  - { offset: 0x10BC7, size: 0x8, addend: 0x0, symName: __ZNSt3__112basic_stringIcNS_11char_traitsIcEENS_9allocatorIcEEEC1B8ne190107ILi0EEEPKc, symObjAddr: 0x1008, symBinAddr: 0x100003D68, symSize: 0x34 }
  - { offset: 0x10C06, size: 0x8, addend: 0x0, symName: __ZNSt3__112basic_stringIcNS_11char_traitsIcEENS_9allocatorIcEEEC2B8ne190107ILi0EEEPKc, symObjAddr: 0x103C, symBinAddr: 0x100003D9C, symSize: 0x58 }
  - { offset: 0x10C4B, size: 0x8, addend: 0x0, symName: __ZNSt3__117__compressed_pairINS_12basic_stringIcNS_11char_traitsIcEENS_9allocatorIcEEE5__repES5_EC1B8ne190107INS_18__default_init_tagESA_EEOT_OT0_, symObjAddr: 0x1094, symBinAddr: 0x100003DF4, symSize: 0x3C }
  - { offset: 0x10CA3, size: 0x8, addend: 0x0, symName: __ZNSt3__111char_traitsIcE6lengthB8ne190107EPKc, symObjAddr: 0x10D0, symBinAddr: 0x100003E30, symSize: 0x24 }
  - { offset: 0x10CC6, size: 0x8, addend: 0x0, symName: __ZNSt3__117__compressed_pairINS_12basic_stringIcNS_11char_traitsIcEENS_9allocatorIcEEE5__repES5_EC2B8ne190107INS_18__default_init_tagESA_EEOT_OT0_, symObjAddr: 0x10F4, symBinAddr: 0x100003E54, symSize: 0x3C }
  - { offset: 0x10D1E, size: 0x8, addend: 0x0, symName: __ZNSt3__122__compressed_pair_elemINS_12basic_stringIcNS_11char_traitsIcEENS_9allocatorIcEEE5__repELi0ELb0EEC2B8ne190107ENS_18__default_init_tagE, symObjAddr: 0x1130, symBinAddr: 0x100003E90, symSize: 0x14 }
  - { offset: 0x10D52, size: 0x8, addend: 0x0, symName: __ZNSt3__122__compressed_pair_elemINS_9allocatorIcEELi1ELb1EEC2B8ne190107ENS_18__default_init_tagE, symObjAddr: 0x1144, symBinAddr: 0x100003EA4, symSize: 0x2C }
  - { offset: 0x10D86, size: 0x8, addend: 0x0, symName: __ZNSt3__19allocatorIcEC2B8ne190107Ev, symObjAddr: 0x1170, symBinAddr: 0x100003ED0, symSize: 0x2C }
  - { offset: 0x10DB0, size: 0x8, addend: 0x0, symName: __ZNSt3__116__non_trivial_ifILb1ENS_9allocatorIcEEEC2B8ne190107Ev, symObjAddr: 0x119C, symBinAddr: 0x100003EFC, symSize: 0x14 }
  - { offset: 0x10DDA, size: 0x8, addend: 0x0, symName: __ZNSt3__14pairIKNS_12basic_stringIcNS_11char_traitsIcEENS_9allocatorIcEEEES6_EC2B8ne190107IRA7_KcRA6_SA_TnNS_9enable_ifIXclsr10_CheckArgsE23__is_pair_constructibleIT_T0_EEEiE4typeELi0EEEOSG_OSH_, symObjAddr: 0x11D4, symBinAddr: 0x100003F34, symSize: 0x70 }
  - { offset: 0x10E38, size: 0x8, addend: 0x0, symName: __ZNSt3__14pairIKNS_12basic_stringIcNS_11char_traitsIcEENS_9allocatorIcEEEES6_EC2B8ne190107IRA7_KcRA10_SA_TnNS_9enable_ifIXclsr10_CheckArgsE23__is_pair_constructibleIT_T0_EEEiE4typeELi0EEEOSG_OSH_, symObjAddr: 0x1244, symBinAddr: 0x100003FA4, symSize: 0x70 }
  - { offset: 0x10E96, size: 0x8, addend: 0x0, symName: __ZNSt3__14pairIKNS_12basic_stringIcNS_11char_traitsIcEENS_9allocatorIcEEEES6_EC2B8ne190107IRA9_KcRA10_SA_TnNS_9enable_ifIXclsr10_CheckArgsE23__is_pair_constructibleIT_T0_EEEiE4typeELi0EEEOSG_OSH_, symObjAddr: 0x12B4, symBinAddr: 0x100004014, symSize: 0x70 }
  - { offset: 0x10EF4, size: 0x8, addend: 0x0, symName: __ZNSt3__14pairIKNS_12basic_stringIcNS_11char_traitsIcEENS_9allocatorIcEEEES6_EC2B8ne190107IRA7_KcRA8_SA_TnNS_9enable_ifIXclsr10_CheckArgsE23__is_pair_constructibleIT_T0_EEEiE4typeELi0EEEOSG_OSH_, symObjAddr: 0x1324, symBinAddr: 0x100004084, symSize: 0x70 }
  - { offset: 0x10F52, size: 0x8, addend: 0x0, symName: __ZNSt3__14pairIKNS_12basic_stringIcNS_11char_traitsIcEENS_9allocatorIcEEEES6_EC2B8ne190107IRA8_KcSC_TnNS_9enable_ifIXclsr10_CheckArgsE23__is_pair_constructibleIT_T0_EEEiE4typeELi0EEEOSE_OSF_, symObjAddr: 0x1394, symBinAddr: 0x1000040F4, symSize: 0x70 }
  - { offset: 0x10FB0, size: 0x8, addend: 0x0, symName: __ZNSt3__14pairIKNS_12basic_stringIcNS_11char_traitsIcEENS_9allocatorIcEEEES6_ED2Ev, symObjAddr: 0x1404, symBinAddr: 0x100004164, symSize: 0x38 }
  - { offset: 0x10FDC, size: 0x8, addend: 0x0, symName: __ZNSt3__14pairINS_12basic_stringIcNS_11char_traitsIcEENS_9allocatorIcEEEENS_3setIS6_NS_4lessIS6_EENS4_IS6_EEEEEC2B8ne190107IKS6_SB_TnNS_9enable_ifIXclsr10_CheckArgsE23__is_pair_constructibleIRKT_RKT0_EEEiE4typeELi0EEERKNS0_ISG_SJ_EE, symObjAddr: 0x143C, symBinAddr: 0x10000419C, symSize: 0x70 }
  - { offset: 0x1102C, size: 0x8, addend: 0x0, symName: __ZNSt3__13setINS_12basic_stringIcNS_11char_traitsIcEENS_9allocatorIcEEEENS_4lessIS6_EENS4_IS6_EEEC1B8ne190107ERKSA_, symObjAddr: 0x14AC, symBinAddr: 0x10000420C, symSize: 0x34 }
  - { offset: 0x11065, size: 0x8, addend: 0x0, symName: __ZNSt3__13setINS_12basic_stringIcNS_11char_traitsIcEENS_9allocatorIcEEEENS_4lessIS6_EENS4_IS6_EEEC2B8ne190107ERKSA_, symObjAddr: 0x14E0, symBinAddr: 0x100004240, symSize: 0x88 }
  - { offset: 0x1109E, size: 0x8, addend: 0x0, symName: __ZNSt3__16__treeINS_12basic_stringIcNS_11char_traitsIcEENS_9allocatorIcEEEENS_4lessIS6_EENS4_IS6_EEEC1ERKSA_, symObjAddr: 0x1568, symBinAddr: 0x1000042C8, symSize: 0x34 }
  - { offset: 0x110D9, size: 0x8, addend: 0x0, symName: __ZNSt3__13setINS_12basic_stringIcNS_11char_traitsIcEENS_9allocatorIcEEEENS_4lessIS6_EENS4_IS6_EEE6insertB8ne190107INS_21__tree_const_iteratorIS6_PNS_11__tree_nodeIS6_PvEElEEEEvT_SI_, symObjAddr: 0x159C, symBinAddr: 0x1000042FC, symSize: 0x80 }
  - { offset: 0x11143, size: 0x8, addend: 0x0, symName: __ZNKSt3__13setINS_12basic_stringIcNS_11char_traitsIcEENS_9allocatorIcEEEENS_4lessIS6_EENS4_IS6_EEE5beginB8ne190107Ev, symObjAddr: 0x161C, symBinAddr: 0x10000437C, symSize: 0x2C }
  - { offset: 0x11169, size: 0x8, addend: 0x0, symName: __ZNKSt3__13setINS_12basic_stringIcNS_11char_traitsIcEENS_9allocatorIcEEEENS_4lessIS6_EENS4_IS6_EEE3endB8ne190107Ev, symObjAddr: 0x1648, symBinAddr: 0x1000043A8, symSize: 0x2C }
  - { offset: 0x1118F, size: 0x8, addend: 0x0, symName: __ZNSt3__16__treeINS_12basic_stringIcNS_11char_traitsIcEENS_9allocatorIcEEEENS_4lessIS6_EENS4_IS6_EEED1Ev, symObjAddr: 0x1674, symBinAddr: 0x1000043D4, symSize: 0x2C }
  - { offset: 0x111BB, size: 0x8, addend: 0x0, symName: __ZNSt3__16__treeINS_12basic_stringIcNS_11char_traitsIcEENS_9allocatorIcEEEENS_4lessIS6_EENS4_IS6_EEEC2ERKSA_, symObjAddr: 0x16A0, symBinAddr: 0x100004400, symSize: 0x9C }
  - { offset: 0x11201, size: 0x8, addend: 0x0, symName: __ZNSt3__116allocator_traitsINS_9allocatorINS_11__tree_nodeINS_12basic_stringIcNS_11char_traitsIcEENS1_IcEEEEPvEEEEE37select_on_container_copy_constructionB8ne190107ISA_vTnNS_9enable_ifIXntsr43__has_select_on_container_copy_constructionIKT_EE5valueEiE4typeELi0EEESA_RKSA_, symObjAddr: 0x173C, symBinAddr: 0x10000449C, symSize: 0x10 }
  - { offset: 0x11235, size: 0x8, addend: 0x0, symName: __ZNKSt3__16__treeINS_12basic_stringIcNS_11char_traitsIcEENS_9allocatorIcEEEENS_4lessIS6_EENS4_IS6_EEE12__node_allocB8ne190107Ev, symObjAddr: 0x174C, symBinAddr: 0x1000044AC, symSize: 0x28 }
  - { offset: 0x11261, size: 0x8, addend: 0x0, symName: __ZNSt3__117__compressed_pairINS_15__tree_end_nodeIPNS_16__tree_node_baseIPvEEEENS_9allocatorINS_11__tree_nodeINS_12basic_stringIcNS_11char_traitsIcEENS7_IcEEEES3_EEEEEC1B8ne190107INS_18__default_init_tagESF_EEOT_OT0_, symObjAddr: 0x1774, symBinAddr: 0x1000044D4, symSize: 0x3C }
  - { offset: 0x112B9, size: 0x8, addend: 0x0, symName: __ZNKSt3__16__treeINS_12basic_stringIcNS_11char_traitsIcEENS_9allocatorIcEEEENS_4lessIS6_EENS4_IS6_EEE10value_compB8ne190107Ev, symObjAddr: 0x17B0, symBinAddr: 0x100004510, symSize: 0x28 }
  - { offset: 0x112E5, size: 0x8, addend: 0x0, symName: __ZNSt3__117__compressed_pairImNS_4lessINS_12basic_stringIcNS_11char_traitsIcEENS_9allocatorIcEEEEEEEC1B8ne190107IiRKS8_EEOT_OT0_, symObjAddr: 0x17D8, symBinAddr: 0x100004538, symSize: 0x3C }
  - { offset: 0x1133D, size: 0x8, addend: 0x0, symName: __ZNSt3__16__treeINS_12basic_stringIcNS_11char_traitsIcEENS_9allocatorIcEEEENS_4lessIS6_EENS4_IS6_EEE10__end_nodeB8ne190107Ev, symObjAddr: 0x1814, symBinAddr: 0x100004574, symSize: 0x2C }
  - { offset: 0x11363, size: 0x8, addend: 0x0, symName: __ZNSt3__16__treeINS_12basic_stringIcNS_11char_traitsIcEENS_9allocatorIcEEEENS_4lessIS6_EENS4_IS6_EEE12__begin_nodeB8ne190107Ev, symObjAddr: 0x1840, symBinAddr: 0x1000045A0, symSize: 0x14 }
  - { offset: 0x11389, size: 0x8, addend: 0x0, symName: __ZNKSt3__117__compressed_pairINS_15__tree_end_nodeIPNS_16__tree_node_baseIPvEEEENS_9allocatorINS_11__tree_nodeINS_12basic_stringIcNS_11char_traitsIcEENS7_IcEEEES3_EEEEE6secondB8ne190107Ev, symObjAddr: 0x1854, symBinAddr: 0x1000045B4, symSize: 0x24 }
  - { offset: 0x113AF, size: 0x8, addend: 0x0, symName: __ZNKSt3__122__compressed_pair_elemINS_9allocatorINS_11__tree_nodeINS_12basic_stringIcNS_11char_traitsIcEENS1_IcEEEEPvEEEELi1ELb1EE5__getB8ne190107Ev, symObjAddr: 0x1878, symBinAddr: 0x1000045D8, symSize: 0x14 }
  - { offset: 0x113D5, size: 0x8, addend: 0x0, symName: __ZNSt3__117__compressed_pairINS_15__tree_end_nodeIPNS_16__tree_node_baseIPvEEEENS_9allocatorINS_11__tree_nodeINS_12basic_stringIcNS_11char_traitsIcEENS7_IcEEEES3_EEEEEC2B8ne190107INS_18__default_init_tagESF_EEOT_OT0_, symObjAddr: 0x188C, symBinAddr: 0x1000045EC, symSize: 0x40 }
  - { offset: 0x1142D, size: 0x8, addend: 0x0, symName: __ZNSt3__122__compressed_pair_elemINS_15__tree_end_nodeIPNS_16__tree_node_baseIPvEEEELi0ELb0EEC2B8ne190107ENS_18__default_init_tagE, symObjAddr: 0x18CC, symBinAddr: 0x10000462C, symSize: 0x2C }
  - { offset: 0x11461, size: 0x8, addend: 0x0, symName: __ZNSt3__122__compressed_pair_elemINS_9allocatorINS_11__tree_nodeINS_12basic_stringIcNS_11char_traitsIcEENS1_IcEEEEPvEEEELi1ELb1EEC2B8ne190107ISA_TnNS_9enable_ifIXntsr7is_sameISB_u7__decayIT_EEE5valueEiE4typeELi0EEEOSE_, symObjAddr: 0x18F8, symBinAddr: 0x100004658, symSize: 0x18 }
  - { offset: 0x114A8, size: 0x8, addend: 0x0, symName: __ZNSt3__115__tree_end_nodeIPNS_16__tree_node_baseIPvEEEC1B8ne190107Ev, symObjAddr: 0x1910, symBinAddr: 0x100004670, symSize: 0x2C }
  - { offset: 0x114D2, size: 0x8, addend: 0x0, symName: __ZNSt3__115__tree_end_nodeIPNS_16__tree_node_baseIPvEEEC2B8ne190107Ev, symObjAddr: 0x193C, symBinAddr: 0x10000469C, symSize: 0x18 }
  - { offset: 0x114FC, size: 0x8, addend: 0x0, symName: __ZNKSt3__117__compressed_pairImNS_4lessINS_12basic_stringIcNS_11char_traitsIcEENS_9allocatorIcEEEEEEE6secondB8ne190107Ev, symObjAddr: 0x1954, symBinAddr: 0x1000046B4, symSize: 0x24 }
  - { offset: 0x11522, size: 0x8, addend: 0x0, symName: __ZNKSt3__122__compressed_pair_elemINS_4lessINS_12basic_stringIcNS_11char_traitsIcEENS_9allocatorIcEEEEEELi1ELb1EE5__getB8ne190107Ev, symObjAddr: 0x1978, symBinAddr: 0x1000046D8, symSize: 0x14 }
  - { offset: 0x11548, size: 0x8, addend: 0x0, symName: __ZNSt3__117__compressed_pairImNS_4lessINS_12basic_stringIcNS_11char_traitsIcEENS_9allocatorIcEEEEEEEC2B8ne190107IiRKS8_EEOT_OT0_, symObjAddr: 0x198C, symBinAddr: 0x1000046EC, symSize: 0x44 }
  - { offset: 0x115A0, size: 0x8, addend: 0x0, symName: __ZNSt3__122__compressed_pair_elemImLi0ELb0EEC2B8ne190107IiTnNS_9enable_ifIXntsr7is_sameIS1_u7__decayIT_EEE5valueEiE4typeELi0EEEOS4_, symObjAddr: 0x19D0, symBinAddr: 0x100004730, symSize: 0x24 }
  - { offset: 0x115E7, size: 0x8, addend: 0x0, symName: __ZNSt3__122__compressed_pair_elemINS_4lessINS_12basic_stringIcNS_11char_traitsIcEENS_9allocatorIcEEEEEELi1ELb1EEC2B8ne190107IRKS8_TnNS_9enable_ifIXntsr7is_sameIS9_u7__decayIT_EEE5valueEiE4typeELi0EEEOSE_, symObjAddr: 0x19F4, symBinAddr: 0x100004754, symSize: 0x18 }
  - { offset: 0x1162E, size: 0x8, addend: 0x0, symName: __ZNSt3__114pointer_traitsIPNS_15__tree_end_nodeIPNS_16__tree_node_baseIPvEEEEE10pointer_toB8ne190107ERS6_, symObjAddr: 0x1A0C, symBinAddr: 0x10000476C, symSize: 0x14 }
  - { offset: 0x11651, size: 0x8, addend: 0x0, symName: __ZNSt3__117__compressed_pairINS_15__tree_end_nodeIPNS_16__tree_node_baseIPvEEEENS_9allocatorINS_11__tree_nodeINS_12basic_stringIcNS_11char_traitsIcEENS7_IcEEEES3_EEEEE5firstB8ne190107Ev, symObjAddr: 0x1A20, symBinAddr: 0x100004780, symSize: 0x24 }
  - { offset: 0x11677, size: 0x8, addend: 0x0, symName: __ZNSt3__122__compressed_pair_elemINS_15__tree_end_nodeIPNS_16__tree_node_baseIPvEEEELi0ELb0EE5__getB8ne190107Ev, symObjAddr: 0x1A44, symBinAddr: 0x1000047A4, symSize: 0x14 }
  - { offset: 0x1169D, size: 0x8, addend: 0x0, symName: __ZNKSt3__13setINS_12basic_stringIcNS_11char_traitsIcEENS_9allocatorIcEEEENS_4lessIS6_EENS4_IS6_EEE4cendB8ne190107Ev, symObjAddr: 0x1A58, symBinAddr: 0x1000047B8, symSize: 0x2C }
  - { offset: 0x116C3, size: 0x8, addend: 0x0, symName: __ZNSt3__16__treeINS_12basic_stringIcNS_11char_traitsIcEENS_9allocatorIcEEEENS_4lessIS6_EENS4_IS6_EEE15__insert_uniqueB8ne190107ENS_21__tree_const_iteratorIS6_PNS_11__tree_nodeIS6_PvEElEERKS6_, symObjAddr: 0x1A84, symBinAddr: 0x1000047E4, symSize: 0xAC }
  - { offset: 0x11707, size: 0x8, addend: 0x0, symName: __ZNSt3__16__treeINS_12basic_stringIcNS_11char_traitsIcEENS_9allocatorIcEEEENS_4lessIS6_EENS4_IS6_EEE30__emplace_hint_unique_key_argsIS6_JRKS6_EEENS_4pairINS_15__tree_iteratorIS6_PNS_11__tree_nodeIS6_PvEElEEbEENS_21__tree_const_iteratorIS6_SJ_lEERKT_DpOT0_, symObjAddr: 0x1B30, symBinAddr: 0x100004890, symSize: 0xFC }
  - { offset: 0x117D1, size: 0x8, addend: 0x0, symName: __ZNSt3__122__tree_key_value_typesINS_12basic_stringIcNS_11char_traitsIcEENS_9allocatorIcEEEEE9__get_keyB8ne190107ERKS6_, symObjAddr: 0x1C2C, symBinAddr: 0x10000498C, symSize: 0x14 }
  - { offset: 0x117F5, size: 0x8, addend: 0x0, symName: __ZNSt3__16__treeINS_12basic_stringIcNS_11char_traitsIcEENS_9allocatorIcEEEENS_4lessIS6_EENS4_IS6_EEE12__find_equalIS6_EERPNS_16__tree_node_baseIPvEENS_21__tree_const_iteratorIS6_PNS_11__tree_nodeIS6_SD_EElEERPNS_15__tree_end_nodeISF_EESG_RKT_, symObjAddr: 0x1C40, symBinAddr: 0x1000049A0, symSize: 0x2F4 }
  - { offset: 0x1189C, size: 0x8, addend: 0x0, symName: __ZNSt3__16__treeINS_12basic_stringIcNS_11char_traitsIcEENS_9allocatorIcEEEENS_4lessIS6_EENS4_IS6_EEE16__construct_nodeIJRKS6_EEENS_10unique_ptrINS_11__tree_nodeIS6_PvEENS_22__tree_node_destructorINS4_ISH_EEEEEEDpOT_, symObjAddr: 0x1F34, symBinAddr: 0x100004C94, symSize: 0x110 }
  - { offset: 0x118FB, size: 0x8, addend: 0x0, symName: __ZNSt3__16__treeINS_12basic_stringIcNS_11char_traitsIcEENS_9allocatorIcEEEENS_4lessIS6_EENS4_IS6_EEE16__insert_node_atEPNS_15__tree_end_nodeIPNS_16__tree_node_baseIPvEEEERSF_SF_, symObjAddr: 0x2044, symBinAddr: 0x100004DA4, symSize: 0xC4 }
  - { offset: 0x11950, size: 0x8, addend: 0x0, symName: __ZNKSt3__110unique_ptrINS_11__tree_nodeINS_12basic_stringIcNS_11char_traitsIcEENS_9allocatorIcEEEEPvEENS_22__tree_node_destructorINS5_IS9_EEEEE3getB8ne190107Ev, symObjAddr: 0x2108, symBinAddr: 0x100004E68, symSize: 0x28 }
  - { offset: 0x11976, size: 0x8, addend: 0x0, symName: __ZNSt3__110unique_ptrINS_11__tree_nodeINS_12basic_stringIcNS_11char_traitsIcEENS_9allocatorIcEEEEPvEENS_22__tree_node_destructorINS5_IS9_EEEEE7releaseB8ne190107Ev, symObjAddr: 0x2130, symBinAddr: 0x100004E90, symSize: 0x44 }
  - { offset: 0x119AB, size: 0x8, addend: 0x0, symName: __ZNSt3__110unique_ptrINS_11__tree_nodeINS_12basic_stringIcNS_11char_traitsIcEENS_9allocatorIcEEEEPvEENS_22__tree_node_destructorINS5_IS9_EEEEED1B8ne190107Ev, symObjAddr: 0x2174, symBinAddr: 0x100004ED4, symSize: 0x2C }
  - { offset: 0x119D5, size: 0x8, addend: 0x0, symName: __ZNSt3__115__tree_iteratorINS_12basic_stringIcNS_11char_traitsIcEENS_9allocatorIcEEEEPNS_11__tree_nodeIS6_PvEElEC1B8ne190107ESA_, symObjAddr: 0x21A0, symBinAddr: 0x100004F00, symSize: 0x34 }
  - { offset: 0x11A1A, size: 0x8, addend: 0x0, symName: __ZNSt3__14pairINS_15__tree_iteratorINS_12basic_stringIcNS_11char_traitsIcEENS_9allocatorIcEEEEPNS_11__tree_nodeIS7_PvEElEEbEC1B8ne190107ISC_RbTnNS_9enable_ifIXclsr10_CheckArgsE23__is_pair_constructibleIT_T0_EEEiE4typeELi0EEEOSH_OSI_, symObjAddr: 0x21D4, symBinAddr: 0x100004F34, symSize: 0x3C }
  - { offset: 0x11A78, size: 0x8, addend: 0x0, symName: __ZNSt3__16__treeINS_12basic_stringIcNS_11char_traitsIcEENS_9allocatorIcEEEENS_4lessIS6_EENS4_IS6_EEE3endB8ne190107Ev, symObjAddr: 0x223C, symBinAddr: 0x100004F9C, symSize: 0x34 }
  - { offset: 0x11A9E, size: 0x8, addend: 0x0, symName: __ZNSt3__121__tree_const_iteratorINS_12basic_stringIcNS_11char_traitsIcEENS_9allocatorIcEEEEPNS_11__tree_nodeIS6_PvEElEC1B8ne190107ENS_15__tree_iteratorIS6_SA_lEE, symObjAddr: 0x2270, symBinAddr: 0x100004FD0, symSize: 0x34 }
  - { offset: 0x11AD7, size: 0x8, addend: 0x0, symName: __ZNSt3__16__treeINS_12basic_stringIcNS_11char_traitsIcEENS_9allocatorIcEEEENS_4lessIS6_EENS4_IS6_EEE10value_compB8ne190107Ev, symObjAddr: 0x22A4, symBinAddr: 0x100005004, symSize: 0x28 }
  - { offset: 0x11AFD, size: 0x8, addend: 0x0, symName: __ZNKSt3__14lessINS_12basic_stringIcNS_11char_traitsIcEENS_9allocatorIcEEEEEclB8ne190107ERKS6_S9_, symObjAddr: 0x22CC, symBinAddr: 0x10000502C, symSize: 0x4C }
  - { offset: 0x11B41, size: 0x8, addend: 0x0, symName: __ZNSt3__16__treeINS_12basic_stringIcNS_11char_traitsIcEENS_9allocatorIcEEEENS_4lessIS6_EENS4_IS6_EEE5beginB8ne190107Ev, symObjAddr: 0x2318, symBinAddr: 0x100005078, symSize: 0x34 }
  - { offset: 0x11B67, size: 0x8, addend: 0x0, symName: __ZNSt3__121__tree_const_iteratorINS_12basic_stringIcNS_11char_traitsIcEENS_9allocatorIcEEEEPNS_11__tree_nodeIS6_PvEElEmmB8ne190107Ev, symObjAddr: 0x234C, symBinAddr: 0x1000050AC, symSize: 0x38 }
  - { offset: 0x11B8D, size: 0x8, addend: 0x0, symName: __ZNSt3__16__treeINS_12basic_stringIcNS_11char_traitsIcEENS_9allocatorIcEEEENS_4lessIS6_EENS4_IS6_EEE12__find_equalIS6_EERPNS_16__tree_node_baseIPvEERPNS_15__tree_end_nodeISF_EERKT_, symObjAddr: 0x2384, symBinAddr: 0x1000050E4, symSize: 0x16C }
  - { offset: 0x11BF8, size: 0x8, addend: 0x0, symName: __ZNKSt3__121__tree_const_iteratorINS_12basic_stringIcNS_11char_traitsIcEENS_9allocatorIcEEEEPNS_11__tree_nodeIS6_PvEElE8__get_npB8ne190107Ev, symObjAddr: 0x252C, symBinAddr: 0x10000528C, symSize: 0x18 }
  - { offset: 0x11C1E, size: 0x8, addend: 0x0, symName: __ZNSt3__115__tree_iteratorINS_12basic_stringIcNS_11char_traitsIcEENS_9allocatorIcEEEEPNS_11__tree_nodeIS6_PvEElEC1B8ne190107EPNS_15__tree_end_nodeIPNS_16__tree_node_baseIS8_EEEE, symObjAddr: 0x2544, symBinAddr: 0x1000052A4, symSize: 0x34 }
  - { offset: 0x11C57, size: 0x8, addend: 0x0, symName: __ZNSt3__115__tree_iteratorINS_12basic_stringIcNS_11char_traitsIcEENS_9allocatorIcEEEEPNS_11__tree_nodeIS6_PvEElEC2B8ne190107EPNS_15__tree_end_nodeIPNS_16__tree_node_baseIS8_EEEE, symObjAddr: 0x2578, symBinAddr: 0x1000052D8, symSize: 0x20 }
  - { offset: 0x11C90, size: 0x8, addend: 0x0, symName: __ZNSt3__121__tree_const_iteratorINS_12basic_stringIcNS_11char_traitsIcEENS_9allocatorIcEEEEPNS_11__tree_nodeIS6_PvEElEC2B8ne190107ENS_15__tree_iteratorIS6_SA_lEE, symObjAddr: 0x2598, symBinAddr: 0x1000052F8, symSize: 0x20 }
  - { offset: 0x11CC9, size: 0x8, addend: 0x0, symName: __ZNSt3__117__compressed_pairImNS_4lessINS_12basic_stringIcNS_11char_traitsIcEENS_9allocatorIcEEEEEEE6secondB8ne190107Ev, symObjAddr: 0x25B8, symBinAddr: 0x100005318, symSize: 0x24 }
  - { offset: 0x11CEF, size: 0x8, addend: 0x0, symName: __ZNSt3__122__compressed_pair_elemINS_4lessINS_12basic_stringIcNS_11char_traitsIcEENS_9allocatorIcEEEEEELi1ELb1EE5__getB8ne190107Ev, symObjAddr: 0x25DC, symBinAddr: 0x10000533C, symSize: 0x14 }
  - { offset: 0x11D24, size: 0x8, addend: 0x0, symName: __ZNSt3__120_CmpUnspecifiedParamC1B8ne190107EMS0_i, symObjAddr: 0x266C, symBinAddr: 0x1000053CC, symSize: 0x34 }
  - { offset: 0x11D58, size: 0x8, addend: 0x0, symName: __ZNKSt3__112basic_stringIcNS_11char_traitsIcEENS_9allocatorIcEEEcvNS_17basic_string_viewIcS2_EEB8ne190107Ev, symObjAddr: 0x2704, symBinAddr: 0x100005464, symSize: 0x50 }
  - { offset: 0x11D7E, size: 0x8, addend: 0x0, symName: __ZNKSt3__117basic_string_viewIcNS_11char_traitsIcEEE7compareES3_, symObjAddr: 0x2754, symBinAddr: 0x1000054B4, symSize: 0x124 }
  - { offset: 0x11DD1, size: 0x8, addend: 0x0, symName: __ZNKSt3__117basic_string_viewIcNS_11char_traitsIcEEE4sizeB8ne190107Ev, symObjAddr: 0x28A4, symBinAddr: 0x100005604, symSize: 0x18 }
  - { offset: 0x11DF7, size: 0x8, addend: 0x0, symName: __ZNSt3__111char_traitsIcE7compareB8ne190107EPKcS3_m, symObjAddr: 0x28CC, symBinAddr: 0x10000562C, symSize: 0x34 }
  - { offset: 0x11E36, size: 0x8, addend: 0x0, symName: __ZNKSt3__117basic_string_viewIcNS_11char_traitsIcEEE4dataB8ne190107Ev, symObjAddr: 0x2900, symBinAddr: 0x100005660, symSize: 0x18 }
  - { offset: 0x11E66, size: 0x8, addend: 0x0, symName: __ZNKSt3__16__lessIvvEclB8ne190107ImmEEbRKT_RKT0_, symObjAddr: 0x296C, symBinAddr: 0x1000056CC, symSize: 0x30 }
  - { offset: 0x11EBA, size: 0x8, addend: 0x0, symName: __ZNKSt3__112basic_stringIcNS_11char_traitsIcEENS_9allocatorIcEEE4dataB8ne190107Ev, symObjAddr: 0x299C, symBinAddr: 0x1000056FC, symSize: 0x28 }
  - { offset: 0x11EE0, size: 0x8, addend: 0x0, symName: __ZNKSt3__112basic_stringIcNS_11char_traitsIcEENS_9allocatorIcEEE4sizeB8ne190107Ev, symObjAddr: 0x29C4, symBinAddr: 0x100005724, symSize: 0x54 }
  - { offset: 0x11F06, size: 0x8, addend: 0x0, symName: __ZNSt3__117basic_string_viewIcNS_11char_traitsIcEEEC1B8ne190107EPKcm, symObjAddr: 0x2A18, symBinAddr: 0x100005778, symSize: 0x3C }
  - { offset: 0x11F4E, size: 0x8, addend: 0x0, symName: __ZNKSt3__112basic_stringIcNS_11char_traitsIcEENS_9allocatorIcEEE13__get_pointerB8ne190107Ev, symObjAddr: 0x2A68, symBinAddr: 0x1000057C8, symSize: 0x54 }
  - { offset: 0x11F74, size: 0x8, addend: 0x0, symName: __ZNKSt3__112basic_stringIcNS_11char_traitsIcEENS_9allocatorIcEEE9__is_longB8ne190107Ev, symObjAddr: 0x2ABC, symBinAddr: 0x10000581C, symSize: 0x34 }
  - { offset: 0x11F9A, size: 0x8, addend: 0x0, symName: __ZNKSt3__112basic_stringIcNS_11char_traitsIcEENS_9allocatorIcEEE18__get_long_pointerB8ne190107Ev, symObjAddr: 0x2AF0, symBinAddr: 0x100005850, symSize: 0x28 }
  - { offset: 0x11FC0, size: 0x8, addend: 0x0, symName: __ZNKSt3__112basic_stringIcNS_11char_traitsIcEENS_9allocatorIcEEE19__get_short_pointerB8ne190107Ev, symObjAddr: 0x2B18, symBinAddr: 0x100005878, symSize: 0x28 }
  - { offset: 0x11FE6, size: 0x8, addend: 0x0, symName: __ZNKSt3__117__compressed_pairINS_12basic_stringIcNS_11char_traitsIcEENS_9allocatorIcEEE5__repES5_E5firstB8ne190107Ev, symObjAddr: 0x2B40, symBinAddr: 0x1000058A0, symSize: 0x24 }
  - { offset: 0x1200C, size: 0x8, addend: 0x0, symName: __ZNKSt3__122__compressed_pair_elemINS_12basic_stringIcNS_11char_traitsIcEENS_9allocatorIcEEE5__repELi0ELb0EE5__getB8ne190107Ev, symObjAddr: 0x2B64, symBinAddr: 0x1000058C4, symSize: 0x14 }
  - { offset: 0x12032, size: 0x8, addend: 0x0, symName: __ZNSt3__114pointer_traitsIPKcE10pointer_toB8ne190107ERS1_, symObjAddr: 0x2B78, symBinAddr: 0x1000058D8, symSize: 0x14 }
  - { offset: 0x12055, size: 0x8, addend: 0x0, symName: __ZNKSt3__112basic_stringIcNS_11char_traitsIcEENS_9allocatorIcEEE15__get_long_sizeB8ne190107Ev, symObjAddr: 0x2B8C, symBinAddr: 0x1000058EC, symSize: 0x28 }
  - { offset: 0x1207B, size: 0x8, addend: 0x0, symName: __ZNKSt3__112basic_stringIcNS_11char_traitsIcEENS_9allocatorIcEEE16__get_short_sizeB8ne190107Ev, symObjAddr: 0x2BB4, symBinAddr: 0x100005914, symSize: 0x34 }
  - { offset: 0x120A1, size: 0x8, addend: 0x0, symName: __ZNSt3__117basic_string_viewIcNS_11char_traitsIcEEEC2B8ne190107EPKcm, symObjAddr: 0x2BE8, symBinAddr: 0x100005948, symSize: 0x2C }
  - { offset: 0x120E9, size: 0x8, addend: 0x0, symName: __ZNSt3__120_CmpUnspecifiedParamC2B8ne190107EMS0_i, symObjAddr: 0x2C14, symBinAddr: 0x100005974, symSize: 0x18 }
  - { offset: 0x1211D, size: 0x8, addend: 0x0, symName: __ZNKSt3__116__tree_node_baseIPvE15__parent_unsafeB8ne190107Ev, symObjAddr: 0x2D28, symBinAddr: 0x100005A88, symSize: 0x18 }
  - { offset: 0x12143, size: 0x8, addend: 0x0, symName: __ZNKSt3__16__treeINS_12basic_stringIcNS_11char_traitsIcEENS_9allocatorIcEEEENS_4lessIS6_EENS4_IS6_EEE6__rootB8ne190107Ev, symObjAddr: 0x2D40, symBinAddr: 0x100005AA0, symSize: 0x28 }
  - { offset: 0x12169, size: 0x8, addend: 0x0, symName: __ZNKSt3__16__treeINS_12basic_stringIcNS_11char_traitsIcEENS_9allocatorIcEEEENS_4lessIS6_EENS4_IS6_EEE10__root_ptrB8ne190107Ev, symObjAddr: 0x2D68, symBinAddr: 0x100005AC8, symSize: 0x24 }
  - { offset: 0x1218F, size: 0x8, addend: 0x0, symName: __ZNKSt3__16__treeINS_12basic_stringIcNS_11char_traitsIcEENS_9allocatorIcEEEENS_4lessIS6_EENS4_IS6_EEE10__end_nodeB8ne190107Ev, symObjAddr: 0x2D8C, symBinAddr: 0x100005AEC, symSize: 0x2C }
  - { offset: 0x121B5, size: 0x8, addend: 0x0, symName: __ZNKSt3__117__compressed_pairINS_15__tree_end_nodeIPNS_16__tree_node_baseIPvEEEENS_9allocatorINS_11__tree_nodeINS_12basic_stringIcNS_11char_traitsIcEENS7_IcEEEES3_EEEEE5firstB8ne190107Ev, symObjAddr: 0x2DB8, symBinAddr: 0x100005B18, symSize: 0x24 }
  - { offset: 0x121DB, size: 0x8, addend: 0x0, symName: __ZNKSt3__122__compressed_pair_elemINS_15__tree_end_nodeIPNS_16__tree_node_baseIPvEEEELi0ELb0EE5__getB8ne190107Ev, symObjAddr: 0x2DDC, symBinAddr: 0x100005B3C, symSize: 0x14 }
  - { offset: 0x12201, size: 0x8, addend: 0x0, symName: __ZNSt3__16__treeINS_12basic_stringIcNS_11char_traitsIcEENS_9allocatorIcEEEENS_4lessIS6_EENS4_IS6_EEE12__node_allocB8ne190107Ev, symObjAddr: 0x2ECC, symBinAddr: 0x100005C2C, symSize: 0x28 }
  - { offset: 0x12227, size: 0x8, addend: 0x0, symName: __ZNSt3__116allocator_traitsINS_9allocatorINS_11__tree_nodeINS_12basic_stringIcNS_11char_traitsIcEENS1_IcEEEEPvEEEEE8allocateB8ne190107ERSA_m, symObjAddr: 0x2EF4, symBinAddr: 0x100005C54, symSize: 0x2C }
  - { offset: 0x1225A, size: 0x8, addend: 0x0, symName: __ZNSt3__122__tree_node_destructorINS_9allocatorINS_11__tree_nodeINS_12basic_stringIcNS_11char_traitsIcEENS1_IcEEEEPvEEEEEC1B8ne190107ERSA_b, symObjAddr: 0x2F20, symBinAddr: 0x100005C80, symSize: 0x40 }
  - { offset: 0x122A8, size: 0x8, addend: 0x0, symName: __ZNSt3__110unique_ptrINS_11__tree_nodeINS_12basic_stringIcNS_11char_traitsIcEENS_9allocatorIcEEEEPvEENS_22__tree_node_destructorINS5_IS9_EEEEEC1B8ne190107ILb1EvEEPS9_NS_16__dependent_typeINS_27__unique_ptr_deleter_sfinaeISC_EEXT_EE20__good_rval_ref_typeE, symObjAddr: 0x2F60, symBinAddr: 0x100005CC0, symSize: 0x3C }
  - { offset: 0x122F9, size: 0x8, addend: 0x0, symName: __ZNSt3__116allocator_traitsINS_9allocatorINS_11__tree_nodeINS_12basic_stringIcNS_11char_traitsIcEENS1_IcEEEEPvEEEEE9constructB8ne190107IS7_JRKS7_EvTnNS_9enable_ifIXntsr15__has_constructISA_PT_DpT0_EE5valueEiE4typeELi0EEEvRSA_SH_DpOSI_, symObjAddr: 0x2F9C, symBinAddr: 0x100005CFC, symSize: 0x30 }
  - { offset: 0x12353, size: 0x8, addend: 0x0, symName: __ZNSt3__122__tree_key_value_typesINS_12basic_stringIcNS_11char_traitsIcEENS_9allocatorIcEEEEE9__get_ptrB8ne190107ERS6_, symObjAddr: 0x2FCC, symBinAddr: 0x100005D2C, symSize: 0x14 }
  - { offset: 0x12377, size: 0x8, addend: 0x0, symName: __ZNKSt3__110unique_ptrINS_11__tree_nodeINS_12basic_stringIcNS_11char_traitsIcEENS_9allocatorIcEEEEPvEENS_22__tree_node_destructorINS5_IS9_EEEEEptB8ne190107Ev, symObjAddr: 0x2FE0, symBinAddr: 0x100005D40, symSize: 0x28 }
  - { offset: 0x1239D, size: 0x8, addend: 0x0, symName: __ZNSt3__110unique_ptrINS_11__tree_nodeINS_12basic_stringIcNS_11char_traitsIcEENS_9allocatorIcEEEEPvEENS_22__tree_node_destructorINS5_IS9_EEEEE11get_deleterB8ne190107Ev, symObjAddr: 0x3008, symBinAddr: 0x100005D68, symSize: 0x24 }
  - { offset: 0x123C3, size: 0x8, addend: 0x0, symName: __ZNSt3__117__compressed_pairINS_15__tree_end_nodeIPNS_16__tree_node_baseIPvEEEENS_9allocatorINS_11__tree_nodeINS_12basic_stringIcNS_11char_traitsIcEENS7_IcEEEES3_EEEEE6secondB8ne190107Ev, symObjAddr: 0x302C, symBinAddr: 0x100005D8C, symSize: 0x24 }
  - { offset: 0x123E9, size: 0x8, addend: 0x0, symName: __ZNSt3__122__compressed_pair_elemINS_9allocatorINS_11__tree_nodeINS_12basic_stringIcNS_11char_traitsIcEENS1_IcEEEEPvEEEELi1ELb1EE5__getB8ne190107Ev, symObjAddr: 0x3050, symBinAddr: 0x100005DB0, symSize: 0x14 }
  - { offset: 0x1240F, size: 0x8, addend: 0x0, symName: __ZNSt3__19allocatorINS_11__tree_nodeINS_12basic_stringIcNS_11char_traitsIcEENS0_IcEEEEPvEEE8allocateB8ne190107Em, symObjAddr: 0x3064, symBinAddr: 0x100005DC4, symSize: 0x58 }
  - { offset: 0x12443, size: 0x8, addend: 0x0, symName: __ZNSt3__116allocator_traitsINS_9allocatorINS_11__tree_nodeINS_12basic_stringIcNS_11char_traitsIcEENS1_IcEEEEPvEEEEE8max_sizeB8ne190107ISA_vTnNS_9enable_ifIXntsr14__has_max_sizeIKT_EE5valueEiE4typeELi0EEEmRKSA_, symObjAddr: 0x30BC, symBinAddr: 0x100005E1C, symSize: 0x28 }
  - { offset: 0x12474, size: 0x8, addend: 0x0, symName: __ZNSt3__114numeric_limitsImE3maxB8ne190107Ev, symObjAddr: 0x3178, symBinAddr: 0x100005ED8, symSize: 0x14 }
  - { offset: 0x12488, size: 0x8, addend: 0x0, symName: __ZNSt3__123__libcpp_numeric_limitsImLb1EE3maxB8ne190107Ev, symObjAddr: 0x318C, symBinAddr: 0x100005EEC, symSize: 0x8 }
  - { offset: 0x1249C, size: 0x8, addend: 0x0, symName: __ZNSt3__122__tree_node_destructorINS_9allocatorINS_11__tree_nodeINS_12basic_stringIcNS_11char_traitsIcEENS1_IcEEEEPvEEEEEC2B8ne190107ERSA_b, symObjAddr: 0x3200, symBinAddr: 0x100005F60, symSize: 0x30 }
  - { offset: 0x124E4, size: 0x8, addend: 0x0, symName: __ZNSt3__110unique_ptrINS_11__tree_nodeINS_12basic_stringIcNS_11char_traitsIcEENS_9allocatorIcEEEEPvEENS_22__tree_node_destructorINS5_IS9_EEEEEC2B8ne190107ILb1EvEEPS9_NS_16__dependent_typeINS_27__unique_ptr_deleter_sfinaeISC_EEXT_EE20__good_rval_ref_typeE, symObjAddr: 0x3230, symBinAddr: 0x100005F90, symSize: 0x48 }
  - { offset: 0x12535, size: 0x8, addend: 0x0, symName: __ZNSt3__117__compressed_pairIPNS_11__tree_nodeINS_12basic_stringIcNS_11char_traitsIcEENS_9allocatorIcEEEEPvEENS_22__tree_node_destructorINS5_IS9_EEEEEC1B8ne190107IRSA_SD_EEOT_OT0_, symObjAddr: 0x3278, symBinAddr: 0x100005FD8, symSize: 0x3C }
  - { offset: 0x1258D, size: 0x8, addend: 0x0, symName: __ZNSt3__117__compressed_pairIPNS_11__tree_nodeINS_12basic_stringIcNS_11char_traitsIcEENS_9allocatorIcEEEEPvEENS_22__tree_node_destructorINS5_IS9_EEEEEC2B8ne190107IRSA_SD_EEOT_OT0_, symObjAddr: 0x32B4, symBinAddr: 0x100006014, symSize: 0x48 }
  - { offset: 0x125E5, size: 0x8, addend: 0x0, symName: __ZNSt3__122__compressed_pair_elemIPNS_11__tree_nodeINS_12basic_stringIcNS_11char_traitsIcEENS_9allocatorIcEEEEPvEELi0ELb0EEC2B8ne190107IRSA_TnNS_9enable_ifIXntsr7is_sameISB_u7__decayIT_EEE5valueEiE4typeELi0EEEOSF_, symObjAddr: 0x32FC, symBinAddr: 0x10000605C, symSize: 0x24 }
  - { offset: 0x1262C, size: 0x8, addend: 0x0, symName: __ZNSt3__122__compressed_pair_elemINS_22__tree_node_destructorINS_9allocatorINS_11__tree_nodeINS_12basic_stringIcNS_11char_traitsIcEENS2_IcEEEEPvEEEEEELi1ELb0EEC2B8ne190107ISC_TnNS_9enable_ifIXntsr7is_sameISD_u7__decayIT_EEE5valueEiE4typeELi0EEEOSG_, symObjAddr: 0x3320, symBinAddr: 0x100006080, symSize: 0x24 }
  - { offset: 0x12673, size: 0x8, addend: 0x0, symName: __ZNKSt3__117__compressed_pairIPNS_11__tree_nodeINS_12basic_stringIcNS_11char_traitsIcEENS_9allocatorIcEEEEPvEENS_22__tree_node_destructorINS5_IS9_EEEEE5firstB8ne190107Ev, symObjAddr: 0x33AC, symBinAddr: 0x10000610C, symSize: 0x24 }
  - { offset: 0x12699, size: 0x8, addend: 0x0, symName: __ZNKSt3__122__compressed_pair_elemIPNS_11__tree_nodeINS_12basic_stringIcNS_11char_traitsIcEENS_9allocatorIcEEEEPvEELi0ELb0EE5__getB8ne190107Ev, symObjAddr: 0x33D0, symBinAddr: 0x100006130, symSize: 0x14 }
  - { offset: 0x126BF, size: 0x8, addend: 0x0, symName: __ZNSt3__117__compressed_pairIPNS_11__tree_nodeINS_12basic_stringIcNS_11char_traitsIcEENS_9allocatorIcEEEEPvEENS_22__tree_node_destructorINS5_IS9_EEEEE6secondB8ne190107Ev, symObjAddr: 0x33E4, symBinAddr: 0x100006144, symSize: 0x28 }
  - { offset: 0x126E5, size: 0x8, addend: 0x0, symName: __ZNSt3__122__compressed_pair_elemINS_22__tree_node_destructorINS_9allocatorINS_11__tree_nodeINS_12basic_stringIcNS_11char_traitsIcEENS2_IcEEEEPvEEEEEELi1ELb0EE5__getB8ne190107Ev, symObjAddr: 0x340C, symBinAddr: 0x10000616C, symSize: 0x14 }
  - { offset: 0x1270B, size: 0x8, addend: 0x0, symName: __ZNSt3__16__treeINS_12basic_stringIcNS_11char_traitsIcEENS_9allocatorIcEEEENS_4lessIS6_EENS4_IS6_EEE4sizeB8ne190107Ev, symObjAddr: 0x367C, symBinAddr: 0x1000063DC, symSize: 0x28 }
  - { offset: 0x12731, size: 0x8, addend: 0x0, symName: __ZNSt3__116__tree_node_baseIPvE12__set_parentB8ne190107EPS2_, symObjAddr: 0x3838, symBinAddr: 0x100006598, symSize: 0x20 }
  - { offset: 0x12766, size: 0x8, addend: 0x0, symName: __ZNSt3__117__compressed_pairImNS_4lessINS_12basic_stringIcNS_11char_traitsIcEENS_9allocatorIcEEEEEEE5firstB8ne190107Ev, symObjAddr: 0x3858, symBinAddr: 0x1000065B8, symSize: 0x24 }
  - { offset: 0x1278C, size: 0x8, addend: 0x0, symName: __ZNSt3__122__compressed_pair_elemImLi0ELb0EE5__getB8ne190107Ev, symObjAddr: 0x387C, symBinAddr: 0x1000065DC, symSize: 0x14 }
  - { offset: 0x127B2, size: 0x8, addend: 0x0, symName: __ZNSt3__117__compressed_pairIPNS_11__tree_nodeINS_12basic_stringIcNS_11char_traitsIcEENS_9allocatorIcEEEEPvEENS_22__tree_node_destructorINS5_IS9_EEEEE5firstB8ne190107Ev, symObjAddr: 0x3890, symBinAddr: 0x1000065F0, symSize: 0x24 }
  - { offset: 0x127D8, size: 0x8, addend: 0x0, symName: __ZNSt3__122__compressed_pair_elemIPNS_11__tree_nodeINS_12basic_stringIcNS_11char_traitsIcEENS_9allocatorIcEEEEPvEELi0ELb0EE5__getB8ne190107Ev, symObjAddr: 0x38B4, symBinAddr: 0x100006614, symSize: 0x14 }
  - { offset: 0x127FE, size: 0x8, addend: 0x0, symName: __ZNSt3__110unique_ptrINS_11__tree_nodeINS_12basic_stringIcNS_11char_traitsIcEENS_9allocatorIcEEEEPvEENS_22__tree_node_destructorINS5_IS9_EEEEED2B8ne190107Ev, symObjAddr: 0x38C8, symBinAddr: 0x100006628, symSize: 0x30 }
  - { offset: 0x12828, size: 0x8, addend: 0x0, symName: __ZNSt3__110unique_ptrINS_11__tree_nodeINS_12basic_stringIcNS_11char_traitsIcEENS_9allocatorIcEEEEPvEENS_22__tree_node_destructorINS5_IS9_EEEEE5resetB8ne190107EPS9_, symObjAddr: 0x38F8, symBinAddr: 0x100006658, symSize: 0x70 }
  - { offset: 0x1286C, size: 0x8, addend: 0x0, symName: __ZNSt3__122__tree_node_destructorINS_9allocatorINS_11__tree_nodeINS_12basic_stringIcNS_11char_traitsIcEENS1_IcEEEEPvEEEEEclB8ne190107EPS9_, symObjAddr: 0x3968, symBinAddr: 0x1000066C8, symSize: 0x88 }
  - { offset: 0x128A1, size: 0x8, addend: 0x0, symName: __ZNSt3__116allocator_traitsINS_9allocatorINS_11__tree_nodeINS_12basic_stringIcNS_11char_traitsIcEENS1_IcEEEEPvEEEEE7destroyB8ne190107IS7_vTnNS_9enable_ifIXntsr13__has_destroyISA_PT_EE5valueEiE4typeELi0EEEvRSA_SF_, symObjAddr: 0x39F0, symBinAddr: 0x100006750, symSize: 0x28 }
  - { offset: 0x128E1, size: 0x8, addend: 0x0, symName: __ZNSt3__116allocator_traitsINS_9allocatorINS_11__tree_nodeINS_12basic_stringIcNS_11char_traitsIcEENS1_IcEEEEPvEEEEE10deallocateB8ne190107ERSA_PS9_m, symObjAddr: 0x3A18, symBinAddr: 0x100006778, symSize: 0x34 }
  - { offset: 0x12923, size: 0x8, addend: 0x0, symName: __ZNSt3__19allocatorINS_11__tree_nodeINS_12basic_stringIcNS_11char_traitsIcEENS0_IcEEEEPvEEE10deallocateB8ne190107EPS8_m, symObjAddr: 0x3A70, symBinAddr: 0x1000067D0, symSize: 0x44 }
  - { offset: 0x12965, size: 0x8, addend: 0x0, symName: __ZNSt3__115__tree_iteratorINS_12basic_stringIcNS_11char_traitsIcEENS_9allocatorIcEEEEPNS_11__tree_nodeIS6_PvEElEC2B8ne190107ESA_, symObjAddr: 0x3BD4, symBinAddr: 0x100006934, symSize: 0x20 }
  - { offset: 0x1299E, size: 0x8, addend: 0x0, symName: __ZNSt3__14pairINS_15__tree_iteratorINS_12basic_stringIcNS_11char_traitsIcEENS_9allocatorIcEEEEPNS_11__tree_nodeIS7_PvEElEEbEC2B8ne190107ISC_RbTnNS_9enable_ifIXclsr10_CheckArgsE23__is_pair_constructibleIT_T0_EEEiE4typeELi0EEEOSH_OSI_, symObjAddr: 0x3BF4, symBinAddr: 0x100006954, symSize: 0x38 }
  - { offset: 0x129FC, size: 0x8, addend: 0x0, symName: __ZNKSt3__16__treeINS_12basic_stringIcNS_11char_traitsIcEENS_9allocatorIcEEEENS_4lessIS6_EENS4_IS6_EEE5beginB8ne190107Ev, symObjAddr: 0x3C2C, symBinAddr: 0x10000698C, symSize: 0x34 }
  - { offset: 0x12A22, size: 0x8, addend: 0x0, symName: __ZNKSt3__16__treeINS_12basic_stringIcNS_11char_traitsIcEENS_9allocatorIcEEEENS_4lessIS6_EENS4_IS6_EEE12__begin_nodeB8ne190107Ev, symObjAddr: 0x3C60, symBinAddr: 0x1000069C0, symSize: 0x14 }
  - { offset: 0x12A48, size: 0x8, addend: 0x0, symName: __ZNSt3__121__tree_const_iteratorINS_12basic_stringIcNS_11char_traitsIcEENS_9allocatorIcEEEEPNS_11__tree_nodeIS6_PvEElEC1B8ne190107EPNS_15__tree_end_nodeIPNS_16__tree_node_baseIS8_EEEE, symObjAddr: 0x3C74, symBinAddr: 0x1000069D4, symSize: 0x34 }
  - { offset: 0x12A81, size: 0x8, addend: 0x0, symName: __ZNSt3__121__tree_const_iteratorINS_12basic_stringIcNS_11char_traitsIcEENS_9allocatorIcEEEEPNS_11__tree_nodeIS6_PvEElEC2B8ne190107EPNS_15__tree_end_nodeIPNS_16__tree_node_baseIS8_EEEE, symObjAddr: 0x3CA8, symBinAddr: 0x100006A08, symSize: 0x20 }
  - { offset: 0x12ABA, size: 0x8, addend: 0x0, symName: __ZNKSt3__16__treeINS_12basic_stringIcNS_11char_traitsIcEENS_9allocatorIcEEEENS_4lessIS6_EENS4_IS6_EEE3endB8ne190107Ev, symObjAddr: 0x3CC8, symBinAddr: 0x100006A28, symSize: 0x34 }
  - { offset: 0x12AE0, size: 0x8, addend: 0x0, symName: __ZNSt3__16__treeINS_12basic_stringIcNS_11char_traitsIcEENS_9allocatorIcEEEENS_4lessIS6_EENS4_IS6_EEED2Ev, symObjAddr: 0x3CFC, symBinAddr: 0x100006A5C, symSize: 0x38 }
  - { offset: 0x12B0C, size: 0x8, addend: 0x0, symName: __ZNSt3__16__treeINS_12basic_stringIcNS_11char_traitsIcEENS_9allocatorIcEEEENS_4lessIS6_EENS4_IS6_EEE7destroyEPNS_11__tree_nodeIS6_PvEE, symObjAddr: 0x3D34, symBinAddr: 0x100006A94, symSize: 0x9C }
  - { offset: 0x12B58, size: 0x8, addend: 0x0, symName: __ZNSt3__14pairINS_12basic_stringIcNS_11char_traitsIcEENS_9allocatorIcEEEENS_3setIS6_NS_4lessIS6_EENS4_IS6_EEEEED2Ev, symObjAddr: 0x3DD0, symBinAddr: 0x100006B30, symSize: 0x38 }
  - { offset: 0x12B84, size: 0x8, addend: 0x0, symName: __ZNSt3__13setINS_12basic_stringIcNS_11char_traitsIcEENS_9allocatorIcEEEENS_4lessIS6_EENS4_IS6_EEED1B8ne190107Ev, symObjAddr: 0x3E08, symBinAddr: 0x100006B68, symSize: 0x2C }
  - { offset: 0x12BAE, size: 0x8, addend: 0x0, symName: __ZNSt3__13setINS_12basic_stringIcNS_11char_traitsIcEENS_9allocatorIcEEEENS_4lessIS6_EENS4_IS6_EEED2B8ne190107Ev, symObjAddr: 0x3E34, symBinAddr: 0x100006B94, symSize: 0x2C }
  - { offset: 0x12BD8, size: 0x8, addend: 0x0, symName: __ZNSt3__13mapINS_12basic_stringIcNS_11char_traitsIcEENS_9allocatorIcEEEENS_3setIS6_NS_4lessIS6_EENS4_IS6_EEEES9_NS4_INS_4pairIKS6_SB_EEEEEC2B8ne190107Ev, symObjAddr: 0x3E60, symBinAddr: 0x100006BC0, symSize: 0x40 }
  - { offset: 0x12C02, size: 0x8, addend: 0x0, symName: __ZNSt3__119__map_value_compareINS_12basic_stringIcNS_11char_traitsIcEENS_9allocatorIcEEEENS_12__value_typeIS6_NS_3setIS6_NS_4lessIS6_EENS4_IS6_EEEEEESA_Lb1EEC1B8ne190107ESA_, symObjAddr: 0x3EA0, symBinAddr: 0x100006C00, symSize: 0x2C }
  - { offset: 0x12C3B, size: 0x8, addend: 0x0, symName: __ZNSt3__16__treeINS_12__value_typeINS_12basic_stringIcNS_11char_traitsIcEENS_9allocatorIcEEEENS_3setIS7_NS_4lessIS7_EENS5_IS7_EEEEEENS_19__map_value_compareIS7_SD_SA_Lb1EEENS5_ISD_EEEC1ERKSF_, symObjAddr: 0x3ECC, symBinAddr: 0x100006C2C, symSize: 0x34 }
  - { offset: 0x12C76, size: 0x8, addend: 0x0, symName: __ZNSt3__119__map_value_compareINS_12basic_stringIcNS_11char_traitsIcEENS_9allocatorIcEEEENS_12__value_typeIS6_NS_3setIS6_NS_4lessIS6_EENS4_IS6_EEEEEESA_Lb1EEC2B8ne190107ESA_, symObjAddr: 0x3F00, symBinAddr: 0x100006C60, symSize: 0x14 }
  - { offset: 0x12CAF, size: 0x8, addend: 0x0, symName: __ZNSt3__16__treeINS_12__value_typeINS_12basic_stringIcNS_11char_traitsIcEENS_9allocatorIcEEEENS_3setIS7_NS_4lessIS7_EENS5_IS7_EEEEEENS_19__map_value_compareIS7_SD_SA_Lb1EEENS5_ISD_EEEC2ERKSF_, symObjAddr: 0x3F14, symBinAddr: 0x100006C74, symSize: 0x7C }
  - { offset: 0x12CEA, size: 0x8, addend: 0x0, symName: __ZNSt3__117__compressed_pairINS_15__tree_end_nodeIPNS_16__tree_node_baseIPvEEEENS_9allocatorINS_11__tree_nodeINS_12__value_typeINS_12basic_stringIcNS_11char_traitsIcEENS7_IcEEEENS_3setISE_NS_4lessISE_EENS7_ISE_EEEEEES3_EEEEEC1B8ne190107ILb1ETnNS_9enable_ifIXaasr16__dependent_typeINS_24is_default_constructibleIS6_EEXT_EEE5valuesr16__dependent_typeINSQ_ISM_EEXT_EEE5valueEiE4typeELi0EEEv, symObjAddr: 0x3F90, symBinAddr: 0x100006CF0, symSize: 0x2C }
  - { offset: 0x12D24, size: 0x8, addend: 0x0, symName: __ZNSt3__117__compressed_pairImNS_19__map_value_compareINS_12basic_stringIcNS_11char_traitsIcEENS_9allocatorIcEEEENS_12__value_typeIS7_NS_3setIS7_NS_4lessIS7_EENS5_IS7_EEEEEESB_Lb1EEEEC1B8ne190107IiRKSF_EEOT_OT0_, symObjAddr: 0x3FBC, symBinAddr: 0x100006D1C, symSize: 0x3C }
  - { offset: 0x12D7C, size: 0x8, addend: 0x0, symName: __ZNSt3__16__treeINS_12__value_typeINS_12basic_stringIcNS_11char_traitsIcEENS_9allocatorIcEEEENS_3setIS7_NS_4lessIS7_EENS5_IS7_EEEEEENS_19__map_value_compareIS7_SD_SA_Lb1EEENS5_ISD_EEE10__end_nodeB8ne190107Ev, symObjAddr: 0x3FF8, symBinAddr: 0x100006D58, symSize: 0x2C }
  - { offset: 0x12DA2, size: 0x8, addend: 0x0, symName: __ZNSt3__16__treeINS_12__value_typeINS_12basic_stringIcNS_11char_traitsIcEENS_9allocatorIcEEEENS_3setIS7_NS_4lessIS7_EENS5_IS7_EEEEEENS_19__map_value_compareIS7_SD_SA_Lb1EEENS5_ISD_EEE12__begin_nodeB8ne190107Ev, symObjAddr: 0x4024, symBinAddr: 0x100006D84, symSize: 0x14 }
  - { offset: 0x12DC8, size: 0x8, addend: 0x0, symName: __ZNSt3__117__compressed_pairINS_15__tree_end_nodeIPNS_16__tree_node_baseIPvEEEENS_9allocatorINS_11__tree_nodeINS_12__value_typeINS_12basic_stringIcNS_11char_traitsIcEENS7_IcEEEENS_3setISE_NS_4lessISE_EENS7_ISE_EEEEEES3_EEEEEC2B8ne190107ILb1ETnNS_9enable_ifIXaasr16__dependent_typeINS_24is_default_constructibleIS6_EEXT_EEE5valuesr16__dependent_typeINSQ_ISM_EEXT_EEE5valueEiE4typeELi0EEEv, symObjAddr: 0x4038, symBinAddr: 0x100006D98, symSize: 0x34 }
  - { offset: 0x12E02, size: 0x8, addend: 0x0, symName: __ZNSt3__122__compressed_pair_elemINS_15__tree_end_nodeIPNS_16__tree_node_baseIPvEEEELi0ELb0EEC2B8ne190107ENS_16__value_init_tagE, symObjAddr: 0x406C, symBinAddr: 0x100006DCC, symSize: 0x2C }
  - { offset: 0x12E36, size: 0x8, addend: 0x0, symName: __ZNSt3__122__compressed_pair_elemINS_9allocatorINS_11__tree_nodeINS_12__value_typeINS_12basic_stringIcNS_11char_traitsIcEENS1_IcEEEENS_3setIS8_NS_4lessIS8_EENS1_IS8_EEEEEEPvEEEELi1ELb1EEC2B8ne190107ENS_16__value_init_tagE, symObjAddr: 0x4098, symBinAddr: 0x100006DF8, symSize: 0x2C }
  - { offset: 0x12E6A, size: 0x8, addend: 0x0, symName: __ZNSt3__19allocatorINS_11__tree_nodeINS_12__value_typeINS_12basic_stringIcNS_11char_traitsIcEENS0_IcEEEENS_3setIS7_NS_4lessIS7_EENS0_IS7_EEEEEEPvEEEC2B8ne190107Ev, symObjAddr: 0x40C4, symBinAddr: 0x100006E24, symSize: 0x2C }
  - { offset: 0x12E94, size: 0x8, addend: 0x0, symName: __ZNSt3__116__non_trivial_ifILb1ENS_9allocatorINS_11__tree_nodeINS_12__value_typeINS_12basic_stringIcNS_11char_traitsIcEENS1_IcEEEENS_3setIS8_NS_4lessIS8_EENS1_IS8_EEEEEEPvEEEEEC2B8ne190107Ev, symObjAddr: 0x40F0, symBinAddr: 0x100006E50, symSize: 0x14 }
  - { offset: 0x12EBE, size: 0x8, addend: 0x0, symName: __ZNSt3__117__compressed_pairImNS_19__map_value_compareINS_12basic_stringIcNS_11char_traitsIcEENS_9allocatorIcEEEENS_12__value_typeIS7_NS_3setIS7_NS_4lessIS7_EENS5_IS7_EEEEEESB_Lb1EEEEC2B8ne190107IiRKSF_EEOT_OT0_, symObjAddr: 0x4104, symBinAddr: 0x100006E64, symSize: 0x44 }
  - { offset: 0x12F16, size: 0x8, addend: 0x0, symName: __ZNSt3__122__compressed_pair_elemINS_19__map_value_compareINS_12basic_stringIcNS_11char_traitsIcEENS_9allocatorIcEEEENS_12__value_typeIS7_NS_3setIS7_NS_4lessIS7_EENS5_IS7_EEEEEESB_Lb1EEELi1ELb1EEC2B8ne190107IRKSF_TnNS_9enable_ifIXntsr7is_sameISG_u7__decayIT_EEE5valueEiE4typeELi0EEEOSL_, symObjAddr: 0x4148, symBinAddr: 0x100006EA8, symSize: 0x18 }
  - { offset: 0x12F5D, size: 0x8, addend: 0x0, symName: __ZNSt3__117__compressed_pairINS_15__tree_end_nodeIPNS_16__tree_node_baseIPvEEEENS_9allocatorINS_11__tree_nodeINS_12__value_typeINS_12basic_stringIcNS_11char_traitsIcEENS7_IcEEEENS_3setISE_NS_4lessISE_EENS7_ISE_EEEEEES3_EEEEE5firstB8ne190107Ev, symObjAddr: 0x4160, symBinAddr: 0x100006EC0, symSize: 0x24 }
  - { offset: 0x12F83, size: 0x8, addend: 0x0, symName: __ZNSt3__13mapINS_12basic_stringIcNS_11char_traitsIcEENS_9allocatorIcEEEENS_3setIS6_NS_4lessIS6_EENS4_IS6_EEEES9_NS4_INS_4pairIKS6_SB_EEEEED2B8ne190107Ev, symObjAddr: 0x4184, symBinAddr: 0x100006EE4, symSize: 0x2C }
  - { offset: 0x12FAD, size: 0x8, addend: 0x0, symName: __ZNSt3__16__treeINS_12__value_typeINS_12basic_stringIcNS_11char_traitsIcEENS_9allocatorIcEEEENS_3setIS7_NS_4lessIS7_EENS5_IS7_EEEEEENS_19__map_value_compareIS7_SD_SA_Lb1EEENS5_ISD_EEED1Ev, symObjAddr: 0x41B0, symBinAddr: 0x100006F10, symSize: 0x2C }
  - { offset: 0x12FD9, size: 0x8, addend: 0x0, symName: __ZNSt3__16__treeINS_12__value_typeINS_12basic_stringIcNS_11char_traitsIcEENS_9allocatorIcEEEENS_3setIS7_NS_4lessIS7_EENS5_IS7_EEEEEENS_19__map_value_compareIS7_SD_SA_Lb1EEENS5_ISD_EEED2Ev, symObjAddr: 0x41DC, symBinAddr: 0x100006F3C, symSize: 0x38 }
  - { offset: 0x13005, size: 0x8, addend: 0x0, symName: __ZNSt3__16__treeINS_12__value_typeINS_12basic_stringIcNS_11char_traitsIcEENS_9allocatorIcEEEENS_3setIS7_NS_4lessIS7_EENS5_IS7_EEEEEENS_19__map_value_compareIS7_SD_SA_Lb1EEENS5_ISD_EEE7destroyEPNS_11__tree_nodeISD_PvEE, symObjAddr: 0x4214, symBinAddr: 0x100006F74, symSize: 0xA4 }
  - { offset: 0x13051, size: 0x8, addend: 0x0, symName: __ZNKSt3__16__treeINS_12__value_typeINS_12basic_stringIcNS_11char_traitsIcEENS_9allocatorIcEEEENS_3setIS7_NS_4lessIS7_EENS5_IS7_EEEEEENS_19__map_value_compareIS7_SD_SA_Lb1EEENS5_ISD_EEE6__rootB8ne190107Ev, symObjAddr: 0x42B8, symBinAddr: 0x100007018, symSize: 0x28 }
  - { offset: 0x13077, size: 0x8, addend: 0x0, symName: __ZNSt3__16__treeINS_12__value_typeINS_12basic_stringIcNS_11char_traitsIcEENS_9allocatorIcEEEENS_3setIS7_NS_4lessIS7_EENS5_IS7_EEEEEENS_19__map_value_compareIS7_SD_SA_Lb1EEENS5_ISD_EEE12__node_allocB8ne190107Ev, symObjAddr: 0x42E0, symBinAddr: 0x100007040, symSize: 0x28 }
  - { offset: 0x1309D, size: 0x8, addend: 0x0, symName: __ZNSt3__116allocator_traitsINS_9allocatorINS_11__tree_nodeINS_12__value_typeINS_12basic_stringIcNS_11char_traitsIcEENS1_IcEEEENS_3setIS8_NS_4lessIS8_EENS1_IS8_EEEEEEPvEEEEE7destroyB8ne190107INS_4pairIKS8_SD_EEvTnNS_9enable_ifIXntsr13__has_destroyISH_PT_EE5valueEiE4typeELi0EEEvRSH_SP_, symObjAddr: 0x4308, symBinAddr: 0x100007068, symSize: 0x28 }
  - { offset: 0x130DD, size: 0x8, addend: 0x0, symName: __ZNSt3__122__tree_key_value_typesINS_12__value_typeINS_12basic_stringIcNS_11char_traitsIcEENS_9allocatorIcEEEENS_3setIS7_NS_4lessIS7_EENS5_IS7_EEEEEEE9__get_ptrB8ne190107ERSD_, symObjAddr: 0x4330, symBinAddr: 0x100007090, symSize: 0x24 }
  - { offset: 0x13101, size: 0x8, addend: 0x0, symName: __ZNSt3__116allocator_traitsINS_9allocatorINS_11__tree_nodeINS_12__value_typeINS_12basic_stringIcNS_11char_traitsIcEENS1_IcEEEENS_3setIS8_NS_4lessIS8_EENS1_IS8_EEEEEEPvEEEEE10deallocateB8ne190107ERSH_PSG_m, symObjAddr: 0x4354, symBinAddr: 0x1000070B4, symSize: 0x34 }
  - { offset: 0x13143, size: 0x8, addend: 0x0, symName: __ZNSt3__117__compressed_pairINS_15__tree_end_nodeIPNS_16__tree_node_baseIPvEEEENS_9allocatorINS_11__tree_nodeINS_12__value_typeINS_12basic_stringIcNS_11char_traitsIcEENS7_IcEEEENS_3setISE_NS_4lessISE_EENS7_ISE_EEEEEES3_EEEEE6secondB8ne190107Ev, symObjAddr: 0x4388, symBinAddr: 0x1000070E8, symSize: 0x24 }
  - { offset: 0x13169, size: 0x8, addend: 0x0, symName: __ZNSt3__122__compressed_pair_elemINS_9allocatorINS_11__tree_nodeINS_12__value_typeINS_12basic_stringIcNS_11char_traitsIcEENS1_IcEEEENS_3setIS8_NS_4lessIS8_EENS1_IS8_EEEEEEPvEEEELi1ELb1EE5__getB8ne190107Ev, symObjAddr: 0x43AC, symBinAddr: 0x10000710C, symSize: 0x14 }
  - { offset: 0x1318F, size: 0x8, addend: 0x0, symName: __ZNSt3__14pairIKNS_12basic_stringIcNS_11char_traitsIcEENS_9allocatorIcEEEENS_3setIS6_NS_4lessIS6_EENS4_IS6_EEEEED1Ev, symObjAddr: 0x43E4, symBinAddr: 0x100007144, symSize: 0x2C }
  - { offset: 0x131BB, size: 0x8, addend: 0x0, symName: __ZNSt3__14pairIKNS_12basic_stringIcNS_11char_traitsIcEENS_9allocatorIcEEEENS_3setIS6_NS_4lessIS6_EENS4_IS6_EEEEED2Ev, symObjAddr: 0x4410, symBinAddr: 0x100007170, symSize: 0x38 }
  - { offset: 0x131E7, size: 0x8, addend: 0x0, symName: __ZNSt3__112__value_typeINS_12basic_stringIcNS_11char_traitsIcEENS_9allocatorIcEEEENS_3setIS6_NS_4lessIS6_EENS4_IS6_EEEEE11__get_valueB8ne190107Ev, symObjAddr: 0x4448, symBinAddr: 0x1000071A8, symSize: 0x24 }
  - { offset: 0x1320D, size: 0x8, addend: 0x0, symName: __ZNSt3__19allocatorINS_11__tree_nodeINS_12__value_typeINS_12basic_stringIcNS_11char_traitsIcEENS0_IcEEEENS_3setIS7_NS_4lessIS7_EENS0_IS7_EEEEEEPvEEE10deallocateB8ne190107EPSF_m, symObjAddr: 0x44A4, symBinAddr: 0x100007204, symSize: 0x44 }
  - { offset: 0x1324F, size: 0x8, addend: 0x0, symName: __ZNKSt3__16__treeINS_12__value_typeINS_12basic_stringIcNS_11char_traitsIcEENS_9allocatorIcEEEENS_3setIS7_NS_4lessIS7_EENS5_IS7_EEEEEENS_19__map_value_compareIS7_SD_SA_Lb1EEENS5_ISD_EEE10__end_nodeB8ne190107Ev, symObjAddr: 0x44E8, symBinAddr: 0x100007248, symSize: 0x2C }
  - { offset: 0x13275, size: 0x8, addend: 0x0, symName: __ZNKSt3__117__compressed_pairINS_15__tree_end_nodeIPNS_16__tree_node_baseIPvEEEENS_9allocatorINS_11__tree_nodeINS_12__value_typeINS_12basic_stringIcNS_11char_traitsIcEENS7_IcEEEENS_3setISE_NS_4lessISE_EENS7_ISE_EEEEEES3_EEEEE5firstB8ne190107Ev, symObjAddr: 0x4514, symBinAddr: 0x100007274, symSize: 0x24 }
  - { offset: 0x1329B, size: 0x8, addend: 0x0, symName: __ZNSt3__16__treeINS_12__value_typeINS_12basic_stringIcNS_11char_traitsIcEENS_9allocatorIcEEEES7_EENS_19__map_value_compareIS7_S8_NS_4lessIS7_EELb1EEENS5_IS8_EEE5beginB8ne190107Ev, symObjAddr: 0x4538, symBinAddr: 0x100007298, symSize: 0x34 }
  - { offset: 0x132C1, size: 0x8, addend: 0x0, symName: __ZNSt3__114__map_iteratorINS_15__tree_iteratorINS_12__value_typeINS_12basic_stringIcNS_11char_traitsIcEENS_9allocatorIcEEEES8_EEPNS_11__tree_nodeIS9_PvEElEEEC1B8ne190107ESE_, symObjAddr: 0x456C, symBinAddr: 0x1000072CC, symSize: 0x34 }
  - { offset: 0x132FA, size: 0x8, addend: 0x0, symName: __ZNSt3__16__treeINS_12__value_typeINS_12basic_stringIcNS_11char_traitsIcEENS_9allocatorIcEEEES7_EENS_19__map_value_compareIS7_S8_NS_4lessIS7_EELb1EEENS5_IS8_EEE12__begin_nodeB8ne190107Ev, symObjAddr: 0x45A0, symBinAddr: 0x100007300, symSize: 0x14 }
  - { offset: 0x13320, size: 0x8, addend: 0x0, symName: __ZNSt3__115__tree_iteratorINS_12__value_typeINS_12basic_stringIcNS_11char_traitsIcEENS_9allocatorIcEEEES7_EEPNS_11__tree_nodeIS8_PvEElEC1B8ne190107EPNS_15__tree_end_nodeIPNS_16__tree_node_baseISA_EEEE, symObjAddr: 0x45B4, symBinAddr: 0x100007314, symSize: 0x34 }
  - { offset: 0x13359, size: 0x8, addend: 0x0, symName: __ZNSt3__115__tree_iteratorINS_12__value_typeINS_12basic_stringIcNS_11char_traitsIcEENS_9allocatorIcEEEES7_EEPNS_11__tree_nodeIS8_PvEElEC2B8ne190107EPNS_15__tree_end_nodeIPNS_16__tree_node_baseISA_EEEE, symObjAddr: 0x45E8, symBinAddr: 0x100007348, symSize: 0x20 }
  - { offset: 0x13392, size: 0x8, addend: 0x0, symName: __ZNSt3__114__map_iteratorINS_15__tree_iteratorINS_12__value_typeINS_12basic_stringIcNS_11char_traitsIcEENS_9allocatorIcEEEES8_EEPNS_11__tree_nodeIS9_PvEElEEEC2B8ne190107ESE_, symObjAddr: 0x4608, symBinAddr: 0x100007368, symSize: 0x20 }
  - { offset: 0x133CB, size: 0x8, addend: 0x0, symName: __ZNSt3__16__treeINS_12__value_typeINS_12basic_stringIcNS_11char_traitsIcEENS_9allocatorIcEEEES7_EENS_19__map_value_compareIS7_S8_NS_4lessIS7_EELb1EEENS5_IS8_EEE3endB8ne190107Ev, symObjAddr: 0x4628, symBinAddr: 0x100007388, symSize: 0x34 }
  - { offset: 0x133F1, size: 0x8, addend: 0x0, symName: __ZNSt3__16__treeINS_12__value_typeINS_12basic_stringIcNS_11char_traitsIcEENS_9allocatorIcEEEES7_EENS_19__map_value_compareIS7_S8_NS_4lessIS7_EELb1EEENS5_IS8_EEE10__end_nodeB8ne190107Ev, symObjAddr: 0x465C, symBinAddr: 0x1000073BC, symSize: 0x2C }
  - { offset: 0x13417, size: 0x8, addend: 0x0, symName: __ZNSt3__117__compressed_pairINS_15__tree_end_nodeIPNS_16__tree_node_baseIPvEEEENS_9allocatorINS_11__tree_nodeINS_12__value_typeINS_12basic_stringIcNS_11char_traitsIcEENS7_IcEEEESE_EES3_EEEEE5firstB8ne190107Ev, symObjAddr: 0x4688, symBinAddr: 0x1000073E8, symSize: 0x24 }
  - { offset: 0x1343D, size: 0x8, addend: 0x0, symName: __ZNSt3__115__tree_iteratorINS_12__value_typeINS_12basic_stringIcNS_11char_traitsIcEENS_9allocatorIcEEEES7_EEPNS_11__tree_nodeIS8_PvEElEppB8ne190107Ev, symObjAddr: 0x4708, symBinAddr: 0x100007468, symSize: 0x38 }
  - { offset: 0x13463, size: 0x8, addend: 0x0, symName: __ZNKSt3__115__tree_iteratorINS_12__value_typeINS_12basic_stringIcNS_11char_traitsIcEENS_9allocatorIcEEEES7_EEPNS_11__tree_nodeIS8_PvEElEptB8ne190107Ev, symObjAddr: 0x47F0, symBinAddr: 0x100007550, symSize: 0x2C }
  - { offset: 0x13489, size: 0x8, addend: 0x0, symName: __ZNSt3__112__value_typeINS_12basic_stringIcNS_11char_traitsIcEENS_9allocatorIcEEEES6_E11__get_valueB8ne190107Ev, symObjAddr: 0x481C, symBinAddr: 0x10000757C, symSize: 0x24 }
  - { offset: 0x134AF, size: 0x8, addend: 0x0, symName: __ZNSt3__114pointer_traitsIPNS_12__value_typeINS_12basic_stringIcNS_11char_traitsIcEENS_9allocatorIcEEEES7_EEE10pointer_toB8ne190107ERS8_, symObjAddr: 0x4840, symBinAddr: 0x1000075A0, symSize: 0x14 }
  - { offset: 0x134D2, size: 0x8, addend: 0x0, symName: __ZNKSt3__115__tree_iteratorINS_12__value_typeINS_12basic_stringIcNS_11char_traitsIcEENS_9allocatorIcEEEES7_EEPNS_11__tree_nodeIS8_PvEElE8__get_npB8ne190107Ev, symObjAddr: 0x4854, symBinAddr: 0x1000075B4, symSize: 0x18 }
  - { offset: 0x1350F, size: 0x8, addend: 0x0, symName: __ZNSt3__16__treeINS_12__value_typeINS_12basic_stringIcNS_11char_traitsIcEENS_9allocatorIcEEEENS_3setIS7_NS_4lessIS7_EENS5_IS7_EEEEEENS_19__map_value_compareIS7_SD_SA_Lb1EEENS5_ISD_EEE25__emplace_unique_key_argsIS7_JRKNS_21piecewise_construct_tENS_5tupleIJRKS7_EEENSM_IJEEEEEENS_4pairINS_15__tree_iteratorISD_PNS_11__tree_nodeISD_PvEElEEbEERKT_DpOT0_, symObjAddr: 0x48A4, symBinAddr: 0x100007604, symSize: 0xF8 }
  - { offset: 0x135E3, size: 0x8, addend: 0x0, symName: __ZNKSt3__115__tree_iteratorINS_12__value_typeINS_12basic_stringIcNS_11char_traitsIcEENS_9allocatorIcEEEENS_3setIS7_NS_4lessIS7_EENS5_IS7_EEEEEEPNS_11__tree_nodeISD_PvEElEptB8ne190107Ev, symObjAddr: 0x49CC, symBinAddr: 0x10000772C, symSize: 0x2C }
  - { offset: 0x13609, size: 0x8, addend: 0x0, symName: __ZNSt3__16__treeINS_12__value_typeINS_12basic_stringIcNS_11char_traitsIcEENS_9allocatorIcEEEENS_3setIS7_NS_4lessIS7_EENS5_IS7_EEEEEENS_19__map_value_compareIS7_SD_SA_Lb1EEENS5_ISD_EEE12__find_equalIS7_EERPNS_16__tree_node_baseIPvEERPNS_15__tree_end_nodeISM_EERKT_, symObjAddr: 0x49F8, symBinAddr: 0x100007758, symSize: 0x16C }
  - { offset: 0x13674, size: 0x8, addend: 0x0, symName: __ZNSt3__16__treeINS_12__value_typeINS_12basic_stringIcNS_11char_traitsIcEENS_9allocatorIcEEEENS_3setIS7_NS_4lessIS7_EENS5_IS7_EEEEEENS_19__map_value_compareIS7_SD_SA_Lb1EEENS5_ISD_EEE16__construct_nodeIJRKNS_21piecewise_construct_tENS_5tupleIJRKS7_EEENSM_IJEEEEEENS_10unique_ptrINS_11__tree_nodeISD_PvEENS_22__tree_node_destructorINS5_ISU_EEEEEEDpOT_, symObjAddr: 0x4B64, symBinAddr: 0x1000078C4, symSize: 0x120 }
  - { offset: 0x136FB, size: 0x8, addend: 0x0, symName: __ZNSt3__16__treeINS_12__value_typeINS_12basic_stringIcNS_11char_traitsIcEENS_9allocatorIcEEEENS_3setIS7_NS_4lessIS7_EENS5_IS7_EEEEEENS_19__map_value_compareIS7_SD_SA_Lb1EEENS5_ISD_EEE16__insert_node_atEPNS_15__tree_end_nodeIPNS_16__tree_node_baseIPvEEEERSM_SM_, symObjAddr: 0x4C84, symBinAddr: 0x1000079E4, symSize: 0xC4 }
  - { offset: 0x13750, size: 0x8, addend: 0x0, symName: __ZNKSt3__110unique_ptrINS_11__tree_nodeINS_12__value_typeINS_12basic_stringIcNS_11char_traitsIcEENS_9allocatorIcEEEENS_3setIS8_NS_4lessIS8_EENS6_IS8_EEEEEEPvEENS_22__tree_node_destructorINS6_ISG_EEEEE3getB8ne190107Ev, symObjAddr: 0x4D48, symBinAddr: 0x100007AA8, symSize: 0x28 }
  - { offset: 0x13776, size: 0x8, addend: 0x0, symName: __ZNSt3__110unique_ptrINS_11__tree_nodeINS_12__value_typeINS_12basic_stringIcNS_11char_traitsIcEENS_9allocatorIcEEEENS_3setIS8_NS_4lessIS8_EENS6_IS8_EEEEEEPvEENS_22__tree_node_destructorINS6_ISG_EEEEE7releaseB8ne190107Ev, symObjAddr: 0x4D70, symBinAddr: 0x100007AD0, symSize: 0x44 }
  - { offset: 0x137AB, size: 0x8, addend: 0x0, symName: __ZNSt3__110unique_ptrINS_11__tree_nodeINS_12__value_typeINS_12basic_stringIcNS_11char_traitsIcEENS_9allocatorIcEEEENS_3setIS8_NS_4lessIS8_EENS6_IS8_EEEEEEPvEENS_22__tree_node_destructorINS6_ISG_EEEEED1B8ne190107Ev, symObjAddr: 0x4DB4, symBinAddr: 0x100007B14, symSize: 0x2C }
  - { offset: 0x137D5, size: 0x8, addend: 0x0, symName: __ZNSt3__115__tree_iteratorINS_12__value_typeINS_12basic_stringIcNS_11char_traitsIcEENS_9allocatorIcEEEENS_3setIS7_NS_4lessIS7_EENS5_IS7_EEEEEEPNS_11__tree_nodeISD_PvEElEC1B8ne190107ESH_, symObjAddr: 0x4DE0, symBinAddr: 0x100007B40, symSize: 0x34 }
  - { offset: 0x13814, size: 0x8, addend: 0x0, symName: __ZNSt3__14pairINS_15__tree_iteratorINS_12__value_typeINS_12basic_stringIcNS_11char_traitsIcEENS_9allocatorIcEEEENS_3setIS8_NS_4lessIS8_EENS6_IS8_EEEEEEPNS_11__tree_nodeISE_PvEElEEbEC1B8ne190107ISJ_RbTnNS_9enable_ifIXclsr10_CheckArgsE23__is_pair_constructibleIT_T0_EEEiE4typeELi0EEEOSO_OSP_, symObjAddr: 0x4E14, symBinAddr: 0x100007B74, symSize: 0x3C }
  - { offset: 0x13872, size: 0x8, addend: 0x0, symName: __ZNKSt3__16__treeINS_12__value_typeINS_12basic_stringIcNS_11char_traitsIcEENS_9allocatorIcEEEENS_3setIS7_NS_4lessIS7_EENS5_IS7_EEEEEENS_19__map_value_compareIS7_SD_SA_Lb1EEENS5_ISD_EEE10__root_ptrB8ne190107Ev, symObjAddr: 0x4E50, symBinAddr: 0x100007BB0, symSize: 0x24 }
  - { offset: 0x13898, size: 0x8, addend: 0x0, symName: __ZNSt3__16__treeINS_12__value_typeINS_12basic_stringIcNS_11char_traitsIcEENS_9allocatorIcEEEENS_3setIS7_NS_4lessIS7_EENS5_IS7_EEEEEENS_19__map_value_compareIS7_SD_SA_Lb1EEENS5_ISD_EEE10value_compB8ne190107Ev, symObjAddr: 0x4E74, symBinAddr: 0x100007BD4, symSize: 0x28 }
  - { offset: 0x138BE, size: 0x8, addend: 0x0, symName: __ZNKSt3__119__map_value_compareINS_12basic_stringIcNS_11char_traitsIcEENS_9allocatorIcEEEENS_12__value_typeIS6_NS_3setIS6_NS_4lessIS6_EENS4_IS6_EEEEEESA_Lb1EEclB8ne190107ERKS6_RKSD_, symObjAddr: 0x4E9C, symBinAddr: 0x100007BFC, symSize: 0x4C }
  - { offset: 0x13902, size: 0x8, addend: 0x0, symName: __ZNKSt3__119__map_value_compareINS_12basic_stringIcNS_11char_traitsIcEENS_9allocatorIcEEEENS_12__value_typeIS6_NS_3setIS6_NS_4lessIS6_EENS4_IS6_EEEEEESA_Lb1EEclB8ne190107ERKSD_RKS6_, symObjAddr: 0x4EE8, symBinAddr: 0x100007C48, symSize: 0x44 }
  - { offset: 0x13946, size: 0x8, addend: 0x0, symName: __ZNSt3__117__compressed_pairImNS_19__map_value_compareINS_12basic_stringIcNS_11char_traitsIcEENS_9allocatorIcEEEENS_12__value_typeIS7_NS_3setIS7_NS_4lessIS7_EENS5_IS7_EEEEEESB_Lb1EEEE6secondB8ne190107Ev, symObjAddr: 0x4F2C, symBinAddr: 0x100007C8C, symSize: 0x24 }
  - { offset: 0x1396C, size: 0x8, addend: 0x0, symName: __ZNSt3__122__compressed_pair_elemINS_19__map_value_compareINS_12basic_stringIcNS_11char_traitsIcEENS_9allocatorIcEEEENS_12__value_typeIS7_NS_3setIS7_NS_4lessIS7_EENS5_IS7_EEEEEESB_Lb1EEELi1ELb1EE5__getB8ne190107Ev, symObjAddr: 0x4F50, symBinAddr: 0x100007CB0, symSize: 0x14 }
  - { offset: 0x13992, size: 0x8, addend: 0x0, symName: __ZNKSt3__112__value_typeINS_12basic_stringIcNS_11char_traitsIcEENS_9allocatorIcEEEENS_3setIS6_NS_4lessIS6_EENS4_IS6_EEEEE11__get_valueB8ne190107Ev, symObjAddr: 0x4F64, symBinAddr: 0x100007CC4, symSize: 0x24 }
  - { offset: 0x139B8, size: 0x8, addend: 0x0, symName: __ZNSt3__116allocator_traitsINS_9allocatorINS_11__tree_nodeINS_12__value_typeINS_12basic_stringIcNS_11char_traitsIcEENS1_IcEEEENS_3setIS8_NS_4lessIS8_EENS1_IS8_EEEEEEPvEEEEE8allocateB8ne190107ERSH_m, symObjAddr: 0x4FC0, symBinAddr: 0x100007D20, symSize: 0x2C }
  - { offset: 0x139EB, size: 0x8, addend: 0x0, symName: __ZNSt3__122__tree_node_destructorINS_9allocatorINS_11__tree_nodeINS_12__value_typeINS_12basic_stringIcNS_11char_traitsIcEENS1_IcEEEENS_3setIS8_NS_4lessIS8_EENS1_IS8_EEEEEEPvEEEEEC1B8ne190107ERSH_b, symObjAddr: 0x4FEC, symBinAddr: 0x100007D4C, symSize: 0x40 }
  - { offset: 0x13A39, size: 0x8, addend: 0x0, symName: __ZNSt3__110unique_ptrINS_11__tree_nodeINS_12__value_typeINS_12basic_stringIcNS_11char_traitsIcEENS_9allocatorIcEEEENS_3setIS8_NS_4lessIS8_EENS6_IS8_EEEEEEPvEENS_22__tree_node_destructorINS6_ISG_EEEEEC1B8ne190107ILb1EvEEPSG_NS_16__dependent_typeINS_27__unique_ptr_deleter_sfinaeISJ_EEXT_EE20__good_rval_ref_typeE, symObjAddr: 0x502C, symBinAddr: 0x100007D8C, symSize: 0x3C }
  - { offset: 0x13A8A, size: 0x8, addend: 0x0, symName: __ZNSt3__116allocator_traitsINS_9allocatorINS_11__tree_nodeINS_12__value_typeINS_12basic_stringIcNS_11char_traitsIcEENS1_IcEEEENS_3setIS8_NS_4lessIS8_EENS1_IS8_EEEEEEPvEEEEE9constructB8ne190107INS_4pairIKS8_SD_EEJRKNS_21piecewise_construct_tENS_5tupleIJRSL_EEENSQ_IJEEEEvTnNS_9enable_ifIXntsr15__has_constructISH_PT_DpT0_EE5valueEiE4typeELi0EEEvRSH_SW_DpOSX_, symObjAddr: 0x5068, symBinAddr: 0x100007DC8, symSize: 0x40 }
  - { offset: 0x13B0C, size: 0x8, addend: 0x0, symName: __ZNKSt3__110unique_ptrINS_11__tree_nodeINS_12__value_typeINS_12basic_stringIcNS_11char_traitsIcEENS_9allocatorIcEEEENS_3setIS8_NS_4lessIS8_EENS6_IS8_EEEEEEPvEENS_22__tree_node_destructorINS6_ISG_EEEEEptB8ne190107Ev, symObjAddr: 0x50A8, symBinAddr: 0x100007E08, symSize: 0x28 }
  - { offset: 0x13B32, size: 0x8, addend: 0x0, symName: __ZNSt3__110unique_ptrINS_11__tree_nodeINS_12__value_typeINS_12basic_stringIcNS_11char_traitsIcEENS_9allocatorIcEEEENS_3setIS8_NS_4lessIS8_EENS6_IS8_EEEEEEPvEENS_22__tree_node_destructorINS6_ISG_EEEEE11get_deleterB8ne190107Ev, symObjAddr: 0x50D0, symBinAddr: 0x100007E30, symSize: 0x24 }
  - { offset: 0x13B58, size: 0x8, addend: 0x0, symName: __ZNSt3__19allocatorINS_11__tree_nodeINS_12__value_typeINS_12basic_stringIcNS_11char_traitsIcEENS0_IcEEEENS_3setIS7_NS_4lessIS7_EENS0_IS7_EEEEEEPvEEE8allocateB8ne190107Em, symObjAddr: 0x50F4, symBinAddr: 0x100007E54, symSize: 0x58 }
  - { offset: 0x13B97, size: 0x8, addend: 0x0, symName: __ZNSt3__116allocator_traitsINS_9allocatorINS_11__tree_nodeINS_12__value_typeINS_12basic_stringIcNS_11char_traitsIcEENS1_IcEEEENS_3setIS8_NS_4lessIS8_EENS1_IS8_EEEEEEPvEEEEE8max_sizeB8ne190107ISH_vTnNS_9enable_ifIXntsr14__has_max_sizeIKT_EE5valueEiE4typeELi0EEEmRKSH_, symObjAddr: 0x514C, symBinAddr: 0x100007EAC, symSize: 0x28 }
  - { offset: 0x13BC8, size: 0x8, addend: 0x0, symName: __ZNSt3__122__tree_node_destructorINS_9allocatorINS_11__tree_nodeINS_12__value_typeINS_12basic_stringIcNS_11char_traitsIcEENS1_IcEEEENS_3setIS8_NS_4lessIS8_EENS1_IS8_EEEEEEPvEEEEEC2B8ne190107ERSH_b, symObjAddr: 0x5174, symBinAddr: 0x100007ED4, symSize: 0x30 }
  - { offset: 0x13C10, size: 0x8, addend: 0x0, symName: __ZNSt3__110unique_ptrINS_11__tree_nodeINS_12__value_typeINS_12basic_stringIcNS_11char_traitsIcEENS_9allocatorIcEEEENS_3setIS8_NS_4lessIS8_EENS6_IS8_EEEEEEPvEENS_22__tree_node_destructorINS6_ISG_EEEEEC2B8ne190107ILb1EvEEPSG_NS_16__dependent_typeINS_27__unique_ptr_deleter_sfinaeISJ_EEXT_EE20__good_rval_ref_typeE, symObjAddr: 0x51A4, symBinAddr: 0x100007F04, symSize: 0x48 }
  - { offset: 0x13C61, size: 0x8, addend: 0x0, symName: __ZNSt3__117__compressed_pairIPNS_11__tree_nodeINS_12__value_typeINS_12basic_stringIcNS_11char_traitsIcEENS_9allocatorIcEEEENS_3setIS8_NS_4lessIS8_EENS6_IS8_EEEEEEPvEENS_22__tree_node_destructorINS6_ISG_EEEEEC1B8ne190107IRSH_SK_EEOT_OT0_, symObjAddr: 0x51EC, symBinAddr: 0x100007F4C, symSize: 0x3C }
  - { offset: 0x13CB9, size: 0x8, addend: 0x0, symName: __ZNSt3__117__compressed_pairIPNS_11__tree_nodeINS_12__value_typeINS_12basic_stringIcNS_11char_traitsIcEENS_9allocatorIcEEEENS_3setIS8_NS_4lessIS8_EENS6_IS8_EEEEEEPvEENS_22__tree_node_destructorINS6_ISG_EEEEEC2B8ne190107IRSH_SK_EEOT_OT0_, symObjAddr: 0x5228, symBinAddr: 0x100007F88, symSize: 0x48 }
  - { offset: 0x13D11, size: 0x8, addend: 0x0, symName: __ZNSt3__122__compressed_pair_elemIPNS_11__tree_nodeINS_12__value_typeINS_12basic_stringIcNS_11char_traitsIcEENS_9allocatorIcEEEENS_3setIS8_NS_4lessIS8_EENS6_IS8_EEEEEEPvEELi0ELb0EEC2B8ne190107IRSH_TnNS_9enable_ifIXntsr7is_sameISI_u7__decayIT_EEE5valueEiE4typeELi0EEEOSM_, symObjAddr: 0x5270, symBinAddr: 0x100007FD0, symSize: 0x24 }
  - { offset: 0x13D58, size: 0x8, addend: 0x0, symName: __ZNSt3__122__compressed_pair_elemINS_22__tree_node_destructorINS_9allocatorINS_11__tree_nodeINS_12__value_typeINS_12basic_stringIcNS_11char_traitsIcEENS2_IcEEEENS_3setIS9_NS_4lessIS9_EENS2_IS9_EEEEEEPvEEEEEELi1ELb0EEC2B8ne190107ISJ_TnNS_9enable_ifIXntsr7is_sameISK_u7__decayIT_EEE5valueEiE4typeELi0EEEOSN_, symObjAddr: 0x5294, symBinAddr: 0x100007FF4, symSize: 0x24 }
  - { offset: 0x13D9F, size: 0x8, addend: 0x0, symName: __ZNSt3__14pairIKNS_12basic_stringIcNS_11char_traitsIcEENS_9allocatorIcEEEENS_3setIS6_NS_4lessIS6_EENS4_IS6_EEEEEC1B8ne190107IJRS7_EJEEENS_21piecewise_construct_tENS_5tupleIJDpT_EEENSH_IJDpT0_EEE, symObjAddr: 0x5344, symBinAddr: 0x1000080A4, symSize: 0x3C }
  - { offset: 0x13E03, size: 0x8, addend: 0x0, symName: __ZNSt3__14pairIKNS_12basic_stringIcNS_11char_traitsIcEENS_9allocatorIcEEEENS_3setIS6_NS_4lessIS6_EENS4_IS6_EEEEEC1B8ne190107IJRS7_EJEJLm0EETpTnmJEEENS_21piecewise_construct_tERNS_5tupleIJDpT_EEERNSH_IJDpT0_EEENS_15__tuple_indicesIJXspT1_EEEENSQ_IJXspT2_EEEE, symObjAddr: 0x5380, symBinAddr: 0x1000080E0, symSize: 0x3C }
  - { offset: 0x13E90, size: 0x8, addend: 0x0, symName: __ZNSt3__14pairIKNS_12basic_stringIcNS_11char_traitsIcEENS_9allocatorIcEEEENS_3setIS6_NS_4lessIS6_EENS4_IS6_EEEEEC2B8ne190107IJRS7_EJEJLm0EETpTnmJEEENS_21piecewise_construct_tERNS_5tupleIJDpT_EEERNSH_IJDpT0_EEENS_15__tuple_indicesIJXspT1_EEEENSQ_IJXspT2_EEEE, symObjAddr: 0x53BC, symBinAddr: 0x10000811C, symSize: 0x50 }
  - { offset: 0x13F1D, size: 0x8, addend: 0x0, symName: __ZNSt3__13setINS_12basic_stringIcNS_11char_traitsIcEENS_9allocatorIcEEEENS_4lessIS6_EENS4_IS6_EEEC1B8ne190107Ev, symObjAddr: 0x5430, symBinAddr: 0x100008190, symSize: 0x2C }
  - { offset: 0x13F47, size: 0x8, addend: 0x0, symName: __ZNSt3__112__tuple_leafILm0ERKNS_12basic_stringIcNS_11char_traitsIcEENS_9allocatorIcEEEELb0EE3getB8ne190107Ev, symObjAddr: 0x545C, symBinAddr: 0x1000081BC, symSize: 0x18 }
  - { offset: 0x13F6D, size: 0x8, addend: 0x0, symName: __ZNSt3__13setINS_12basic_stringIcNS_11char_traitsIcEENS_9allocatorIcEEEENS_4lessIS6_EENS4_IS6_EEEC2B8ne190107Ev, symObjAddr: 0x5474, symBinAddr: 0x1000081D4, symSize: 0x30 }
  - { offset: 0x13F97, size: 0x8, addend: 0x0, symName: __ZNSt3__16__treeINS_12basic_stringIcNS_11char_traitsIcEENS_9allocatorIcEEEENS_4lessIS6_EENS4_IS6_EEEC1ERKS8_, symObjAddr: 0x54A4, symBinAddr: 0x100008204, symSize: 0x34 }
  - { offset: 0x13FD2, size: 0x8, addend: 0x0, symName: __ZNSt3__16__treeINS_12basic_stringIcNS_11char_traitsIcEENS_9allocatorIcEEEENS_4lessIS6_EENS4_IS6_EEEC2ERKS8_, symObjAddr: 0x54D8, symBinAddr: 0x100008238, symSize: 0x7C }
  - { offset: 0x1400D, size: 0x8, addend: 0x0, symName: __ZNSt3__117__compressed_pairINS_15__tree_end_nodeIPNS_16__tree_node_baseIPvEEEENS_9allocatorINS_11__tree_nodeINS_12basic_stringIcNS_11char_traitsIcEENS7_IcEEEES3_EEEEEC1B8ne190107ILb1ETnNS_9enable_ifIXaasr16__dependent_typeINS_24is_default_constructibleIS6_EEXT_EEE5valuesr16__dependent_typeINSJ_ISF_EEXT_EEE5valueEiE4typeELi0EEEv, symObjAddr: 0x5554, symBinAddr: 0x1000082B4, symSize: 0x2C }
  - { offset: 0x14047, size: 0x8, addend: 0x0, symName: __ZNSt3__117__compressed_pairINS_15__tree_end_nodeIPNS_16__tree_node_baseIPvEEEENS_9allocatorINS_11__tree_nodeINS_12basic_stringIcNS_11char_traitsIcEENS7_IcEEEES3_EEEEEC2B8ne190107ILb1ETnNS_9enable_ifIXaasr16__dependent_typeINS_24is_default_constructibleIS6_EEXT_EEE5valuesr16__dependent_typeINSJ_ISF_EEXT_EEE5valueEiE4typeELi0EEEv, symObjAddr: 0x5580, symBinAddr: 0x1000082E0, symSize: 0x34 }
  - { offset: 0x14081, size: 0x8, addend: 0x0, symName: __ZNSt3__122__compressed_pair_elemINS_9allocatorINS_11__tree_nodeINS_12basic_stringIcNS_11char_traitsIcEENS1_IcEEEEPvEEEELi1ELb1EEC2B8ne190107ENS_16__value_init_tagE, symObjAddr: 0x55B4, symBinAddr: 0x100008314, symSize: 0x2C }
  - { offset: 0x140B5, size: 0x8, addend: 0x0, symName: __ZNSt3__19allocatorINS_11__tree_nodeINS_12basic_stringIcNS_11char_traitsIcEENS0_IcEEEEPvEEEC2B8ne190107Ev, symObjAddr: 0x55E0, symBinAddr: 0x100008340, symSize: 0x2C }
  - { offset: 0x140DF, size: 0x8, addend: 0x0, symName: __ZNSt3__116__non_trivial_ifILb1ENS_9allocatorINS_11__tree_nodeINS_12basic_stringIcNS_11char_traitsIcEENS1_IcEEEEPvEEEEEC2B8ne190107Ev, symObjAddr: 0x560C, symBinAddr: 0x10000836C, symSize: 0x14 }
  - { offset: 0x14109, size: 0x8, addend: 0x0, symName: __ZNKSt3__117__compressed_pairIPNS_11__tree_nodeINS_12__value_typeINS_12basic_stringIcNS_11char_traitsIcEENS_9allocatorIcEEEENS_3setIS8_NS_4lessIS8_EENS6_IS8_EEEEEEPvEENS_22__tree_node_destructorINS6_ISG_EEEEE5firstB8ne190107Ev, symObjAddr: 0x5620, symBinAddr: 0x100008380, symSize: 0x24 }
  - { offset: 0x1412F, size: 0x8, addend: 0x0, symName: __ZNKSt3__122__compressed_pair_elemIPNS_11__tree_nodeINS_12__value_typeINS_12basic_stringIcNS_11char_traitsIcEENS_9allocatorIcEEEENS_3setIS8_NS_4lessIS8_EENS6_IS8_EEEEEEPvEELi0ELb0EE5__getB8ne190107Ev, symObjAddr: 0x5644, symBinAddr: 0x1000083A4, symSize: 0x14 }
  - { offset: 0x14155, size: 0x8, addend: 0x0, symName: __ZNSt3__117__compressed_pairIPNS_11__tree_nodeINS_12__value_typeINS_12basic_stringIcNS_11char_traitsIcEENS_9allocatorIcEEEENS_3setIS8_NS_4lessIS8_EENS6_IS8_EEEEEEPvEENS_22__tree_node_destructorINS6_ISG_EEEEE6secondB8ne190107Ev, symObjAddr: 0x5658, symBinAddr: 0x1000083B8, symSize: 0x28 }
  - { offset: 0x1417B, size: 0x8, addend: 0x0, symName: __ZNSt3__122__compressed_pair_elemINS_22__tree_node_destructorINS_9allocatorINS_11__tree_nodeINS_12__value_typeINS_12basic_stringIcNS_11char_traitsIcEENS2_IcEEEENS_3setIS9_NS_4lessIS9_EENS2_IS9_EEEEEEPvEEEEEELi1ELb0EE5__getB8ne190107Ev, symObjAddr: 0x5680, symBinAddr: 0x1000083E0, symSize: 0x14 }
  - { offset: 0x141A1, size: 0x8, addend: 0x0, symName: __ZNSt3__16__treeINS_12__value_typeINS_12basic_stringIcNS_11char_traitsIcEENS_9allocatorIcEEEENS_3setIS7_NS_4lessIS7_EENS5_IS7_EEEEEENS_19__map_value_compareIS7_SD_SA_Lb1EEENS5_ISD_EEE4sizeB8ne190107Ev, symObjAddr: 0x5694, symBinAddr: 0x1000083F4, symSize: 0x28 }
  - { offset: 0x141C7, size: 0x8, addend: 0x0, symName: __ZNSt3__117__compressed_pairImNS_19__map_value_compareINS_12basic_stringIcNS_11char_traitsIcEENS_9allocatorIcEEEENS_12__value_typeIS7_NS_3setIS7_NS_4lessIS7_EENS5_IS7_EEEEEESB_Lb1EEEE5firstB8ne190107Ev, symObjAddr: 0x56BC, symBinAddr: 0x10000841C, symSize: 0x24 }
  - { offset: 0x141ED, size: 0x8, addend: 0x0, symName: __ZNSt3__117__compressed_pairIPNS_11__tree_nodeINS_12__value_typeINS_12basic_stringIcNS_11char_traitsIcEENS_9allocatorIcEEEENS_3setIS8_NS_4lessIS8_EENS6_IS8_EEEEEEPvEENS_22__tree_node_destructorINS6_ISG_EEEEE5firstB8ne190107Ev, symObjAddr: 0x56E0, symBinAddr: 0x100008440, symSize: 0x24 }
  - { offset: 0x14213, size: 0x8, addend: 0x0, symName: __ZNSt3__122__compressed_pair_elemIPNS_11__tree_nodeINS_12__value_typeINS_12basic_stringIcNS_11char_traitsIcEENS_9allocatorIcEEEENS_3setIS8_NS_4lessIS8_EENS6_IS8_EEEEEEPvEELi0ELb0EE5__getB8ne190107Ev, symObjAddr: 0x5704, symBinAddr: 0x100008464, symSize: 0x14 }
  - { offset: 0x14239, size: 0x8, addend: 0x0, symName: __ZNSt3__110unique_ptrINS_11__tree_nodeINS_12__value_typeINS_12basic_stringIcNS_11char_traitsIcEENS_9allocatorIcEEEENS_3setIS8_NS_4lessIS8_EENS6_IS8_EEEEEEPvEENS_22__tree_node_destructorINS6_ISG_EEEEED2B8ne190107Ev, symObjAddr: 0x5718, symBinAddr: 0x100008478, symSize: 0x30 }
  - { offset: 0x14263, size: 0x8, addend: 0x0, symName: __ZNSt3__110unique_ptrINS_11__tree_nodeINS_12__value_typeINS_12basic_stringIcNS_11char_traitsIcEENS_9allocatorIcEEEENS_3setIS8_NS_4lessIS8_EENS6_IS8_EEEEEEPvEENS_22__tree_node_destructorINS6_ISG_EEEEE5resetB8ne190107EPSG_, symObjAddr: 0x5748, symBinAddr: 0x1000084A8, symSize: 0x70 }
  - { offset: 0x142A7, size: 0x8, addend: 0x0, symName: __ZNSt3__122__tree_node_destructorINS_9allocatorINS_11__tree_nodeINS_12__value_typeINS_12basic_stringIcNS_11char_traitsIcEENS1_IcEEEENS_3setIS8_NS_4lessIS8_EENS1_IS8_EEEEEEPvEEEEEclB8ne190107EPSG_, symObjAddr: 0x57B8, symBinAddr: 0x100008518, symSize: 0x90 }
  - { offset: 0x142DC, size: 0x8, addend: 0x0, symName: __ZNSt3__115__tree_iteratorINS_12__value_typeINS_12basic_stringIcNS_11char_traitsIcEENS_9allocatorIcEEEENS_3setIS7_NS_4lessIS7_EENS5_IS7_EEEEEEPNS_11__tree_nodeISD_PvEElEC2B8ne190107ESH_, symObjAddr: 0x5848, symBinAddr: 0x1000085A8, symSize: 0x20 }
  - { offset: 0x14315, size: 0x8, addend: 0x0, symName: __ZNSt3__14pairINS_15__tree_iteratorINS_12__value_typeINS_12basic_stringIcNS_11char_traitsIcEENS_9allocatorIcEEEENS_3setIS8_NS_4lessIS8_EENS6_IS8_EEEEEEPNS_11__tree_nodeISE_PvEElEEbEC2B8ne190107ISJ_RbTnNS_9enable_ifIXclsr10_CheckArgsE23__is_pair_constructibleIT_T0_EEEiE4typeELi0EEEOSO_OSP_, symObjAddr: 0x5868, symBinAddr: 0x1000085C8, symSize: 0x38 }
  - { offset: 0x14373, size: 0x8, addend: 0x0, symName: __ZNSt3__15tupleIJRKNS_12basic_stringIcNS_11char_traitsIcEENS_9allocatorIcEEEEEEC1B8ne190107INS_4_AndETnNS_9enable_ifIXsrT_IJNS_17integral_constantIbLb1EEENS_21is_copy_constructibleIS8_EEEE5valueEiE4typeELi0EEES8_, symObjAddr: 0x58A0, symBinAddr: 0x100008600, symSize: 0x34 }
  - { offset: 0x143BB, size: 0x8, addend: 0x0, symName: __ZNSt3__15tupleIJRKNS_12basic_stringIcNS_11char_traitsIcEENS_9allocatorIcEEEEEEC2B8ne190107INS_4_AndETnNS_9enable_ifIXsrT_IJNS_17integral_constantIbLb1EEENS_21is_copy_constructibleIS8_EEEE5valueEiE4typeELi0EEES8_, symObjAddr: 0x58D4, symBinAddr: 0x100008634, symSize: 0x34 }
  - { offset: 0x14403, size: 0x8, addend: 0x0, symName: __ZNSt3__112__tuple_implINS_15__tuple_indicesIJLm0EEEEJRKNS_12basic_stringIcNS_11char_traitsIcEENS_9allocatorIcEEEEEEC1B8ne190107IJLm0EEJSA_ETpTnmJEJEJSA_EEENS1_IJXspT_EEEENS_13__tuple_typesIJDpT0_EEENS1_IJXspT1_EEEENSE_IJDpT2_EEEDpOT3_, symObjAddr: 0x5908, symBinAddr: 0x100008668, symSize: 0x34 }
  - { offset: 0x14498, size: 0x8, addend: 0x0, symName: __ZNSt3__112__tuple_implINS_15__tuple_indicesIJLm0EEEEJRKNS_12basic_stringIcNS_11char_traitsIcEENS_9allocatorIcEEEEEEC2B8ne190107IJLm0EEJSA_ETpTnmJEJEJSA_EEENS1_IJXspT_EEEENS_13__tuple_typesIJDpT0_EEENS1_IJXspT1_EEEENSE_IJDpT2_EEEDpOT3_, symObjAddr: 0x593C, symBinAddr: 0x10000869C, symSize: 0x34 }
  - { offset: 0x1452D, size: 0x8, addend: 0x0, symName: __ZNSt3__112__tuple_leafILm0ERKNS_12basic_stringIcNS_11char_traitsIcEENS_9allocatorIcEEEELb0EEC2B8ne190107IS8_TnNS_9enable_ifIXsr4_AndINS_17integral_constantIbXntu9__is_sameu14__remove_cvrefIT_ES9_EEEENS_16is_constructibleIS8_JSD_EEEEE5valueEiE4typeELi0EEEOSD_, symObjAddr: 0x5970, symBinAddr: 0x1000086D0, symSize: 0x20 }
  - { offset: 0x14575, size: 0x8, addend: 0x0, symName: __ZNSt3__114pointer_traitsIPNS_12__value_typeINS_12basic_stringIcNS_11char_traitsIcEENS_9allocatorIcEEEENS_3setIS7_NS_4lessIS7_EENS5_IS7_EEEEEEE10pointer_toB8ne190107ERSD_, symObjAddr: 0x5990, symBinAddr: 0x1000086F0, symSize: 0x14 }
  - { offset: 0x14598, size: 0x8, addend: 0x0, symName: __ZNKSt3__115__tree_iteratorINS_12__value_typeINS_12basic_stringIcNS_11char_traitsIcEENS_9allocatorIcEEEENS_3setIS7_NS_4lessIS7_EENS5_IS7_EEEEEEPNS_11__tree_nodeISD_PvEElE8__get_npB8ne190107Ev, symObjAddr: 0x59A4, symBinAddr: 0x100008704, symSize: 0x18 }
  - { offset: 0x145BE, size: 0x8, addend: 0x0, symName: __ZNSt3__16__treeINS_12basic_stringIcNS_11char_traitsIcEENS_9allocatorIcEEEENS_4lessIS6_EENS4_IS6_EEE15__insert_uniqueB8ne190107ERKS6_, symObjAddr: 0x59BC, symBinAddr: 0x10000871C, symSize: 0xA0 }
  - { offset: 0x145F3, size: 0x8, addend: 0x0, symName: __ZNSt3__14pairINS_21__tree_const_iteratorINS_12basic_stringIcNS_11char_traitsIcEENS_9allocatorIcEEEEPNS_11__tree_nodeIS7_PvEElEEbEC1B8ne190107INS_15__tree_iteratorIS7_SB_lEEbTnNS_9enable_ifIXclsr10_CheckArgsE23__is_pair_constructibleIT_T0_EEEiE4typeELi0EEEONS0_ISI_SJ_EE, symObjAddr: 0x5A5C, symBinAddr: 0x1000087BC, symSize: 0x34 }
  - { offset: 0x14643, size: 0x8, addend: 0x0, symName: __ZNSt3__16__treeINS_12basic_stringIcNS_11char_traitsIcEENS_9allocatorIcEEEENS_4lessIS6_EENS4_IS6_EEE25__emplace_unique_key_argsIS6_JRKS6_EEENS_4pairINS_15__tree_iteratorIS6_PNS_11__tree_nodeIS6_PvEElEEbEERKT_DpOT0_, symObjAddr: 0x5A90, symBinAddr: 0x1000087F0, symSize: 0xE8 }
  - { offset: 0x146ED, size: 0x8, addend: 0x0, symName: __ZNSt3__14pairINS_21__tree_const_iteratorINS_12basic_stringIcNS_11char_traitsIcEENS_9allocatorIcEEEEPNS_11__tree_nodeIS7_PvEElEEbEC2B8ne190107INS_15__tree_iteratorIS7_SB_lEEbTnNS_9enable_ifIXclsr10_CheckArgsE23__is_pair_constructibleIT_T0_EEEiE4typeELi0EEEONS0_ISI_SJ_EE, symObjAddr: 0x5B78, symBinAddr: 0x1000088D8, symSize: 0x50 }
  - { offset: 0x1473D, size: 0x8, addend: 0x0, symName: __ZNSt3__13mapINS_12basic_stringIcNS_11char_traitsIcEENS_9allocatorIcEEEES6_NS_4lessIS6_EENS4_INS_4pairIKS6_S6_EEEEEC2B8ne190107ESt16initializer_listISB_ERKS8_, symObjAddr: 0x5BC8, symBinAddr: 0x100008928, symSize: 0xA4 }
  - { offset: 0x14785, size: 0x8, addend: 0x0, symName: __ZNSt3__119__map_value_compareINS_12basic_stringIcNS_11char_traitsIcEENS_9allocatorIcEEEENS_12__value_typeIS6_S6_EENS_4lessIS6_EELb1EEC1B8ne190107ESA_, symObjAddr: 0x5C6C, symBinAddr: 0x1000089CC, symSize: 0x2C }
  - { offset: 0x147BE, size: 0x8, addend: 0x0, symName: __ZNSt3__16__treeINS_12__value_typeINS_12basic_stringIcNS_11char_traitsIcEENS_9allocatorIcEEEES7_EENS_19__map_value_compareIS7_S8_NS_4lessIS7_EELb1EEENS5_IS8_EEEC1ERKSC_, symObjAddr: 0x5C98, symBinAddr: 0x1000089F8, symSize: 0x34 }
  - { offset: 0x147F9, size: 0x8, addend: 0x0, symName: __ZNSt3__13mapINS_12basic_stringIcNS_11char_traitsIcEENS_9allocatorIcEEEES6_NS_4lessIS6_EENS4_INS_4pairIKS6_S6_EEEEE6insertB8ne190107IPKSB_EEvT_SH_, symObjAddr: 0x5CCC, symBinAddr: 0x100008A2C, symSize: 0x88 }
  - { offset: 0x14863, size: 0x8, addend: 0x0, symName: __ZNKSt16initializer_listINSt3__14pairIKNS0_12basic_stringIcNS0_11char_traitsIcEENS0_9allocatorIcEEEES7_EEE5beginB8ne190107Ev, symObjAddr: 0x5D54, symBinAddr: 0x100008AB4, symSize: 0x18 }
  - { offset: 0x14889, size: 0x8, addend: 0x0, symName: __ZNKSt16initializer_listINSt3__14pairIKNS0_12basic_stringIcNS0_11char_traitsIcEENS0_9allocatorIcEEEES7_EEE3endB8ne190107Ev, symObjAddr: 0x5D6C, symBinAddr: 0x100008ACC, symSize: 0x28 }
  - { offset: 0x148AF, size: 0x8, addend: 0x0, symName: __ZNSt3__16__treeINS_12__value_typeINS_12basic_stringIcNS_11char_traitsIcEENS_9allocatorIcEEEES7_EENS_19__map_value_compareIS7_S8_NS_4lessIS7_EELb1EEENS5_IS8_EEED1Ev, symObjAddr: 0x5D94, symBinAddr: 0x100008AF4, symSize: 0x2C }
  - { offset: 0x148DB, size: 0x8, addend: 0x0, symName: __ZNSt3__119__map_value_compareINS_12basic_stringIcNS_11char_traitsIcEENS_9allocatorIcEEEENS_12__value_typeIS6_S6_EENS_4lessIS6_EELb1EEC2B8ne190107ESA_, symObjAddr: 0x5DC0, symBinAddr: 0x100008B20, symSize: 0x14 }
  - { offset: 0x14914, size: 0x8, addend: 0x0, symName: __ZNSt3__16__treeINS_12__value_typeINS_12basic_stringIcNS_11char_traitsIcEENS_9allocatorIcEEEES7_EENS_19__map_value_compareIS7_S8_NS_4lessIS7_EELb1EEENS5_IS8_EEEC2ERKSC_, symObjAddr: 0x5DD4, symBinAddr: 0x100008B34, symSize: 0x7C }
  - { offset: 0x1494F, size: 0x8, addend: 0x0, symName: __ZNSt3__117__compressed_pairINS_15__tree_end_nodeIPNS_16__tree_node_baseIPvEEEENS_9allocatorINS_11__tree_nodeINS_12__value_typeINS_12basic_stringIcNS_11char_traitsIcEENS7_IcEEEESE_EES3_EEEEEC1B8ne190107ILb1ETnNS_9enable_ifIXaasr16__dependent_typeINS_24is_default_constructibleIS6_EEXT_EEE5valuesr16__dependent_typeINSL_ISH_EEXT_EEE5valueEiE4typeELi0EEEv, symObjAddr: 0x5E50, symBinAddr: 0x100008BB0, symSize: 0x2C }
  - { offset: 0x14989, size: 0x8, addend: 0x0, symName: __ZNSt3__117__compressed_pairImNS_19__map_value_compareINS_12basic_stringIcNS_11char_traitsIcEENS_9allocatorIcEEEENS_12__value_typeIS7_S7_EENS_4lessIS7_EELb1EEEEC1B8ne190107IiRKSC_EEOT_OT0_, symObjAddr: 0x5E7C, symBinAddr: 0x100008BDC, symSize: 0x3C }
  - { offset: 0x149E1, size: 0x8, addend: 0x0, symName: __ZNSt3__117__compressed_pairINS_15__tree_end_nodeIPNS_16__tree_node_baseIPvEEEENS_9allocatorINS_11__tree_nodeINS_12__value_typeINS_12basic_stringIcNS_11char_traitsIcEENS7_IcEEEESE_EES3_EEEEEC2B8ne190107ILb1ETnNS_9enable_ifIXaasr16__dependent_typeINS_24is_default_constructibleIS6_EEXT_EEE5valuesr16__dependent_typeINSL_ISH_EEXT_EEE5valueEiE4typeELi0EEEv, symObjAddr: 0x5EB8, symBinAddr: 0x100008C18, symSize: 0x34 }
  - { offset: 0x14A1B, size: 0x8, addend: 0x0, symName: __ZNSt3__122__compressed_pair_elemINS_9allocatorINS_11__tree_nodeINS_12__value_typeINS_12basic_stringIcNS_11char_traitsIcEENS1_IcEEEES8_EEPvEEEELi1ELb1EEC2B8ne190107ENS_16__value_init_tagE, symObjAddr: 0x5EEC, symBinAddr: 0x100008C4C, symSize: 0x2C }
  - { offset: 0x14A4F, size: 0x8, addend: 0x0, symName: __ZNSt3__19allocatorINS_11__tree_nodeINS_12__value_typeINS_12basic_stringIcNS_11char_traitsIcEENS0_IcEEEES7_EEPvEEEC2B8ne190107Ev, symObjAddr: 0x5F18, symBinAddr: 0x100008C78, symSize: 0x2C }
  - { offset: 0x14A79, size: 0x8, addend: 0x0, symName: __ZNSt3__116__non_trivial_ifILb1ENS_9allocatorINS_11__tree_nodeINS_12__value_typeINS_12basic_stringIcNS_11char_traitsIcEENS1_IcEEEES8_EEPvEEEEEC2B8ne190107Ev, symObjAddr: 0x5F44, symBinAddr: 0x100008CA4, symSize: 0x14 }
  - { offset: 0x14AA3, size: 0x8, addend: 0x0, symName: __ZNSt3__117__compressed_pairImNS_19__map_value_compareINS_12basic_stringIcNS_11char_traitsIcEENS_9allocatorIcEEEENS_12__value_typeIS7_S7_EENS_4lessIS7_EELb1EEEEC2B8ne190107IiRKSC_EEOT_OT0_, symObjAddr: 0x5F58, symBinAddr: 0x100008CB8, symSize: 0x44 }
  - { offset: 0x14AFB, size: 0x8, addend: 0x0, symName: __ZNSt3__122__compressed_pair_elemINS_19__map_value_compareINS_12basic_stringIcNS_11char_traitsIcEENS_9allocatorIcEEEENS_12__value_typeIS7_S7_EENS_4lessIS7_EELb1EEELi1ELb1EEC2B8ne190107IRKSC_TnNS_9enable_ifIXntsr7is_sameISD_u7__decayIT_EEE5valueEiE4typeELi0EEEOSI_, symObjAddr: 0x5F9C, symBinAddr: 0x100008CFC, symSize: 0x18 }
  - { offset: 0x14B42, size: 0x8, addend: 0x0, symName: __ZNKSt3__13mapINS_12basic_stringIcNS_11char_traitsIcEENS_9allocatorIcEEEES6_NS_4lessIS6_EENS4_INS_4pairIKS6_S6_EEEEE4cendB8ne190107Ev, symObjAddr: 0x5FB4, symBinAddr: 0x100008D14, symSize: 0x2C }
  - { offset: 0x14B68, size: 0x8, addend: 0x0, symName: __ZNSt3__13mapINS_12basic_stringIcNS_11char_traitsIcEENS_9allocatorIcEEEES6_NS_4lessIS6_EENS4_INS_4pairIKS6_S6_EEEEE6insertB8ne190107ENS_20__map_const_iteratorINS_21__tree_const_iteratorINS_12__value_typeIS6_S6_EEPNS_11__tree_nodeISH_PvEElEEEERKSB_, symObjAddr: 0x5FE0, symBinAddr: 0x100008D40, symSize: 0x50 }
  - { offset: 0x14BAC, size: 0x8, addend: 0x0, symName: __ZNSt3__120__map_const_iteratorINS_21__tree_const_iteratorINS_12__value_typeINS_12basic_stringIcNS_11char_traitsIcEENS_9allocatorIcEEEES8_EEPNS_11__tree_nodeIS9_PvEElEEEC1B8ne190107ESE_, symObjAddr: 0x6030, symBinAddr: 0x100008D90, symSize: 0x34 }
  - { offset: 0x14BE5, size: 0x8, addend: 0x0, symName: __ZNKSt3__13mapINS_12basic_stringIcNS_11char_traitsIcEENS_9allocatorIcEEEES6_NS_4lessIS6_EENS4_INS_4pairIKS6_S6_EEEEE3endB8ne190107Ev, symObjAddr: 0x6064, symBinAddr: 0x100008DC4, symSize: 0x38 }
  - { offset: 0x14C0B, size: 0x8, addend: 0x0, symName: __ZNKSt3__16__treeINS_12__value_typeINS_12basic_stringIcNS_11char_traitsIcEENS_9allocatorIcEEEES7_EENS_19__map_value_compareIS7_S8_NS_4lessIS7_EELb1EEENS5_IS8_EEE3endB8ne190107Ev, symObjAddr: 0x609C, symBinAddr: 0x100008DFC, symSize: 0x34 }
  - { offset: 0x14C31, size: 0x8, addend: 0x0, symName: __ZNKSt3__16__treeINS_12__value_typeINS_12basic_stringIcNS_11char_traitsIcEENS_9allocatorIcEEEES7_EENS_19__map_value_compareIS7_S8_NS_4lessIS7_EELb1EEENS5_IS8_EEE10__end_nodeB8ne190107Ev, symObjAddr: 0x60D0, symBinAddr: 0x100008E30, symSize: 0x2C }
  - { offset: 0x14C57, size: 0x8, addend: 0x0, symName: __ZNSt3__121__tree_const_iteratorINS_12__value_typeINS_12basic_stringIcNS_11char_traitsIcEENS_9allocatorIcEEEES7_EEPNS_11__tree_nodeIS8_PvEElEC1B8ne190107EPNS_15__tree_end_nodeIPNS_16__tree_node_baseISA_EEEE, symObjAddr: 0x60FC, symBinAddr: 0x100008E5C, symSize: 0x34 }
  - { offset: 0x14C90, size: 0x8, addend: 0x0, symName: __ZNKSt3__117__compressed_pairINS_15__tree_end_nodeIPNS_16__tree_node_baseIPvEEEENS_9allocatorINS_11__tree_nodeINS_12__value_typeINS_12basic_stringIcNS_11char_traitsIcEENS7_IcEEEESE_EES3_EEEEE5firstB8ne190107Ev, symObjAddr: 0x6130, symBinAddr: 0x100008E90, symSize: 0x24 }
  - { offset: 0x14CB6, size: 0x8, addend: 0x0, symName: __ZNSt3__121__tree_const_iteratorINS_12__value_typeINS_12basic_stringIcNS_11char_traitsIcEENS_9allocatorIcEEEES7_EEPNS_11__tree_nodeIS8_PvEElEC2B8ne190107EPNS_15__tree_end_nodeIPNS_16__tree_node_baseISA_EEEE, symObjAddr: 0x6154, symBinAddr: 0x100008EB4, symSize: 0x20 }
  - { offset: 0x14CEF, size: 0x8, addend: 0x0, symName: __ZNSt3__16__treeINS_12__value_typeINS_12basic_stringIcNS_11char_traitsIcEENS_9allocatorIcEEEES7_EENS_19__map_value_compareIS7_S8_NS_4lessIS7_EELb1EEENS5_IS8_EEE15__insert_uniqueB8ne190107ENS_21__tree_const_iteratorIS8_PNS_11__tree_nodeIS8_PvEElEERKNS_4pairIKS7_S7_EE, symObjAddr: 0x6174, symBinAddr: 0x100008ED4, symSize: 0xAC }
  - { offset: 0x14D33, size: 0x8, addend: 0x0, symName: __ZNSt3__16__treeINS_12__value_typeINS_12basic_stringIcNS_11char_traitsIcEENS_9allocatorIcEEEES7_EENS_19__map_value_compareIS7_S8_NS_4lessIS7_EELb1EEENS5_IS8_EEE30__emplace_hint_unique_key_argsIS7_JRKNS_4pairIKS7_S7_EEEEENSG_INS_15__tree_iteratorIS8_PNS_11__tree_nodeIS8_PvEElEEbEENS_21__tree_const_iteratorIS8_SP_lEERKT_DpOT0_, symObjAddr: 0x6220, symBinAddr: 0x100008F80, symSize: 0xFC }
  - { offset: 0x14DFD, size: 0x8, addend: 0x0, symName: __ZNSt3__122__tree_key_value_typesINS_12__value_typeINS_12basic_stringIcNS_11char_traitsIcEENS_9allocatorIcEEEES7_EEE9__get_keyB8ne190107IKNS_4pairIKS7_S7_EETnNS_9enable_ifIXsr17__is_same_uncvrefIT_SD_EE5valueEiE4typeELi0EEERSC_RSG_, symObjAddr: 0x631C, symBinAddr: 0x10000907C, symSize: 0x14 }
  - { offset: 0x14E30, size: 0x8, addend: 0x0, symName: __ZNSt3__16__treeINS_12__value_typeINS_12basic_stringIcNS_11char_traitsIcEENS_9allocatorIcEEEES7_EENS_19__map_value_compareIS7_S8_NS_4lessIS7_EELb1EEENS5_IS8_EEE12__find_equalIS7_EERPNS_16__tree_node_baseIPvEENS_21__tree_const_iteratorIS8_PNS_11__tree_nodeIS8_SH_EElEERPNS_15__tree_end_nodeISJ_EESK_RKT_, symObjAddr: 0x6330, symBinAddr: 0x100009090, symSize: 0x2F4 }
  - { offset: 0x14ED7, size: 0x8, addend: 0x0, symName: __ZNSt3__16__treeINS_12__value_typeINS_12basic_stringIcNS_11char_traitsIcEENS_9allocatorIcEEEES7_EENS_19__map_value_compareIS7_S8_NS_4lessIS7_EELb1EEENS5_IS8_EEE16__construct_nodeIJRKNS_4pairIKS7_S7_EEEEENS_10unique_ptrINS_11__tree_nodeIS8_PvEENS_22__tree_node_destructorINS5_ISO_EEEEEEDpOT_, symObjAddr: 0x6624, symBinAddr: 0x100009384, symSize: 0x110 }
  - { offset: 0x14F36, size: 0x8, addend: 0x0, symName: __ZNSt3__16__treeINS_12__value_typeINS_12basic_stringIcNS_11char_traitsIcEENS_9allocatorIcEEEES7_EENS_19__map_value_compareIS7_S8_NS_4lessIS7_EELb1EEENS5_IS8_EEE16__insert_node_atEPNS_15__tree_end_nodeIPNS_16__tree_node_baseIPvEEEERSJ_SJ_, symObjAddr: 0x6734, symBinAddr: 0x100009494, symSize: 0xC4 }
  - { offset: 0x14F8B, size: 0x8, addend: 0x0, symName: __ZNKSt3__110unique_ptrINS_11__tree_nodeINS_12__value_typeINS_12basic_stringIcNS_11char_traitsIcEENS_9allocatorIcEEEES8_EEPvEENS_22__tree_node_destructorINS6_ISB_EEEEE3getB8ne190107Ev, symObjAddr: 0x67F8, symBinAddr: 0x100009558, symSize: 0x28 }
  - { offset: 0x14FB1, size: 0x8, addend: 0x0, symName: __ZNSt3__110unique_ptrINS_11__tree_nodeINS_12__value_typeINS_12basic_stringIcNS_11char_traitsIcEENS_9allocatorIcEEEES8_EEPvEENS_22__tree_node_destructorINS6_ISB_EEEEE7releaseB8ne190107Ev, symObjAddr: 0x6820, symBinAddr: 0x100009580, symSize: 0x44 }
  - { offset: 0x14FE6, size: 0x8, addend: 0x0, symName: __ZNSt3__110unique_ptrINS_11__tree_nodeINS_12__value_typeINS_12basic_stringIcNS_11char_traitsIcEENS_9allocatorIcEEEES8_EEPvEENS_22__tree_node_destructorINS6_ISB_EEEEED1B8ne190107Ev, symObjAddr: 0x6864, symBinAddr: 0x1000095C4, symSize: 0x2C }
  - { offset: 0x15010, size: 0x8, addend: 0x0, symName: __ZNSt3__115__tree_iteratorINS_12__value_typeINS_12basic_stringIcNS_11char_traitsIcEENS_9allocatorIcEEEES7_EEPNS_11__tree_nodeIS8_PvEElEC1B8ne190107ESC_, symObjAddr: 0x6890, symBinAddr: 0x1000095F0, symSize: 0x34 }
  - { offset: 0x1504F, size: 0x8, addend: 0x0, symName: __ZNSt3__14pairINS_15__tree_iteratorINS_12__value_typeINS_12basic_stringIcNS_11char_traitsIcEENS_9allocatorIcEEEES8_EEPNS_11__tree_nodeIS9_PvEElEEbEC1B8ne190107ISE_RbTnNS_9enable_ifIXclsr10_CheckArgsE23__is_pair_constructibleIT_T0_EEEiE4typeELi0EEEOSJ_OSK_, symObjAddr: 0x68C4, symBinAddr: 0x100009624, symSize: 0x3C }
  - { offset: 0x150AD, size: 0x8, addend: 0x0, symName: __ZNSt3__121__tree_const_iteratorINS_12__value_typeINS_12basic_stringIcNS_11char_traitsIcEENS_9allocatorIcEEEES7_EEPNS_11__tree_nodeIS8_PvEElEC1B8ne190107ENS_15__tree_iteratorIS8_SC_lEE, symObjAddr: 0x692C, symBinAddr: 0x10000968C, symSize: 0x34 }
  - { offset: 0x150E6, size: 0x8, addend: 0x0, symName: __ZNSt3__16__treeINS_12__value_typeINS_12basic_stringIcNS_11char_traitsIcEENS_9allocatorIcEEEES7_EENS_19__map_value_compareIS7_S8_NS_4lessIS7_EELb1EEENS5_IS8_EEE10value_compB8ne190107Ev, symObjAddr: 0x6960, symBinAddr: 0x1000096C0, symSize: 0x28 }
  - { offset: 0x1510C, size: 0x8, addend: 0x0, symName: __ZNKSt3__119__map_value_compareINS_12basic_stringIcNS_11char_traitsIcEENS_9allocatorIcEEEENS_12__value_typeIS6_S6_EENS_4lessIS6_EELb1EEclB8ne190107ERKS6_RKS8_, symObjAddr: 0x6988, symBinAddr: 0x1000096E8, symSize: 0x4C }
  - { offset: 0x15150, size: 0x8, addend: 0x0, symName: __ZNKSt3__121__tree_const_iteratorINS_12__value_typeINS_12basic_stringIcNS_11char_traitsIcEENS_9allocatorIcEEEES7_EEPNS_11__tree_nodeIS8_PvEElEdeB8ne190107Ev, symObjAddr: 0x69D4, symBinAddr: 0x100009734, symSize: 0x28 }
  - { offset: 0x15176, size: 0x8, addend: 0x0, symName: __ZNKSt3__119__map_value_compareINS_12basic_stringIcNS_11char_traitsIcEENS_9allocatorIcEEEENS_12__value_typeIS6_S6_EENS_4lessIS6_EELb1EEclB8ne190107ERKS8_RKS6_, symObjAddr: 0x69FC, symBinAddr: 0x10000975C, symSize: 0x44 }
  - { offset: 0x151BA, size: 0x8, addend: 0x0, symName: __ZNSt3__121__tree_const_iteratorINS_12__value_typeINS_12basic_stringIcNS_11char_traitsIcEENS_9allocatorIcEEEES7_EEPNS_11__tree_nodeIS8_PvEElEmmB8ne190107Ev, symObjAddr: 0x6A40, symBinAddr: 0x1000097A0, symSize: 0x38 }
  - { offset: 0x151E0, size: 0x8, addend: 0x0, symName: __ZNSt3__16__treeINS_12__value_typeINS_12basic_stringIcNS_11char_traitsIcEENS_9allocatorIcEEEES7_EENS_19__map_value_compareIS7_S8_NS_4lessIS7_EELb1EEENS5_IS8_EEE12__find_equalIS7_EERPNS_16__tree_node_baseIPvEERPNS_15__tree_end_nodeISJ_EERKT_, symObjAddr: 0x6A78, symBinAddr: 0x1000097D8, symSize: 0x16C }
  - { offset: 0x1524B, size: 0x8, addend: 0x0, symName: __ZNKSt3__121__tree_const_iteratorINS_12__value_typeINS_12basic_stringIcNS_11char_traitsIcEENS_9allocatorIcEEEES7_EEPNS_11__tree_nodeIS8_PvEElE8__get_npB8ne190107Ev, symObjAddr: 0x6C20, symBinAddr: 0x100009980, symSize: 0x18 }
  - { offset: 0x15271, size: 0x8, addend: 0x0, symName: __ZNSt3__121__tree_const_iteratorINS_12__value_typeINS_12basic_stringIcNS_11char_traitsIcEENS_9allocatorIcEEEES7_EEPNS_11__tree_nodeIS8_PvEElEC2B8ne190107ENS_15__tree_iteratorIS8_SC_lEE, symObjAddr: 0x6C38, symBinAddr: 0x100009998, symSize: 0x20 }
  - { offset: 0x152AA, size: 0x8, addend: 0x0, symName: __ZNSt3__117__compressed_pairImNS_19__map_value_compareINS_12basic_stringIcNS_11char_traitsIcEENS_9allocatorIcEEEENS_12__value_typeIS7_S7_EENS_4lessIS7_EELb1EEEE6secondB8ne190107Ev, symObjAddr: 0x6C58, symBinAddr: 0x1000099B8, symSize: 0x24 }
  - { offset: 0x152D0, size: 0x8, addend: 0x0, symName: __ZNSt3__122__compressed_pair_elemINS_19__map_value_compareINS_12basic_stringIcNS_11char_traitsIcEENS_9allocatorIcEEEENS_12__value_typeIS7_S7_EENS_4lessIS7_EELb1EEELi1ELb1EE5__getB8ne190107Ev, symObjAddr: 0x6C7C, symBinAddr: 0x1000099DC, symSize: 0x14 }
  - { offset: 0x152F6, size: 0x8, addend: 0x0, symName: __ZNKSt3__112__value_typeINS_12basic_stringIcNS_11char_traitsIcEENS_9allocatorIcEEEES6_E11__get_valueB8ne190107Ev, symObjAddr: 0x6C90, symBinAddr: 0x1000099F0, symSize: 0x24 }
  - { offset: 0x1531C, size: 0x8, addend: 0x0, symName: __ZNKSt3__16__treeINS_12__value_typeINS_12basic_stringIcNS_11char_traitsIcEENS_9allocatorIcEEEES7_EENS_19__map_value_compareIS7_S8_NS_4lessIS7_EELb1EEENS5_IS8_EEE6__rootB8ne190107Ev, symObjAddr: 0x6CEC, symBinAddr: 0x100009A4C, symSize: 0x28 }
  - { offset: 0x15342, size: 0x8, addend: 0x0, symName: __ZNKSt3__16__treeINS_12__value_typeINS_12basic_stringIcNS_11char_traitsIcEENS_9allocatorIcEEEES7_EENS_19__map_value_compareIS7_S8_NS_4lessIS7_EELb1EEENS5_IS8_EEE10__root_ptrB8ne190107Ev, symObjAddr: 0x6D14, symBinAddr: 0x100009A74, symSize: 0x24 }
  - { offset: 0x15368, size: 0x8, addend: 0x0, symName: __ZNSt3__121__tree_const_iteratorINS_12__value_typeINS_12basic_stringIcNS_11char_traitsIcEENS_9allocatorIcEEEES7_EEPNS_11__tree_nodeIS8_PvEElEppB8ne190107Ev, symObjAddr: 0x6E00, symBinAddr: 0x100009B60, symSize: 0x38 }
  - { offset: 0x1538E, size: 0x8, addend: 0x0, symName: __ZNSt3__16__treeINS_12__value_typeINS_12basic_stringIcNS_11char_traitsIcEENS_9allocatorIcEEEES7_EENS_19__map_value_compareIS7_S8_NS_4lessIS7_EELb1EEENS5_IS8_EEE12__node_allocB8ne190107Ev, symObjAddr: 0x6E38, symBinAddr: 0x100009B98, symSize: 0x28 }
  - { offset: 0x153B4, size: 0x8, addend: 0x0, symName: __ZNSt3__116allocator_traitsINS_9allocatorINS_11__tree_nodeINS_12__value_typeINS_12basic_stringIcNS_11char_traitsIcEENS1_IcEEEES8_EEPvEEEEE8allocateB8ne190107ERSC_m, symObjAddr: 0x6E60, symBinAddr: 0x100009BC0, symSize: 0x2C }
  - { offset: 0x153E7, size: 0x8, addend: 0x0, symName: __ZNSt3__122__tree_node_destructorINS_9allocatorINS_11__tree_nodeINS_12__value_typeINS_12basic_stringIcNS_11char_traitsIcEENS1_IcEEEES8_EEPvEEEEEC1B8ne190107ERSC_b, symObjAddr: 0x6E8C, symBinAddr: 0x100009BEC, symSize: 0x40 }
  - { offset: 0x15435, size: 0x8, addend: 0x0, symName: __ZNSt3__110unique_ptrINS_11__tree_nodeINS_12__value_typeINS_12basic_stringIcNS_11char_traitsIcEENS_9allocatorIcEEEES8_EEPvEENS_22__tree_node_destructorINS6_ISB_EEEEEC1B8ne190107ILb1EvEEPSB_NS_16__dependent_typeINS_27__unique_ptr_deleter_sfinaeISE_EEXT_EE20__good_rval_ref_typeE, symObjAddr: 0x6ECC, symBinAddr: 0x100009C2C, symSize: 0x3C }
  - { offset: 0x15486, size: 0x8, addend: 0x0, symName: __ZNSt3__116allocator_traitsINS_9allocatorINS_11__tree_nodeINS_12__value_typeINS_12basic_stringIcNS_11char_traitsIcEENS1_IcEEEES8_EEPvEEEEE9constructB8ne190107INS_4pairIKS8_S8_EEJRKSH_EvTnNS_9enable_ifIXntsr15__has_constructISC_PT_DpT0_EE5valueEiE4typeELi0EEEvRSC_SM_DpOSN_, symObjAddr: 0x6F08, symBinAddr: 0x100009C68, symSize: 0x30 }
  - { offset: 0x154E0, size: 0x8, addend: 0x0, symName: __ZNSt3__122__tree_key_value_typesINS_12__value_typeINS_12basic_stringIcNS_11char_traitsIcEENS_9allocatorIcEEEES7_EEE9__get_ptrB8ne190107ERS8_, symObjAddr: 0x6F38, symBinAddr: 0x100009C98, symSize: 0x24 }
  - { offset: 0x15504, size: 0x8, addend: 0x0, symName: __ZNKSt3__110unique_ptrINS_11__tree_nodeINS_12__value_typeINS_12basic_stringIcNS_11char_traitsIcEENS_9allocatorIcEEEES8_EEPvEENS_22__tree_node_destructorINS6_ISB_EEEEEptB8ne190107Ev, symObjAddr: 0x6F5C, symBinAddr: 0x100009CBC, symSize: 0x28 }
  - { offset: 0x1552A, size: 0x8, addend: 0x0, symName: __ZNSt3__110unique_ptrINS_11__tree_nodeINS_12__value_typeINS_12basic_stringIcNS_11char_traitsIcEENS_9allocatorIcEEEES8_EEPvEENS_22__tree_node_destructorINS6_ISB_EEEEE11get_deleterB8ne190107Ev, symObjAddr: 0x6F84, symBinAddr: 0x100009CE4, symSize: 0x24 }
  - { offset: 0x15550, size: 0x8, addend: 0x0, symName: __ZNSt3__117__compressed_pairINS_15__tree_end_nodeIPNS_16__tree_node_baseIPvEEEENS_9allocatorINS_11__tree_nodeINS_12__value_typeINS_12basic_stringIcNS_11char_traitsIcEENS7_IcEEEESE_EES3_EEEEE6secondB8ne190107Ev, symObjAddr: 0x6FA8, symBinAddr: 0x100009D08, symSize: 0x24 }
  - { offset: 0x15576, size: 0x8, addend: 0x0, symName: __ZNSt3__122__compressed_pair_elemINS_9allocatorINS_11__tree_nodeINS_12__value_typeINS_12basic_stringIcNS_11char_traitsIcEENS1_IcEEEES8_EEPvEEEELi1ELb1EE5__getB8ne190107Ev, symObjAddr: 0x6FCC, symBinAddr: 0x100009D2C, symSize: 0x14 }
  - { offset: 0x1559C, size: 0x8, addend: 0x0, symName: __ZNSt3__19allocatorINS_11__tree_nodeINS_12__value_typeINS_12basic_stringIcNS_11char_traitsIcEENS0_IcEEEES7_EEPvEEE8allocateB8ne190107Em, symObjAddr: 0x6FE0, symBinAddr: 0x100009D40, symSize: 0x58 }
  - { offset: 0x155DB, size: 0x8, addend: 0x0, symName: __ZNSt3__116allocator_traitsINS_9allocatorINS_11__tree_nodeINS_12__value_typeINS_12basic_stringIcNS_11char_traitsIcEENS1_IcEEEES8_EEPvEEEEE8max_sizeB8ne190107ISC_vTnNS_9enable_ifIXntsr14__has_max_sizeIKT_EE5valueEiE4typeELi0EEEmRKSC_, symObjAddr: 0x7038, symBinAddr: 0x100009D98, symSize: 0x28 }
  - { offset: 0x1560C, size: 0x8, addend: 0x0, symName: __ZNSt3__122__tree_node_destructorINS_9allocatorINS_11__tree_nodeINS_12__value_typeINS_12basic_stringIcNS_11char_traitsIcEENS1_IcEEEES8_EEPvEEEEEC2B8ne190107ERSC_b, symObjAddr: 0x7060, symBinAddr: 0x100009DC0, symSize: 0x30 }
  - { offset: 0x15654, size: 0x8, addend: 0x0, symName: __ZNSt3__110unique_ptrINS_11__tree_nodeINS_12__value_typeINS_12basic_stringIcNS_11char_traitsIcEENS_9allocatorIcEEEES8_EEPvEENS_22__tree_node_destructorINS6_ISB_EEEEEC2B8ne190107ILb1EvEEPSB_NS_16__dependent_typeINS_27__unique_ptr_deleter_sfinaeISE_EEXT_EE20__good_rval_ref_typeE, symObjAddr: 0x7090, symBinAddr: 0x100009DF0, symSize: 0x48 }
  - { offset: 0x156A5, size: 0x8, addend: 0x0, symName: __ZNSt3__117__compressed_pairIPNS_11__tree_nodeINS_12__value_typeINS_12basic_stringIcNS_11char_traitsIcEENS_9allocatorIcEEEES8_EEPvEENS_22__tree_node_destructorINS6_ISB_EEEEEC1B8ne190107IRSC_SF_EEOT_OT0_, symObjAddr: 0x70D8, symBinAddr: 0x100009E38, symSize: 0x3C }
  - { offset: 0x156FD, size: 0x8, addend: 0x0, symName: __ZNSt3__117__compressed_pairIPNS_11__tree_nodeINS_12__value_typeINS_12basic_stringIcNS_11char_traitsIcEENS_9allocatorIcEEEES8_EEPvEENS_22__tree_node_destructorINS6_ISB_EEEEEC2B8ne190107IRSC_SF_EEOT_OT0_, symObjAddr: 0x7114, symBinAddr: 0x100009E74, symSize: 0x48 }
  - { offset: 0x15755, size: 0x8, addend: 0x0, symName: __ZNSt3__122__compressed_pair_elemIPNS_11__tree_nodeINS_12__value_typeINS_12basic_stringIcNS_11char_traitsIcEENS_9allocatorIcEEEES8_EEPvEELi0ELb0EEC2B8ne190107IRSC_TnNS_9enable_ifIXntsr7is_sameISD_u7__decayIT_EEE5valueEiE4typeELi0EEEOSH_, symObjAddr: 0x715C, symBinAddr: 0x100009EBC, symSize: 0x24 }
  - { offset: 0x1579C, size: 0x8, addend: 0x0, symName: __ZNSt3__122__compressed_pair_elemINS_22__tree_node_destructorINS_9allocatorINS_11__tree_nodeINS_12__value_typeINS_12basic_stringIcNS_11char_traitsIcEENS2_IcEEEES9_EEPvEEEEEELi1ELb0EEC2B8ne190107ISE_TnNS_9enable_ifIXntsr7is_sameISF_u7__decayIT_EEE5valueEiE4typeELi0EEEOSI_, symObjAddr: 0x7180, symBinAddr: 0x100009EE0, symSize: 0x24 }
  - { offset: 0x157E3, size: 0x8, addend: 0x0, symName: __ZNSt3__14pairIKNS_12basic_stringIcNS_11char_traitsIcEENS_9allocatorIcEEEES6_EC1B8ne190107ERKS8_, symObjAddr: 0x720C, symBinAddr: 0x100009F6C, symSize: 0x34 }
  - { offset: 0x15817, size: 0x8, addend: 0x0, symName: __ZNSt3__14pairIKNS_12basic_stringIcNS_11char_traitsIcEENS_9allocatorIcEEEES6_EC2B8ne190107ERKS8_, symObjAddr: 0x7240, symBinAddr: 0x100009FA0, symSize: 0x70 }
  - { offset: 0x1584B, size: 0x8, addend: 0x0, symName: __ZNKSt3__117__compressed_pairIPNS_11__tree_nodeINS_12__value_typeINS_12basic_stringIcNS_11char_traitsIcEENS_9allocatorIcEEEES8_EEPvEENS_22__tree_node_destructorINS6_ISB_EEEEE5firstB8ne190107Ev, symObjAddr: 0x72B0, symBinAddr: 0x10000A010, symSize: 0x24 }
  - { offset: 0x15871, size: 0x8, addend: 0x0, symName: __ZNKSt3__122__compressed_pair_elemIPNS_11__tree_nodeINS_12__value_typeINS_12basic_stringIcNS_11char_traitsIcEENS_9allocatorIcEEEES8_EEPvEELi0ELb0EE5__getB8ne190107Ev, symObjAddr: 0x72D4, symBinAddr: 0x10000A034, symSize: 0x14 }
  - { offset: 0x15897, size: 0x8, addend: 0x0, symName: __ZNSt3__117__compressed_pairIPNS_11__tree_nodeINS_12__value_typeINS_12basic_stringIcNS_11char_traitsIcEENS_9allocatorIcEEEES8_EEPvEENS_22__tree_node_destructorINS6_ISB_EEEEE6secondB8ne190107Ev, symObjAddr: 0x72E8, symBinAddr: 0x10000A048, symSize: 0x28 }
  - { offset: 0x158BD, size: 0x8, addend: 0x0, symName: __ZNSt3__122__compressed_pair_elemINS_22__tree_node_destructorINS_9allocatorINS_11__tree_nodeINS_12__value_typeINS_12basic_stringIcNS_11char_traitsIcEENS2_IcEEEES9_EEPvEEEEEELi1ELb0EE5__getB8ne190107Ev, symObjAddr: 0x7310, symBinAddr: 0x10000A070, symSize: 0x14 }
  - { offset: 0x158E3, size: 0x8, addend: 0x0, symName: __ZNSt3__16__treeINS_12__value_typeINS_12basic_stringIcNS_11char_traitsIcEENS_9allocatorIcEEEES7_EENS_19__map_value_compareIS7_S8_NS_4lessIS7_EELb1EEENS5_IS8_EEE4sizeB8ne190107Ev, symObjAddr: 0x7324, symBinAddr: 0x10000A084, symSize: 0x28 }
  - { offset: 0x15909, size: 0x8, addend: 0x0, symName: __ZNSt3__117__compressed_pairImNS_19__map_value_compareINS_12basic_stringIcNS_11char_traitsIcEENS_9allocatorIcEEEENS_12__value_typeIS7_S7_EENS_4lessIS7_EELb1EEEE5firstB8ne190107Ev, symObjAddr: 0x734C, symBinAddr: 0x10000A0AC, symSize: 0x24 }
  - { offset: 0x1592F, size: 0x8, addend: 0x0, symName: __ZNSt3__117__compressed_pairIPNS_11__tree_nodeINS_12__value_typeINS_12basic_stringIcNS_11char_traitsIcEENS_9allocatorIcEEEES8_EEPvEENS_22__tree_node_destructorINS6_ISB_EEEEE5firstB8ne190107Ev, symObjAddr: 0x7370, symBinAddr: 0x10000A0D0, symSize: 0x24 }
  - { offset: 0x15955, size: 0x8, addend: 0x0, symName: __ZNSt3__122__compressed_pair_elemIPNS_11__tree_nodeINS_12__value_typeINS_12basic_stringIcNS_11char_traitsIcEENS_9allocatorIcEEEES8_EEPvEELi0ELb0EE5__getB8ne190107Ev, symObjAddr: 0x7394, symBinAddr: 0x10000A0F4, symSize: 0x14 }
  - { offset: 0x1597B, size: 0x8, addend: 0x0, symName: __ZNSt3__110unique_ptrINS_11__tree_nodeINS_12__value_typeINS_12basic_stringIcNS_11char_traitsIcEENS_9allocatorIcEEEES8_EEPvEENS_22__tree_node_destructorINS6_ISB_EEEEED2B8ne190107Ev, symObjAddr: 0x73A8, symBinAddr: 0x10000A108, symSize: 0x30 }
  - { offset: 0x159A5, size: 0x8, addend: 0x0, symName: __ZNSt3__110unique_ptrINS_11__tree_nodeINS_12__value_typeINS_12basic_stringIcNS_11char_traitsIcEENS_9allocatorIcEEEES8_EEPvEENS_22__tree_node_destructorINS6_ISB_EEEEE5resetB8ne190107EPSB_, symObjAddr: 0x73D8, symBinAddr: 0x10000A138, symSize: 0x70 }
  - { offset: 0x159E9, size: 0x8, addend: 0x0, symName: __ZNSt3__122__tree_node_destructorINS_9allocatorINS_11__tree_nodeINS_12__value_typeINS_12basic_stringIcNS_11char_traitsIcEENS1_IcEEEES8_EEPvEEEEEclB8ne190107EPSB_, symObjAddr: 0x7448, symBinAddr: 0x10000A1A8, symSize: 0x88 }
  - { offset: 0x15A1E, size: 0x8, addend: 0x0, symName: __ZNSt3__116allocator_traitsINS_9allocatorINS_11__tree_nodeINS_12__value_typeINS_12basic_stringIcNS_11char_traitsIcEENS1_IcEEEES8_EEPvEEEEE7destroyB8ne190107INS_4pairIKS8_S8_EEvTnNS_9enable_ifIXntsr13__has_destroyISC_PT_EE5valueEiE4typeELi0EEEvRSC_SK_, symObjAddr: 0x74D0, symBinAddr: 0x10000A230, symSize: 0x28 }
  - { offset: 0x15A5E, size: 0x8, addend: 0x0, symName: __ZNSt3__116allocator_traitsINS_9allocatorINS_11__tree_nodeINS_12__value_typeINS_12basic_stringIcNS_11char_traitsIcEENS1_IcEEEES8_EEPvEEEEE10deallocateB8ne190107ERSC_PSB_m, symObjAddr: 0x74F8, symBinAddr: 0x10000A258, symSize: 0x34 }
  - { offset: 0x15AA0, size: 0x8, addend: 0x0, symName: __ZNSt3__19allocatorINS_11__tree_nodeINS_12__value_typeINS_12basic_stringIcNS_11char_traitsIcEENS0_IcEEEES7_EEPvEEE10deallocateB8ne190107EPSA_m, symObjAddr: 0x7550, symBinAddr: 0x10000A2B0, symSize: 0x44 }
  - { offset: 0x15AE2, size: 0x8, addend: 0x0, symName: __ZNSt3__115__tree_iteratorINS_12__value_typeINS_12basic_stringIcNS_11char_traitsIcEENS_9allocatorIcEEEES7_EEPNS_11__tree_nodeIS8_PvEElEC2B8ne190107ESC_, symObjAddr: 0x7594, symBinAddr: 0x10000A2F4, symSize: 0x20 }
  - { offset: 0x15B1B, size: 0x8, addend: 0x0, symName: __ZNSt3__14pairINS_15__tree_iteratorINS_12__value_typeINS_12basic_stringIcNS_11char_traitsIcEENS_9allocatorIcEEEES8_EEPNS_11__tree_nodeIS9_PvEElEEbEC2B8ne190107ISE_RbTnNS_9enable_ifIXclsr10_CheckArgsE23__is_pair_constructibleIT_T0_EEEiE4typeELi0EEEOSJ_OSK_, symObjAddr: 0x75B4, symBinAddr: 0x10000A314, symSize: 0x38 }
  - { offset: 0x15B79, size: 0x8, addend: 0x0, symName: __ZNSt3__120__map_const_iteratorINS_21__tree_const_iteratorINS_12__value_typeINS_12basic_stringIcNS_11char_traitsIcEENS_9allocatorIcEEEES8_EEPNS_11__tree_nodeIS9_PvEElEEEC2B8ne190107ESE_, symObjAddr: 0x75EC, symBinAddr: 0x10000A34C, symSize: 0x20 }
  - { offset: 0x15BB2, size: 0x8, addend: 0x0, symName: __ZNSt3__16__treeINS_12__value_typeINS_12basic_stringIcNS_11char_traitsIcEENS_9allocatorIcEEEES7_EENS_19__map_value_compareIS7_S8_NS_4lessIS7_EELb1EEENS5_IS8_EEED2Ev, symObjAddr: 0x760C, symBinAddr: 0x10000A36C, symSize: 0x38 }
  - { offset: 0x15BDE, size: 0x8, addend: 0x0, symName: __ZNSt3__16__treeINS_12__value_typeINS_12basic_stringIcNS_11char_traitsIcEENS_9allocatorIcEEEES7_EENS_19__map_value_compareIS7_S8_NS_4lessIS7_EELb1EEENS5_IS8_EEE7destroyEPNS_11__tree_nodeIS8_PvEE, symObjAddr: 0x7644, symBinAddr: 0x10000A3A4, symSize: 0x9C }
  - { offset: 0x15C2A, size: 0x8, addend: 0x0, symName: __ZNSt3__13mapINS_12basic_stringIcNS_11char_traitsIcEENS_9allocatorIcEEEES6_NS_4lessIS6_EENS4_INS_4pairIKS6_S6_EEEEED2B8ne190107Ev, symObjAddr: 0x76E0, symBinAddr: 0x10000A440, symSize: 0x2C }
  - { offset: 0x15C54, size: 0x8, addend: 0x0, symName: __ZNSt3__13mapINS_12basic_stringIcNS_11char_traitsIcEENS_9allocatorIcEEEES6_NS_4lessIS6_EENS4_INS_4pairIKS6_S6_EEEEEC2B8ne190107ERKSD_, symObjAddr: 0x770C, symBinAddr: 0x10000A46C, symSize: 0x88 }
  - { offset: 0x15C8D, size: 0x8, addend: 0x0, symName: __ZNSt3__16__treeINS_12__value_typeINS_12basic_stringIcNS_11char_traitsIcEENS_9allocatorIcEEEES7_EENS_19__map_value_compareIS7_S8_NS_4lessIS7_EELb1EEENS5_IS8_EEEC1ERKSE_, symObjAddr: 0x7794, symBinAddr: 0x10000A4F4, symSize: 0x34 }
  - { offset: 0x15CC8, size: 0x8, addend: 0x0, symName: __ZNSt3__13mapINS_12basic_stringIcNS_11char_traitsIcEENS_9allocatorIcEEEES6_NS_4lessIS6_EENS4_INS_4pairIKS6_S6_EEEEE6insertB8ne190107INS_20__map_const_iteratorINS_21__tree_const_iteratorINS_12__value_typeIS6_S6_EEPNS_11__tree_nodeISI_PvEElEEEEEEvT_SP_, symObjAddr: 0x77C8, symBinAddr: 0x10000A528, symSize: 0x8C }
  - { offset: 0x15D32, size: 0x8, addend: 0x0, symName: __ZNKSt3__13mapINS_12basic_stringIcNS_11char_traitsIcEENS_9allocatorIcEEEES6_NS_4lessIS6_EENS4_INS_4pairIKS6_S6_EEEEE5beginB8ne190107Ev, symObjAddr: 0x7854, symBinAddr: 0x10000A5B4, symSize: 0x38 }
  - { offset: 0x15D58, size: 0x8, addend: 0x0, symName: __ZNSt3__16__treeINS_12__value_typeINS_12basic_stringIcNS_11char_traitsIcEENS_9allocatorIcEEEES7_EENS_19__map_value_compareIS7_S8_NS_4lessIS7_EELb1EEENS5_IS8_EEEC2ERKSE_, symObjAddr: 0x788C, symBinAddr: 0x10000A5EC, symSize: 0x9C }
  - { offset: 0x15D93, size: 0x8, addend: 0x0, symName: __ZNSt3__116allocator_traitsINS_9allocatorINS_11__tree_nodeINS_12__value_typeINS_12basic_stringIcNS_11char_traitsIcEENS1_IcEEEES8_EEPvEEEEE37select_on_container_copy_constructionB8ne190107ISC_vTnNS_9enable_ifIXntsr43__has_select_on_container_copy_constructionIKT_EE5valueEiE4typeELi0EEESC_RKSC_, symObjAddr: 0x7928, symBinAddr: 0x10000A688, symSize: 0x10 }
  - { offset: 0x15DC7, size: 0x8, addend: 0x0, symName: __ZNKSt3__16__treeINS_12__value_typeINS_12basic_stringIcNS_11char_traitsIcEENS_9allocatorIcEEEES7_EENS_19__map_value_compareIS7_S8_NS_4lessIS7_EELb1EEENS5_IS8_EEE12__node_allocB8ne190107Ev, symObjAddr: 0x7938, symBinAddr: 0x10000A698, symSize: 0x28 }
  - { offset: 0x15DF3, size: 0x8, addend: 0x0, symName: __ZNSt3__117__compressed_pairINS_15__tree_end_nodeIPNS_16__tree_node_baseIPvEEEENS_9allocatorINS_11__tree_nodeINS_12__value_typeINS_12basic_stringIcNS_11char_traitsIcEENS7_IcEEEESE_EES3_EEEEEC1B8ne190107INS_18__default_init_tagESH_EEOT_OT0_, symObjAddr: 0x7960, symBinAddr: 0x10000A6C0, symSize: 0x3C }
  - { offset: 0x15E4B, size: 0x8, addend: 0x0, symName: __ZNKSt3__16__treeINS_12__value_typeINS_12basic_stringIcNS_11char_traitsIcEENS_9allocatorIcEEEES7_EENS_19__map_value_compareIS7_S8_NS_4lessIS7_EELb1EEENS5_IS8_EEE10value_compB8ne190107Ev, symObjAddr: 0x799C, symBinAddr: 0x10000A6FC, symSize: 0x28 }
  - { offset: 0x15E71, size: 0x8, addend: 0x0, symName: __ZNKSt3__117__compressed_pairINS_15__tree_end_nodeIPNS_16__tree_node_baseIPvEEEENS_9allocatorINS_11__tree_nodeINS_12__value_typeINS_12basic_stringIcNS_11char_traitsIcEENS7_IcEEEESE_EES3_EEEEE6secondB8ne190107Ev, symObjAddr: 0x79C4, symBinAddr: 0x10000A724, symSize: 0x24 }
  - { offset: 0x15E97, size: 0x8, addend: 0x0, symName: __ZNKSt3__122__compressed_pair_elemINS_9allocatorINS_11__tree_nodeINS_12__value_typeINS_12basic_stringIcNS_11char_traitsIcEENS1_IcEEEES8_EEPvEEEELi1ELb1EE5__getB8ne190107Ev, symObjAddr: 0x79E8, symBinAddr: 0x10000A748, symSize: 0x14 }
  - { offset: 0x15EBD, size: 0x8, addend: 0x0, symName: __ZNSt3__117__compressed_pairINS_15__tree_end_nodeIPNS_16__tree_node_baseIPvEEEENS_9allocatorINS_11__tree_nodeINS_12__value_typeINS_12basic_stringIcNS_11char_traitsIcEENS7_IcEEEESE_EES3_EEEEEC2B8ne190107INS_18__default_init_tagESH_EEOT_OT0_, symObjAddr: 0x79FC, symBinAddr: 0x10000A75C, symSize: 0x40 }
  - { offset: 0x15F15, size: 0x8, addend: 0x0, symName: __ZNSt3__122__compressed_pair_elemINS_9allocatorINS_11__tree_nodeINS_12__value_typeINS_12basic_stringIcNS_11char_traitsIcEENS1_IcEEEES8_EEPvEEEELi1ELb1EEC2B8ne190107ISC_TnNS_9enable_ifIXntsr7is_sameISD_u7__decayIT_EEE5valueEiE4typeELi0EEEOSG_, symObjAddr: 0x7A3C, symBinAddr: 0x10000A79C, symSize: 0x18 }
  - { offset: 0x15F5C, size: 0x8, addend: 0x0, symName: __ZNKSt3__117__compressed_pairImNS_19__map_value_compareINS_12basic_stringIcNS_11char_traitsIcEENS_9allocatorIcEEEENS_12__value_typeIS7_S7_EENS_4lessIS7_EELb1EEEE6secondB8ne190107Ev, symObjAddr: 0x7A54, symBinAddr: 0x10000A7B4, symSize: 0x24 }
  - { offset: 0x15F82, size: 0x8, addend: 0x0, symName: __ZNKSt3__122__compressed_pair_elemINS_19__map_value_compareINS_12basic_stringIcNS_11char_traitsIcEENS_9allocatorIcEEEENS_12__value_typeIS7_S7_EENS_4lessIS7_EELb1EEELi1ELb1EE5__getB8ne190107Ev, symObjAddr: 0x7A78, symBinAddr: 0x10000A7D8, symSize: 0x14 }
  - { offset: 0x15FA8, size: 0x8, addend: 0x0, symName: __ZNKSt3__120__map_const_iteratorINS_21__tree_const_iteratorINS_12__value_typeINS_12basic_stringIcNS_11char_traitsIcEENS_9allocatorIcEEEES8_EEPNS_11__tree_nodeIS9_PvEElEEEdeB8ne190107Ev, symObjAddr: 0x7AB8, symBinAddr: 0x10000A818, symSize: 0x28 }
  - { offset: 0x15FCE, size: 0x8, addend: 0x0, symName: __ZNSt3__120__map_const_iteratorINS_21__tree_const_iteratorINS_12__value_typeINS_12basic_stringIcNS_11char_traitsIcEENS_9allocatorIcEEEES8_EEPNS_11__tree_nodeIS9_PvEElEEEppB8ne190107Ev, symObjAddr: 0x7AE0, symBinAddr: 0x10000A840, symSize: 0x2C }
  - { offset: 0x15FF4, size: 0x8, addend: 0x0, symName: __ZNKSt3__121__tree_const_iteratorINS_12__value_typeINS_12basic_stringIcNS_11char_traitsIcEENS_9allocatorIcEEEES7_EEPNS_11__tree_nodeIS8_PvEElEptB8ne190107Ev, symObjAddr: 0x7B3C, symBinAddr: 0x10000A89C, symSize: 0x2C }
  - { offset: 0x1601A, size: 0x8, addend: 0x0, symName: __ZNSt3__114pointer_traitsIPKNS_12__value_typeINS_12basic_stringIcNS_11char_traitsIcEENS_9allocatorIcEEEES7_EEE10pointer_toB8ne190107ERS9_, symObjAddr: 0x7B68, symBinAddr: 0x10000A8C8, symSize: 0x14 }
  - { offset: 0x1603D, size: 0x8, addend: 0x0, symName: __ZNKSt3__16__treeINS_12__value_typeINS_12basic_stringIcNS_11char_traitsIcEENS_9allocatorIcEEEES7_EENS_19__map_value_compareIS7_S8_NS_4lessIS7_EELb1EEENS5_IS8_EEE5beginB8ne190107Ev, symObjAddr: 0x7B7C, symBinAddr: 0x10000A8DC, symSize: 0x34 }
  - { offset: 0x16063, size: 0x8, addend: 0x0, symName: __ZNKSt3__16__treeINS_12__value_typeINS_12basic_stringIcNS_11char_traitsIcEENS_9allocatorIcEEEES7_EENS_19__map_value_compareIS7_S8_NS_4lessIS7_EELb1EEENS5_IS8_EEE12__begin_nodeB8ne190107Ev, symObjAddr: 0x7BB0, symBinAddr: 0x10000A910, symSize: 0x14 }
  - { offset: 0x16089, size: 0x8, addend: 0x0, symName: __ZNSt3__16__treeINS_12__value_typeINS_12basic_stringIcNS_11char_traitsIcEENS_9allocatorIcEEEENS_3setIS7_NS_4lessIS7_EENS5_IS7_EEEEEENS_19__map_value_compareIS7_SD_SA_Lb1EEENS5_ISD_EEE5beginB8ne190107Ev, symObjAddr: 0x7BC4, symBinAddr: 0x10000A924, symSize: 0x34 }
  - { offset: 0x160AF, size: 0x8, addend: 0x0, symName: __ZNSt3__114__map_iteratorINS_15__tree_iteratorINS_12__value_typeINS_12basic_stringIcNS_11char_traitsIcEENS_9allocatorIcEEEENS_3setIS8_NS_4lessIS8_EENS6_IS8_EEEEEEPNS_11__tree_nodeISE_PvEElEEEC1B8ne190107ESJ_, symObjAddr: 0x7BF8, symBinAddr: 0x10000A958, symSize: 0x34 }
  - { offset: 0x160E8, size: 0x8, addend: 0x0, symName: __ZNSt3__115__tree_iteratorINS_12__value_typeINS_12basic_stringIcNS_11char_traitsIcEENS_9allocatorIcEEEENS_3setIS7_NS_4lessIS7_EENS5_IS7_EEEEEEPNS_11__tree_nodeISD_PvEElEC1B8ne190107EPNS_15__tree_end_nodeIPNS_16__tree_node_baseISF_EEEE, symObjAddr: 0x7C2C, symBinAddr: 0x10000A98C, symSize: 0x34 }
  - { offset: 0x16121, size: 0x8, addend: 0x0, symName: __ZNSt3__115__tree_iteratorINS_12__value_typeINS_12basic_stringIcNS_11char_traitsIcEENS_9allocatorIcEEEENS_3setIS7_NS_4lessIS7_EENS5_IS7_EEEEEEPNS_11__tree_nodeISD_PvEElEC2B8ne190107EPNS_15__tree_end_nodeIPNS_16__tree_node_baseISF_EEEE, symObjAddr: 0x7C60, symBinAddr: 0x10000A9C0, symSize: 0x20 }
  - { offset: 0x1615A, size: 0x8, addend: 0x0, symName: __ZNSt3__114__map_iteratorINS_15__tree_iteratorINS_12__value_typeINS_12basic_stringIcNS_11char_traitsIcEENS_9allocatorIcEEEENS_3setIS8_NS_4lessIS8_EENS6_IS8_EEEEEEPNS_11__tree_nodeISE_PvEElEEEC2B8ne190107ESJ_, symObjAddr: 0x7C80, symBinAddr: 0x10000A9E0, symSize: 0x20 }
  - { offset: 0x16193, size: 0x8, addend: 0x0, symName: __ZNSt3__16__treeINS_12__value_typeINS_12basic_stringIcNS_11char_traitsIcEENS_9allocatorIcEEEENS_3setIS7_NS_4lessIS7_EENS5_IS7_EEEEEENS_19__map_value_compareIS7_SD_SA_Lb1EEENS5_ISD_EEE3endB8ne190107Ev, symObjAddr: 0x7CA0, symBinAddr: 0x10000AA00, symSize: 0x34 }
  - { offset: 0x161B9, size: 0x8, addend: 0x0, symName: __ZNSt3__115__tree_iteratorINS_12__value_typeINS_12basic_stringIcNS_11char_traitsIcEENS_9allocatorIcEEEENS_3setIS7_NS_4lessIS7_EENS5_IS7_EEEEEEPNS_11__tree_nodeISD_PvEElEppB8ne190107Ev, symObjAddr: 0x7D30, symBinAddr: 0x10000AA90, symSize: 0x38 }
  - { offset: 0x16200, size: 0x8, addend: 0x0, symName: __ZNKSt3__113basic_ostreamIcNS_11char_traitsIcEEE6sentrycvbB8ne190107Ev, symObjAddr: 0x7F4C, symBinAddr: 0x10000ACAC, symSize: 0x1C }
  - { offset: 0x16226, size: 0x8, addend: 0x0, symName: __ZNSt3__119ostreambuf_iteratorIcNS_11char_traitsIcEEEC1B8ne190107ERNS_13basic_ostreamIcS2_EE, symObjAddr: 0x817C, symBinAddr: 0x10000AEDC, symSize: 0x34 }
  - { offset: 0x1625E, size: 0x8, addend: 0x0, symName: __ZNKSt3__18ios_base5flagsB8ne190107Ev, symObjAddr: 0x81B0, symBinAddr: 0x10000AF10, symSize: 0x18 }
  - { offset: 0x16286, size: 0x8, addend: 0x0, symName: __ZNKSt3__19basic_iosIcNS_11char_traitsIcEEE4fillB8ne190107Ev, symObjAddr: 0x81C8, symBinAddr: 0x10000AF28, symSize: 0x64 }
  - { offset: 0x162AC, size: 0x8, addend: 0x0, symName: __ZNKSt3__119ostreambuf_iteratorIcNS_11char_traitsIcEEE6failedB8ne190107Ev, symObjAddr: 0x822C, symBinAddr: 0x10000AF8C, symSize: 0x20 }
  - { offset: 0x162D2, size: 0x8, addend: 0x0, symName: __ZNSt3__19basic_iosIcNS_11char_traitsIcEEE8setstateB8ne190107Ej, symObjAddr: 0x824C, symBinAddr: 0x10000AFAC, symSize: 0x2C }
  - { offset: 0x16307, size: 0x8, addend: 0x0, symName: __ZNKSt3__18ios_base5widthB8ne190107Ev, symObjAddr: 0x8278, symBinAddr: 0x10000AFD8, symSize: 0x18 }
  - { offset: 0x1632F, size: 0x8, addend: 0x0, symName: __ZNSt3__115basic_streambufIcNS_11char_traitsIcEEE5sputnB8ne190107EPKcl, symObjAddr: 0x8290, symBinAddr: 0x10000AFF0, symSize: 0x3C }
  - { offset: 0x16371, size: 0x8, addend: 0x0, symName: __ZNSt3__112basic_stringIcNS_11char_traitsIcEENS_9allocatorIcEEEC1B8ne190107Emc, symObjAddr: 0x82CC, symBinAddr: 0x10000B02C, symSize: 0x3C }
  - { offset: 0x163B9, size: 0x8, addend: 0x0, symName: __ZNSt3__112basic_stringIcNS_11char_traitsIcEENS_9allocatorIcEEE4dataB8ne190107Ev, symObjAddr: 0x8308, symBinAddr: 0x10000B068, symSize: 0x28 }
  - { offset: 0x163DF, size: 0x8, addend: 0x0, symName: __ZNSt3__18ios_base5widthB8ne190107El, symObjAddr: 0x8330, symBinAddr: 0x10000B090, symSize: 0x2C }
  - { offset: 0x16425, size: 0x8, addend: 0x0, symName: __ZNSt3__112basic_stringIcNS_11char_traitsIcEENS_9allocatorIcEEEC2B8ne190107Emc, symObjAddr: 0x835C, symBinAddr: 0x10000B0BC, symSize: 0x4C }
  - { offset: 0x1646D, size: 0x8, addend: 0x0, symName: __ZNSt3__112basic_stringIcNS_11char_traitsIcEENS_9allocatorIcEEE13__get_pointerB8ne190107Ev, symObjAddr: 0x83BC, symBinAddr: 0x10000B11C, symSize: 0x54 }
  - { offset: 0x16493, size: 0x8, addend: 0x0, symName: __ZNSt3__112basic_stringIcNS_11char_traitsIcEENS_9allocatorIcEEE18__get_long_pointerB8ne190107Ev, symObjAddr: 0x8410, symBinAddr: 0x10000B170, symSize: 0x28 }
  - { offset: 0x164B9, size: 0x8, addend: 0x0, symName: __ZNSt3__112basic_stringIcNS_11char_traitsIcEENS_9allocatorIcEEE19__get_short_pointerB8ne190107Ev, symObjAddr: 0x8438, symBinAddr: 0x10000B198, symSize: 0x28 }
  - { offset: 0x164DF, size: 0x8, addend: 0x0, symName: __ZNSt3__117__compressed_pairINS_12basic_stringIcNS_11char_traitsIcEENS_9allocatorIcEEE5__repES5_E5firstB8ne190107Ev, symObjAddr: 0x8460, symBinAddr: 0x10000B1C0, symSize: 0x24 }
  - { offset: 0x16505, size: 0x8, addend: 0x0, symName: __ZNSt3__122__compressed_pair_elemINS_12basic_stringIcNS_11char_traitsIcEENS_9allocatorIcEEE5__repELi0ELb0EE5__getB8ne190107Ev, symObjAddr: 0x8484, symBinAddr: 0x10000B1E4, symSize: 0x14 }
  - { offset: 0x1652B, size: 0x8, addend: 0x0, symName: __ZNSt3__114pointer_traitsIPcE10pointer_toB8ne190107ERc, symObjAddr: 0x8498, symBinAddr: 0x10000B1F8, symSize: 0x14 }
  - { offset: 0x1654E, size: 0x8, addend: 0x0, symName: __ZNSt3__119ostreambuf_iteratorIcNS_11char_traitsIcEEEC2B8ne190107ERNS_13basic_ostreamIcS2_EE, symObjAddr: 0x84AC, symBinAddr: 0x10000B20C, symSize: 0x54 }
  - { offset: 0x16586, size: 0x8, addend: 0x0, symName: __ZNKSt3__19basic_iosIcNS_11char_traitsIcEEE5rdbufB8ne190107Ev, symObjAddr: 0x8500, symBinAddr: 0x10000B260, symSize: 0x24 }
  - { offset: 0x165AC, size: 0x8, addend: 0x0, symName: __ZNKSt3__18ios_base5rdbufB8ne190107Ev, symObjAddr: 0x8524, symBinAddr: 0x10000B284, symSize: 0x18 }
  - { offset: 0x165D2, size: 0x8, addend: 0x0, symName: __ZNKSt3__118_SentinelValueFillINS_11char_traitsIcEEE8__is_setB8ne190107Ev, symObjAddr: 0x853C, symBinAddr: 0x10000B29C, symSize: 0x38 }
  - { offset: 0x165F8, size: 0x8, addend: 0x0, symName: __ZNKSt3__19basic_iosIcNS_11char_traitsIcEEE5widenB8ne190107Ec, symObjAddr: 0x8574, symBinAddr: 0x10000B2D4, symSize: 0x80 }
  - { offset: 0x1662D, size: 0x8, addend: 0x0, symName: __ZNSt3__118_SentinelValueFillINS_11char_traitsIcEEEaSB8ne190107Ei, symObjAddr: 0x85F4, symBinAddr: 0x10000B354, symSize: 0x20 }
  - { offset: 0x16662, size: 0x8, addend: 0x0, symName: __ZNKSt3__118_SentinelValueFillINS_11char_traitsIcEEE5__getB8ne190107Ev, symObjAddr: 0x8614, symBinAddr: 0x10000B374, symSize: 0x18 }
  - { offset: 0x16688, size: 0x8, addend: 0x0, symName: __ZNSt3__111char_traitsIcE3eofB8ne190107Ev, symObjAddr: 0x862C, symBinAddr: 0x10000B38C, symSize: 0x8 }
  - { offset: 0x166DE, size: 0x8, addend: 0x0, symName: __ZNKSt3__15ctypeIcE5widenB8ne190107Ec, symObjAddr: 0x8660, symBinAddr: 0x10000B3C0, symSize: 0x34 }
  - { offset: 0x16713, size: 0x8, addend: 0x0, symName: __ZNSt3__18ios_base8setstateB8ne190107Ej, symObjAddr: 0x8694, symBinAddr: 0x10000B3F4, symSize: 0x34 }
  - { offset: 0x1674A, size: 0x8, addend: 0x0, symName: __ZNKSt3__16__treeINS_12basic_stringIcNS_11char_traitsIcEENS_9allocatorIcEEEENS_4lessIS6_EENS4_IS6_EEE4sizeB8ne190107Ev, symObjAddr: 0x86C8, symBinAddr: 0x10000B428, symSize: 0x28 }
  - { offset: 0x16770, size: 0x8, addend: 0x0, symName: __ZNKSt3__117__compressed_pairImNS_4lessINS_12basic_stringIcNS_11char_traitsIcEENS_9allocatorIcEEEEEEE5firstB8ne190107Ev, symObjAddr: 0x86F0, symBinAddr: 0x10000B450, symSize: 0x24 }
  - { offset: 0x16796, size: 0x8, addend: 0x0, symName: __ZNKSt3__122__compressed_pair_elemImLi0ELb0EE5__getB8ne190107Ev, symObjAddr: 0x8714, symBinAddr: 0x10000B474, symSize: 0x14 }
...
